
Panda02.elf:     file format elf32-littlearm

Sections:
Idx Name          Size      VMA       LMA       File off  Algn
  0 .isr_vector   000000c0  08000000  08000000  00010000  2**0
                  CONTENTS, ALLOC, LOAD, READONLY, DATA
  1 .text         00006ee0  080000c0  080000c0  000100c0  2**2
                  CONTENTS, ALLOC, LOAD, READONLY, CODE
  2 .rodata       00000184  08006fa0  08006fa0  00016fa0  2**1
                  CONTENTS, ALLOC, LOAD, READONLY, DATA
  3 .ARM.extab    00000000  08007124  08007124  0002018c  2**0
                  CONTENTS
  4 .ARM          00000000  08007124  08007124  0002018c  2**0
                  CONTENTS
  5 .preinit_array 00000000  08007124  08007124  0002018c  2**0
                  CONTENTS, ALLOC, LOAD, DATA
  6 .init_array   00000004  08007124  08007124  00017124  2**2
                  CONTENTS, ALLOC, LOAD, DATA
  7 .fini_array   00000004  08007128  08007128  00017128  2**2
                  CONTENTS, ALLOC, LOAD, DATA
  8 .data         0000018c  20000000  0800712c  00020000  2**2
                  CONTENTS, ALLOC, LOAD, DATA
  9 .bss          00001690  2000018c  080072b8  0002018c  2**2
                  ALLOC
 10 ._user_heap_stack 00000604  2000181c  080072b8  0002181c  2**0
                  ALLOC
 11 .ARM.attributes 00000028  00000000  00000000  0002018c  2**0
                  CONTENTS, READONLY
 12 .comment      0000007b  00000000  00000000  000201b4  2**0
                  CONTENTS, READONLY
 13 .debug_frame  000000b4  00000000  00000000  00020230  2**2
                  CONTENTS, READONLY, DEBUGGING

Disassembly of section .text:

080000c0 <__do_global_dtors_aux>:
 80000c0:	b510      	push	{r4, lr}
 80000c2:	4c06      	ldr	r4, [pc, #24]	; (80000dc <__do_global_dtors_aux+0x1c>)
 80000c4:	7823      	ldrb	r3, [r4, #0]
 80000c6:	2b00      	cmp	r3, #0
 80000c8:	d107      	bne.n	80000da <__do_global_dtors_aux+0x1a>
 80000ca:	4b05      	ldr	r3, [pc, #20]	; (80000e0 <__do_global_dtors_aux+0x20>)
 80000cc:	2b00      	cmp	r3, #0
 80000ce:	d002      	beq.n	80000d6 <__do_global_dtors_aux+0x16>
 80000d0:	4804      	ldr	r0, [pc, #16]	; (80000e4 <__do_global_dtors_aux+0x24>)
 80000d2:	e000      	b.n	80000d6 <__do_global_dtors_aux+0x16>
 80000d4:	bf00      	nop
 80000d6:	2301      	movs	r3, #1
 80000d8:	7023      	strb	r3, [r4, #0]
 80000da:	bd10      	pop	{r4, pc}
 80000dc:	2000018c 	.word	0x2000018c
 80000e0:	00000000 	.word	0x00000000
 80000e4:	08006f88 	.word	0x08006f88

080000e8 <frame_dummy>:
 80000e8:	4b04      	ldr	r3, [pc, #16]	; (80000fc <frame_dummy+0x14>)
 80000ea:	b510      	push	{r4, lr}
 80000ec:	2b00      	cmp	r3, #0
 80000ee:	d003      	beq.n	80000f8 <frame_dummy+0x10>
 80000f0:	4903      	ldr	r1, [pc, #12]	; (8000100 <frame_dummy+0x18>)
 80000f2:	4804      	ldr	r0, [pc, #16]	; (8000104 <frame_dummy+0x1c>)
 80000f4:	e000      	b.n	80000f8 <frame_dummy+0x10>
 80000f6:	bf00      	nop
 80000f8:	bd10      	pop	{r4, pc}
 80000fa:	46c0      	nop			; (mov r8, r8)
 80000fc:	00000000 	.word	0x00000000
 8000100:	20000190 	.word	0x20000190
 8000104:	08006f88 	.word	0x08006f88

08000108 <__gnu_thumb1_case_sqi>:
 8000108:	b402      	push	{r1}
 800010a:	4671      	mov	r1, lr
 800010c:	0849      	lsrs	r1, r1, #1
 800010e:	0049      	lsls	r1, r1, #1
 8000110:	5609      	ldrsb	r1, [r1, r0]
 8000112:	0049      	lsls	r1, r1, #1
 8000114:	448e      	add	lr, r1
 8000116:	bc02      	pop	{r1}
 8000118:	4770      	bx	lr
 800011a:	46c0      	nop			; (mov r8, r8)

0800011c <__gnu_thumb1_case_uqi>:
 800011c:	b402      	push	{r1}
 800011e:	4671      	mov	r1, lr
 8000120:	0849      	lsrs	r1, r1, #1
 8000122:	0049      	lsls	r1, r1, #1
 8000124:	5c09      	ldrb	r1, [r1, r0]
 8000126:	0049      	lsls	r1, r1, #1
 8000128:	448e      	add	lr, r1
 800012a:	bc02      	pop	{r1}
 800012c:	4770      	bx	lr
 800012e:	46c0      	nop			; (mov r8, r8)

08000130 <__gnu_thumb1_case_uhi>:
 8000130:	b403      	push	{r0, r1}
 8000132:	4671      	mov	r1, lr
 8000134:	0849      	lsrs	r1, r1, #1
 8000136:	0040      	lsls	r0, r0, #1
 8000138:	0049      	lsls	r1, r1, #1
 800013a:	5a09      	ldrh	r1, [r1, r0]
 800013c:	0049      	lsls	r1, r1, #1
 800013e:	448e      	add	lr, r1
 8000140:	bc03      	pop	{r0, r1}
 8000142:	4770      	bx	lr

08000144 <__udivsi3>:
 8000144:	2200      	movs	r2, #0
 8000146:	0843      	lsrs	r3, r0, #1
 8000148:	428b      	cmp	r3, r1
 800014a:	d374      	bcc.n	8000236 <__udivsi3+0xf2>
 800014c:	0903      	lsrs	r3, r0, #4
 800014e:	428b      	cmp	r3, r1
 8000150:	d35f      	bcc.n	8000212 <__udivsi3+0xce>
 8000152:	0a03      	lsrs	r3, r0, #8
 8000154:	428b      	cmp	r3, r1
 8000156:	d344      	bcc.n	80001e2 <__udivsi3+0x9e>
 8000158:	0b03      	lsrs	r3, r0, #12
 800015a:	428b      	cmp	r3, r1
 800015c:	d328      	bcc.n	80001b0 <__udivsi3+0x6c>
 800015e:	0c03      	lsrs	r3, r0, #16
 8000160:	428b      	cmp	r3, r1
 8000162:	d30d      	bcc.n	8000180 <__udivsi3+0x3c>
 8000164:	22ff      	movs	r2, #255	; 0xff
 8000166:	0209      	lsls	r1, r1, #8
 8000168:	ba12      	rev	r2, r2
 800016a:	0c03      	lsrs	r3, r0, #16
 800016c:	428b      	cmp	r3, r1
 800016e:	d302      	bcc.n	8000176 <__udivsi3+0x32>
 8000170:	1212      	asrs	r2, r2, #8
 8000172:	0209      	lsls	r1, r1, #8
 8000174:	d065      	beq.n	8000242 <__udivsi3+0xfe>
 8000176:	0b03      	lsrs	r3, r0, #12
 8000178:	428b      	cmp	r3, r1
 800017a:	d319      	bcc.n	80001b0 <__udivsi3+0x6c>
 800017c:	e000      	b.n	8000180 <__udivsi3+0x3c>
 800017e:	0a09      	lsrs	r1, r1, #8
 8000180:	0bc3      	lsrs	r3, r0, #15
 8000182:	428b      	cmp	r3, r1
 8000184:	d301      	bcc.n	800018a <__udivsi3+0x46>
 8000186:	03cb      	lsls	r3, r1, #15
 8000188:	1ac0      	subs	r0, r0, r3
 800018a:	4152      	adcs	r2, r2
 800018c:	0b83      	lsrs	r3, r0, #14
 800018e:	428b      	cmp	r3, r1
 8000190:	d301      	bcc.n	8000196 <__udivsi3+0x52>
 8000192:	038b      	lsls	r3, r1, #14
 8000194:	1ac0      	subs	r0, r0, r3
 8000196:	4152      	adcs	r2, r2
 8000198:	0b43      	lsrs	r3, r0, #13
 800019a:	428b      	cmp	r3, r1
 800019c:	d301      	bcc.n	80001a2 <__udivsi3+0x5e>
 800019e:	034b      	lsls	r3, r1, #13
 80001a0:	1ac0      	subs	r0, r0, r3
 80001a2:	4152      	adcs	r2, r2
 80001a4:	0b03      	lsrs	r3, r0, #12
 80001a6:	428b      	cmp	r3, r1
 80001a8:	d301      	bcc.n	80001ae <__udivsi3+0x6a>
 80001aa:	030b      	lsls	r3, r1, #12
 80001ac:	1ac0      	subs	r0, r0, r3
 80001ae:	4152      	adcs	r2, r2
 80001b0:	0ac3      	lsrs	r3, r0, #11
 80001b2:	428b      	cmp	r3, r1
 80001b4:	d301      	bcc.n	80001ba <__udivsi3+0x76>
 80001b6:	02cb      	lsls	r3, r1, #11
 80001b8:	1ac0      	subs	r0, r0, r3
 80001ba:	4152      	adcs	r2, r2
 80001bc:	0a83      	lsrs	r3, r0, #10
 80001be:	428b      	cmp	r3, r1
 80001c0:	d301      	bcc.n	80001c6 <__udivsi3+0x82>
 80001c2:	028b      	lsls	r3, r1, #10
 80001c4:	1ac0      	subs	r0, r0, r3
 80001c6:	4152      	adcs	r2, r2
 80001c8:	0a43      	lsrs	r3, r0, #9
 80001ca:	428b      	cmp	r3, r1
 80001cc:	d301      	bcc.n	80001d2 <__udivsi3+0x8e>
 80001ce:	024b      	lsls	r3, r1, #9
 80001d0:	1ac0      	subs	r0, r0, r3
 80001d2:	4152      	adcs	r2, r2
 80001d4:	0a03      	lsrs	r3, r0, #8
 80001d6:	428b      	cmp	r3, r1
 80001d8:	d301      	bcc.n	80001de <__udivsi3+0x9a>
 80001da:	020b      	lsls	r3, r1, #8
 80001dc:	1ac0      	subs	r0, r0, r3
 80001de:	4152      	adcs	r2, r2
 80001e0:	d2cd      	bcs.n	800017e <__udivsi3+0x3a>
 80001e2:	09c3      	lsrs	r3, r0, #7
 80001e4:	428b      	cmp	r3, r1
 80001e6:	d301      	bcc.n	80001ec <__udivsi3+0xa8>
 80001e8:	01cb      	lsls	r3, r1, #7
 80001ea:	1ac0      	subs	r0, r0, r3
 80001ec:	4152      	adcs	r2, r2
 80001ee:	0983      	lsrs	r3, r0, #6
 80001f0:	428b      	cmp	r3, r1
 80001f2:	d301      	bcc.n	80001f8 <__udivsi3+0xb4>
 80001f4:	018b      	lsls	r3, r1, #6
 80001f6:	1ac0      	subs	r0, r0, r3
 80001f8:	4152      	adcs	r2, r2
 80001fa:	0943      	lsrs	r3, r0, #5
 80001fc:	428b      	cmp	r3, r1
 80001fe:	d301      	bcc.n	8000204 <__udivsi3+0xc0>
 8000200:	014b      	lsls	r3, r1, #5
 8000202:	1ac0      	subs	r0, r0, r3
 8000204:	4152      	adcs	r2, r2
 8000206:	0903      	lsrs	r3, r0, #4
 8000208:	428b      	cmp	r3, r1
 800020a:	d301      	bcc.n	8000210 <__udivsi3+0xcc>
 800020c:	010b      	lsls	r3, r1, #4
 800020e:	1ac0      	subs	r0, r0, r3
 8000210:	4152      	adcs	r2, r2
 8000212:	08c3      	lsrs	r3, r0, #3
 8000214:	428b      	cmp	r3, r1
 8000216:	d301      	bcc.n	800021c <__udivsi3+0xd8>
 8000218:	00cb      	lsls	r3, r1, #3
 800021a:	1ac0      	subs	r0, r0, r3
 800021c:	4152      	adcs	r2, r2
 800021e:	0883      	lsrs	r3, r0, #2
 8000220:	428b      	cmp	r3, r1
 8000222:	d301      	bcc.n	8000228 <__udivsi3+0xe4>
 8000224:	008b      	lsls	r3, r1, #2
 8000226:	1ac0      	subs	r0, r0, r3
 8000228:	4152      	adcs	r2, r2
 800022a:	0843      	lsrs	r3, r0, #1
 800022c:	428b      	cmp	r3, r1
 800022e:	d301      	bcc.n	8000234 <__udivsi3+0xf0>
 8000230:	004b      	lsls	r3, r1, #1
 8000232:	1ac0      	subs	r0, r0, r3
 8000234:	4152      	adcs	r2, r2
 8000236:	1a41      	subs	r1, r0, r1
 8000238:	d200      	bcs.n	800023c <__udivsi3+0xf8>
 800023a:	4601      	mov	r1, r0
 800023c:	4152      	adcs	r2, r2
 800023e:	4610      	mov	r0, r2
 8000240:	4770      	bx	lr
 8000242:	e7ff      	b.n	8000244 <__udivsi3+0x100>
 8000244:	b501      	push	{r0, lr}
 8000246:	2000      	movs	r0, #0
 8000248:	f000 f8f0 	bl	800042c <__aeabi_idiv0>
 800024c:	bd02      	pop	{r1, pc}
 800024e:	46c0      	nop			; (mov r8, r8)

08000250 <__aeabi_uidivmod>:
 8000250:	2900      	cmp	r1, #0
 8000252:	d0f7      	beq.n	8000244 <__udivsi3+0x100>
 8000254:	e776      	b.n	8000144 <__udivsi3>
 8000256:	4770      	bx	lr

08000258 <__divsi3>:
 8000258:	4603      	mov	r3, r0
 800025a:	430b      	orrs	r3, r1
 800025c:	d47f      	bmi.n	800035e <__divsi3+0x106>
 800025e:	2200      	movs	r2, #0
 8000260:	0843      	lsrs	r3, r0, #1
 8000262:	428b      	cmp	r3, r1
 8000264:	d374      	bcc.n	8000350 <__divsi3+0xf8>
 8000266:	0903      	lsrs	r3, r0, #4
 8000268:	428b      	cmp	r3, r1
 800026a:	d35f      	bcc.n	800032c <__divsi3+0xd4>
 800026c:	0a03      	lsrs	r3, r0, #8
 800026e:	428b      	cmp	r3, r1
 8000270:	d344      	bcc.n	80002fc <__divsi3+0xa4>
 8000272:	0b03      	lsrs	r3, r0, #12
 8000274:	428b      	cmp	r3, r1
 8000276:	d328      	bcc.n	80002ca <__divsi3+0x72>
 8000278:	0c03      	lsrs	r3, r0, #16
 800027a:	428b      	cmp	r3, r1
 800027c:	d30d      	bcc.n	800029a <__divsi3+0x42>
 800027e:	22ff      	movs	r2, #255	; 0xff
 8000280:	0209      	lsls	r1, r1, #8
 8000282:	ba12      	rev	r2, r2
 8000284:	0c03      	lsrs	r3, r0, #16
 8000286:	428b      	cmp	r3, r1
 8000288:	d302      	bcc.n	8000290 <__divsi3+0x38>
 800028a:	1212      	asrs	r2, r2, #8
 800028c:	0209      	lsls	r1, r1, #8
 800028e:	d065      	beq.n	800035c <__divsi3+0x104>
 8000290:	0b03      	lsrs	r3, r0, #12
 8000292:	428b      	cmp	r3, r1
 8000294:	d319      	bcc.n	80002ca <__divsi3+0x72>
 8000296:	e000      	b.n	800029a <__divsi3+0x42>
 8000298:	0a09      	lsrs	r1, r1, #8
 800029a:	0bc3      	lsrs	r3, r0, #15
 800029c:	428b      	cmp	r3, r1
 800029e:	d301      	bcc.n	80002a4 <__divsi3+0x4c>
 80002a0:	03cb      	lsls	r3, r1, #15
 80002a2:	1ac0      	subs	r0, r0, r3
 80002a4:	4152      	adcs	r2, r2
 80002a6:	0b83      	lsrs	r3, r0, #14
 80002a8:	428b      	cmp	r3, r1
 80002aa:	d301      	bcc.n	80002b0 <__divsi3+0x58>
 80002ac:	038b      	lsls	r3, r1, #14
 80002ae:	1ac0      	subs	r0, r0, r3
 80002b0:	4152      	adcs	r2, r2
 80002b2:	0b43      	lsrs	r3, r0, #13
 80002b4:	428b      	cmp	r3, r1
 80002b6:	d301      	bcc.n	80002bc <__divsi3+0x64>
 80002b8:	034b      	lsls	r3, r1, #13
 80002ba:	1ac0      	subs	r0, r0, r3
 80002bc:	4152      	adcs	r2, r2
 80002be:	0b03      	lsrs	r3, r0, #12
 80002c0:	428b      	cmp	r3, r1
 80002c2:	d301      	bcc.n	80002c8 <__divsi3+0x70>
 80002c4:	030b      	lsls	r3, r1, #12
 80002c6:	1ac0      	subs	r0, r0, r3
 80002c8:	4152      	adcs	r2, r2
 80002ca:	0ac3      	lsrs	r3, r0, #11
 80002cc:	428b      	cmp	r3, r1
 80002ce:	d301      	bcc.n	80002d4 <__divsi3+0x7c>
 80002d0:	02cb      	lsls	r3, r1, #11
 80002d2:	1ac0      	subs	r0, r0, r3
 80002d4:	4152      	adcs	r2, r2
 80002d6:	0a83      	lsrs	r3, r0, #10
 80002d8:	428b      	cmp	r3, r1
 80002da:	d301      	bcc.n	80002e0 <__divsi3+0x88>
 80002dc:	028b      	lsls	r3, r1, #10
 80002de:	1ac0      	subs	r0, r0, r3
 80002e0:	4152      	adcs	r2, r2
 80002e2:	0a43      	lsrs	r3, r0, #9
 80002e4:	428b      	cmp	r3, r1
 80002e6:	d301      	bcc.n	80002ec <__divsi3+0x94>
 80002e8:	024b      	lsls	r3, r1, #9
 80002ea:	1ac0      	subs	r0, r0, r3
 80002ec:	4152      	adcs	r2, r2
 80002ee:	0a03      	lsrs	r3, r0, #8
 80002f0:	428b      	cmp	r3, r1
 80002f2:	d301      	bcc.n	80002f8 <__divsi3+0xa0>
 80002f4:	020b      	lsls	r3, r1, #8
 80002f6:	1ac0      	subs	r0, r0, r3
 80002f8:	4152      	adcs	r2, r2
 80002fa:	d2cd      	bcs.n	8000298 <__divsi3+0x40>
 80002fc:	09c3      	lsrs	r3, r0, #7
 80002fe:	428b      	cmp	r3, r1
 8000300:	d301      	bcc.n	8000306 <__divsi3+0xae>
 8000302:	01cb      	lsls	r3, r1, #7
 8000304:	1ac0      	subs	r0, r0, r3
 8000306:	4152      	adcs	r2, r2
 8000308:	0983      	lsrs	r3, r0, #6
 800030a:	428b      	cmp	r3, r1
 800030c:	d301      	bcc.n	8000312 <__divsi3+0xba>
 800030e:	018b      	lsls	r3, r1, #6
 8000310:	1ac0      	subs	r0, r0, r3
 8000312:	4152      	adcs	r2, r2
 8000314:	0943      	lsrs	r3, r0, #5
 8000316:	428b      	cmp	r3, r1
 8000318:	d301      	bcc.n	800031e <__divsi3+0xc6>
 800031a:	014b      	lsls	r3, r1, #5
 800031c:	1ac0      	subs	r0, r0, r3
 800031e:	4152      	adcs	r2, r2
 8000320:	0903      	lsrs	r3, r0, #4
 8000322:	428b      	cmp	r3, r1
 8000324:	d301      	bcc.n	800032a <__divsi3+0xd2>
 8000326:	010b      	lsls	r3, r1, #4
 8000328:	1ac0      	subs	r0, r0, r3
 800032a:	4152      	adcs	r2, r2
 800032c:	08c3      	lsrs	r3, r0, #3
 800032e:	428b      	cmp	r3, r1
 8000330:	d301      	bcc.n	8000336 <__divsi3+0xde>
 8000332:	00cb      	lsls	r3, r1, #3
 8000334:	1ac0      	subs	r0, r0, r3
 8000336:	4152      	adcs	r2, r2
 8000338:	0883      	lsrs	r3, r0, #2
 800033a:	428b      	cmp	r3, r1
 800033c:	d301      	bcc.n	8000342 <__divsi3+0xea>
 800033e:	008b      	lsls	r3, r1, #2
 8000340:	1ac0      	subs	r0, r0, r3
 8000342:	4152      	adcs	r2, r2
 8000344:	0843      	lsrs	r3, r0, #1
 8000346:	428b      	cmp	r3, r1
 8000348:	d301      	bcc.n	800034e <__divsi3+0xf6>
 800034a:	004b      	lsls	r3, r1, #1
 800034c:	1ac0      	subs	r0, r0, r3
 800034e:	4152      	adcs	r2, r2
 8000350:	1a41      	subs	r1, r0, r1
 8000352:	d200      	bcs.n	8000356 <__divsi3+0xfe>
 8000354:	4601      	mov	r1, r0
 8000356:	4152      	adcs	r2, r2
 8000358:	4610      	mov	r0, r2
 800035a:	4770      	bx	lr
 800035c:	e05d      	b.n	800041a <__divsi3+0x1c2>
 800035e:	0fca      	lsrs	r2, r1, #31
 8000360:	d000      	beq.n	8000364 <__divsi3+0x10c>
 8000362:	4249      	negs	r1, r1
 8000364:	1003      	asrs	r3, r0, #32
 8000366:	d300      	bcc.n	800036a <__divsi3+0x112>
 8000368:	4240      	negs	r0, r0
 800036a:	4053      	eors	r3, r2
 800036c:	2200      	movs	r2, #0
 800036e:	469c      	mov	ip, r3
 8000370:	0903      	lsrs	r3, r0, #4
 8000372:	428b      	cmp	r3, r1
 8000374:	d32d      	bcc.n	80003d2 <__divsi3+0x17a>
 8000376:	0a03      	lsrs	r3, r0, #8
 8000378:	428b      	cmp	r3, r1
 800037a:	d312      	bcc.n	80003a2 <__divsi3+0x14a>
 800037c:	22fc      	movs	r2, #252	; 0xfc
 800037e:	0189      	lsls	r1, r1, #6
 8000380:	ba12      	rev	r2, r2
 8000382:	0a03      	lsrs	r3, r0, #8
 8000384:	428b      	cmp	r3, r1
 8000386:	d30c      	bcc.n	80003a2 <__divsi3+0x14a>
 8000388:	0189      	lsls	r1, r1, #6
 800038a:	1192      	asrs	r2, r2, #6
 800038c:	428b      	cmp	r3, r1
 800038e:	d308      	bcc.n	80003a2 <__divsi3+0x14a>
 8000390:	0189      	lsls	r1, r1, #6
 8000392:	1192      	asrs	r2, r2, #6
 8000394:	428b      	cmp	r3, r1
 8000396:	d304      	bcc.n	80003a2 <__divsi3+0x14a>
 8000398:	0189      	lsls	r1, r1, #6
 800039a:	d03a      	beq.n	8000412 <__divsi3+0x1ba>
 800039c:	1192      	asrs	r2, r2, #6
 800039e:	e000      	b.n	80003a2 <__divsi3+0x14a>
 80003a0:	0989      	lsrs	r1, r1, #6
 80003a2:	09c3      	lsrs	r3, r0, #7
 80003a4:	428b      	cmp	r3, r1
 80003a6:	d301      	bcc.n	80003ac <__divsi3+0x154>
 80003a8:	01cb      	lsls	r3, r1, #7
 80003aa:	1ac0      	subs	r0, r0, r3
 80003ac:	4152      	adcs	r2, r2
 80003ae:	0983      	lsrs	r3, r0, #6
 80003b0:	428b      	cmp	r3, r1
 80003b2:	d301      	bcc.n	80003b8 <__divsi3+0x160>
 80003b4:	018b      	lsls	r3, r1, #6
 80003b6:	1ac0      	subs	r0, r0, r3
 80003b8:	4152      	adcs	r2, r2
 80003ba:	0943      	lsrs	r3, r0, #5
 80003bc:	428b      	cmp	r3, r1
 80003be:	d301      	bcc.n	80003c4 <__divsi3+0x16c>
 80003c0:	014b      	lsls	r3, r1, #5
 80003c2:	1ac0      	subs	r0, r0, r3
 80003c4:	4152      	adcs	r2, r2
 80003c6:	0903      	lsrs	r3, r0, #4
 80003c8:	428b      	cmp	r3, r1
 80003ca:	d301      	bcc.n	80003d0 <__divsi3+0x178>
 80003cc:	010b      	lsls	r3, r1, #4
 80003ce:	1ac0      	subs	r0, r0, r3
 80003d0:	4152      	adcs	r2, r2
 80003d2:	08c3      	lsrs	r3, r0, #3
 80003d4:	428b      	cmp	r3, r1
 80003d6:	d301      	bcc.n	80003dc <__divsi3+0x184>
 80003d8:	00cb      	lsls	r3, r1, #3
 80003da:	1ac0      	subs	r0, r0, r3
 80003dc:	4152      	adcs	r2, r2
 80003de:	0883      	lsrs	r3, r0, #2
 80003e0:	428b      	cmp	r3, r1
 80003e2:	d301      	bcc.n	80003e8 <__divsi3+0x190>
 80003e4:	008b      	lsls	r3, r1, #2
 80003e6:	1ac0      	subs	r0, r0, r3
 80003e8:	4152      	adcs	r2, r2
 80003ea:	d2d9      	bcs.n	80003a0 <__divsi3+0x148>
 80003ec:	0843      	lsrs	r3, r0, #1
 80003ee:	428b      	cmp	r3, r1
 80003f0:	d301      	bcc.n	80003f6 <__divsi3+0x19e>
 80003f2:	004b      	lsls	r3, r1, #1
 80003f4:	1ac0      	subs	r0, r0, r3
 80003f6:	4152      	adcs	r2, r2
 80003f8:	1a41      	subs	r1, r0, r1
 80003fa:	d200      	bcs.n	80003fe <__divsi3+0x1a6>
 80003fc:	4601      	mov	r1, r0
 80003fe:	4663      	mov	r3, ip
 8000400:	4152      	adcs	r2, r2
 8000402:	105b      	asrs	r3, r3, #1
 8000404:	4610      	mov	r0, r2
 8000406:	d301      	bcc.n	800040c <__divsi3+0x1b4>
 8000408:	4240      	negs	r0, r0
 800040a:	2b00      	cmp	r3, #0
 800040c:	d500      	bpl.n	8000410 <__divsi3+0x1b8>
 800040e:	4249      	negs	r1, r1
 8000410:	4770      	bx	lr
 8000412:	4663      	mov	r3, ip
 8000414:	105b      	asrs	r3, r3, #1
 8000416:	d300      	bcc.n	800041a <__divsi3+0x1c2>
 8000418:	4240      	negs	r0, r0
 800041a:	b501      	push	{r0, lr}
 800041c:	2000      	movs	r0, #0
 800041e:	f000 f805 	bl	800042c <__aeabi_idiv0>
 8000422:	bd02      	pop	{r1, pc}

08000424 <__aeabi_idivmod>:
 8000424:	2900      	cmp	r1, #0
 8000426:	d0f8      	beq.n	800041a <__divsi3+0x1c2>
 8000428:	e716      	b.n	8000258 <__divsi3>
 800042a:	4770      	bx	lr

0800042c <__aeabi_idiv0>:
 800042c:	4770      	bx	lr
 800042e:	46c0      	nop			; (mov r8, r8)

08000430 <FIRFilter_init>:
 8000430:	2200      	movs	r2, #0
 8000432:	0003      	movs	r3, r0
 8000434:	b510      	push	{r4, lr}
 8000436:	1c44      	adds	r4, r0, #1
 8000438:	34ff      	adds	r4, #255	; 0xff
 800043a:	1c11      	adds	r1, r2, #0
 800043c:	801a      	strh	r2, [r3, #0]
 800043e:	3302      	adds	r3, #2
 8000440:	42a3      	cmp	r3, r4
 8000442:	d1fb      	bne.n	800043c <FIRFilter_init+0xc>
 8000444:	30ff      	adds	r0, #255	; 0xff
 8000446:	7041      	strb	r1, [r0, #1]
 8000448:	bd10      	pop	{r4, pc}

0800044a <FIRFilter_put>:
 800044a:	b510      	push	{r4, lr}
 800044c:	0004      	movs	r4, r0
 800044e:	34ff      	adds	r4, #255	; 0xff
 8000450:	7862      	ldrb	r2, [r4, #1]
 8000452:	1c53      	adds	r3, r2, #1
 8000454:	b2db      	uxtb	r3, r3
 8000456:	0052      	lsls	r2, r2, #1
 8000458:	7063      	strb	r3, [r4, #1]
 800045a:	5211      	strh	r1, [r2, r0]
 800045c:	2b80      	cmp	r3, #128	; 0x80
 800045e:	d101      	bne.n	8000464 <FIRFilter_put+0x1a>
 8000460:	2300      	movs	r3, #0
 8000462:	7063      	strb	r3, [r4, #1]
 8000464:	bd10      	pop	{r4, pc}
	...

08000468 <FIRFilter_get>:
 8000468:	0003      	movs	r3, r0
 800046a:	b570      	push	{r4, r5, r6, lr}
 800046c:	2100      	movs	r1, #0
 800046e:	2481      	movs	r4, #129	; 0x81
 8000470:	33ff      	adds	r3, #255	; 0xff
 8000472:	785b      	ldrb	r3, [r3, #1]
 8000474:	4d0c      	ldr	r5, [pc, #48]	; (80004a8 <FIRFilter_get+0x40>)
 8000476:	3301      	adds	r3, #1
 8000478:	b2db      	uxtb	r3, r3
 800047a:	3c01      	subs	r4, #1
 800047c:	2c00      	cmp	r4, #0
 800047e:	d104      	bne.n	800048a <FIRFilter_get+0x22>
 8000480:	17c8      	asrs	r0, r1, #31
 8000482:	b280      	uxth	r0, r0
 8000484:	1840      	adds	r0, r0, r1
 8000486:	0c00      	lsrs	r0, r0, #16
 8000488:	bd70      	pop	{r4, r5, r6, pc}
 800048a:	2b80      	cmp	r3, #128	; 0x80
 800048c:	d100      	bne.n	8000490 <FIRFilter_get+0x28>
 800048e:	2300      	movs	r3, #0
 8000490:	0062      	lsls	r2, r4, #1
 8000492:	1aaa      	subs	r2, r5, r2
 8000494:	3201      	adds	r2, #1
 8000496:	32ff      	adds	r2, #255	; 0xff
 8000498:	2600      	movs	r6, #0
 800049a:	5f96      	ldrsh	r6, [r2, r6]
 800049c:	005a      	lsls	r2, r3, #1
 800049e:	5a12      	ldrh	r2, [r2, r0]
 80004a0:	4372      	muls	r2, r6
 80004a2:	1889      	adds	r1, r1, r2
 80004a4:	e7e9      	b.n	800047a <FIRFilter_get+0x12>
 80004a6:	46c0      	nop			; (mov r8, r8)
 80004a8:	08006fc0 	.word	0x08006fc0

080004ac <getAnalogRead>:
 80004ac:	4b01      	ldr	r3, [pc, #4]	; (80004b4 <getAnalogRead+0x8>)
 80004ae:	0040      	lsls	r0, r0, #1
 80004b0:	5a18      	ldrh	r0, [r3, r0]
 80004b2:	4770      	bx	lr
 80004b4:	20000542 	.word	0x20000542

080004b8 <setEncoderCount>:
 80004b8:	2180      	movs	r1, #128	; 0x80
 80004ba:	b570      	push	{r4, r5, r6, lr}
 80004bc:	4e09      	ldr	r6, [pc, #36]	; (80004e4 <setEncoderCount+0x2c>)
 80004be:	0005      	movs	r5, r0
 80004c0:	0189      	lsls	r1, r1, #6
 80004c2:	0030      	movs	r0, r6
 80004c4:	f002 f96c 	bl	80027a0 <HAL_GPIO_ReadPin>
 80004c8:	2180      	movs	r1, #128	; 0x80
 80004ca:	0004      	movs	r4, r0
 80004cc:	0149      	lsls	r1, r1, #5
 80004ce:	0030      	movs	r0, r6
 80004d0:	f002 f966 	bl	80027a0 <HAL_GPIO_ReadPin>
 80004d4:	0064      	lsls	r4, r4, #1
 80004d6:	4b04      	ldr	r3, [pc, #16]	; (80004e8 <setEncoderCount+0x30>)
 80004d8:	1900      	adds	r0, r0, r4
 80004da:	7018      	strb	r0, [r3, #0]
 80004dc:	4b03      	ldr	r3, [pc, #12]	; (80004ec <setEncoderCount+0x34>)
 80004de:	601d      	str	r5, [r3, #0]
 80004e0:	bd70      	pop	{r4, r5, r6, pc}
 80004e2:	46c0      	nop			; (mov r8, r8)
 80004e4:	48000400 	.word	0x48000400
 80004e8:	200001a9 	.word	0x200001a9
 80004ec:	200001ac 	.word	0x200001ac

080004f0 <setEncoderMode>:
 80004f0:	4b01      	ldr	r3, [pc, #4]	; (80004f8 <setEncoderMode+0x8>)
 80004f2:	7018      	strb	r0, [r3, #0]
 80004f4:	4770      	bx	lr
 80004f6:	46c0      	nop			; (mov r8, r8)
 80004f8:	200001b0 	.word	0x200001b0

080004fc <getEncoderMode>:
 80004fc:	4b01      	ldr	r3, [pc, #4]	; (8000504 <getEncoderMode+0x8>)
 80004fe:	7818      	ldrb	r0, [r3, #0]
 8000500:	4770      	bx	lr
 8000502:	46c0      	nop			; (mov r8, r8)
 8000504:	200001b0 	.word	0x200001b0

08000508 <getEncoderCount>:
 8000508:	4b01      	ldr	r3, [pc, #4]	; (8000510 <getEncoderCount+0x8>)
 800050a:	6818      	ldr	r0, [r3, #0]
 800050c:	4770      	bx	lr
 800050e:	46c0      	nop			; (mov r8, r8)
 8000510:	200001ac 	.word	0x200001ac

08000514 <encoderController>:
 8000514:	b510      	push	{r4, lr}
 8000516:	4b2a      	ldr	r3, [pc, #168]	; (80005c0 <encoderController+0xac>)
 8000518:	781b      	ldrb	r3, [r3, #0]
 800051a:	2b00      	cmp	r3, #0
 800051c:	d132      	bne.n	8000584 <encoderController+0x70>
 800051e:	2180      	movs	r1, #128	; 0x80
 8000520:	4828      	ldr	r0, [pc, #160]	; (80005c4 <encoderController+0xb0>)
 8000522:	0189      	lsls	r1, r1, #6
 8000524:	f002 f93c 	bl	80027a0 <HAL_GPIO_ReadPin>
 8000528:	2180      	movs	r1, #128	; 0x80
 800052a:	0004      	movs	r4, r0
 800052c:	0149      	lsls	r1, r1, #5
 800052e:	4825      	ldr	r0, [pc, #148]	; (80005c4 <encoderController+0xb0>)
 8000530:	f002 f936 	bl	80027a0 <HAL_GPIO_ReadPin>
 8000534:	4924      	ldr	r1, [pc, #144]	; (80005c8 <encoderController+0xb4>)
 8000536:	0063      	lsls	r3, r4, #1
 8000538:	18c3      	adds	r3, r0, r3
 800053a:	7808      	ldrb	r0, [r1, #0]
 800053c:	b2db      	uxtb	r3, r3
 800053e:	2803      	cmp	r0, #3
 8000540:	d809      	bhi.n	8000556 <encoderController+0x42>
 8000542:	f7ff fdeb 	bl	800011c <__gnu_thumb1_case_uqi>
 8000546:	1a02      	.short	0x1a02
 8000548:	1510      	.short	0x1510
 800054a:	2b02      	cmp	r3, #2
 800054c:	d105      	bne.n	800055a <encoderController+0x46>
 800054e:	481f      	ldr	r0, [pc, #124]	; (80005cc <encoderController+0xb8>)
 8000550:	6802      	ldr	r2, [r0, #0]
 8000552:	3201      	adds	r2, #1
 8000554:	6002      	str	r2, [r0, #0]
 8000556:	700b      	strb	r3, [r1, #0]
 8000558:	bd10      	pop	{r4, pc}
 800055a:	2b01      	cmp	r3, #1
 800055c:	d1fb      	bne.n	8000556 <encoderController+0x42>
 800055e:	481b      	ldr	r0, [pc, #108]	; (80005cc <encoderController+0xb8>)
 8000560:	6802      	ldr	r2, [r0, #0]
 8000562:	3a01      	subs	r2, #1
 8000564:	e7f6      	b.n	8000554 <encoderController+0x40>
 8000566:	2b03      	cmp	r3, #3
 8000568:	d0f1      	beq.n	800054e <encoderController+0x3a>
 800056a:	2b00      	cmp	r3, #0
 800056c:	d0f7      	beq.n	800055e <encoderController+0x4a>
 800056e:	e7f2      	b.n	8000556 <encoderController+0x42>
 8000570:	2b01      	cmp	r3, #1
 8000572:	d0ec      	beq.n	800054e <encoderController+0x3a>
 8000574:	2b02      	cmp	r3, #2
 8000576:	d1ee      	bne.n	8000556 <encoderController+0x42>
 8000578:	e7f1      	b.n	800055e <encoderController+0x4a>
 800057a:	2b00      	cmp	r3, #0
 800057c:	d0e7      	beq.n	800054e <encoderController+0x3a>
 800057e:	2b03      	cmp	r3, #3
 8000580:	d1e9      	bne.n	8000556 <encoderController+0x42>
 8000582:	e7ec      	b.n	800055e <encoderController+0x4a>
 8000584:	2b01      	cmp	r3, #1
 8000586:	d1e7      	bne.n	8000558 <encoderController+0x44>
 8000588:	2180      	movs	r1, #128	; 0x80
 800058a:	4b11      	ldr	r3, [pc, #68]	; (80005d0 <encoderController+0xbc>)
 800058c:	0189      	lsls	r1, r1, #6
 800058e:	681b      	ldr	r3, [r3, #0]
 8000590:	480c      	ldr	r0, [pc, #48]	; (80005c4 <encoderController+0xb0>)
 8000592:	681b      	ldr	r3, [r3, #0]
 8000594:	6a5c      	ldr	r4, [r3, #36]	; 0x24
 8000596:	f002 f903 	bl	80027a0 <HAL_GPIO_ReadPin>
 800059a:	490e      	ldr	r1, [pc, #56]	; (80005d4 <encoderController+0xc0>)
 800059c:	4b0e      	ldr	r3, [pc, #56]	; (80005d8 <encoderController+0xc4>)
 800059e:	2801      	cmp	r0, #1
 80005a0:	d104      	bne.n	80005ac <encoderController+0x98>
 80005a2:	681a      	ldr	r2, [r3, #0]
 80005a4:	601c      	str	r4, [r3, #0]
 80005a6:	1aa2      	subs	r2, r4, r2
 80005a8:	600a      	str	r2, [r1, #0]
 80005aa:	e7d5      	b.n	8000558 <encoderController+0x44>
 80005ac:	6818      	ldr	r0, [r3, #0]
 80005ae:	6809      	ldr	r1, [r1, #0]
 80005b0:	1a20      	subs	r0, r4, r0
 80005b2:	0300      	lsls	r0, r0, #12
 80005b4:	f7ff fdc6 	bl	8000144 <__udivsi3>
 80005b8:	4b08      	ldr	r3, [pc, #32]	; (80005dc <encoderController+0xc8>)
 80005ba:	6018      	str	r0, [r3, #0]
 80005bc:	e7cc      	b.n	8000558 <encoderController+0x44>
 80005be:	46c0      	nop			; (mov r8, r8)
 80005c0:	200001b0 	.word	0x200001b0
 80005c4:	48000400 	.word	0x48000400
 80005c8:	200001a9 	.word	0x200001a9
 80005cc:	200001ac 	.word	0x200001ac
 80005d0:	20000538 	.word	0x20000538
 80005d4:	200001b8 	.word	0x200001b8
 80005d8:	200001bc 	.word	0x200001bc
 80005dc:	200001b4 	.word	0x200001b4

080005e0 <getEncoderDuty>:
 80005e0:	4b01      	ldr	r3, [pc, #4]	; (80005e8 <getEncoderDuty+0x8>)
 80005e2:	6818      	ldr	r0, [r3, #0]
 80005e4:	4770      	bx	lr
 80005e6:	46c0      	nop			; (mov r8, r8)
 80005e8:	200001b4 	.word	0x200001b4

080005ec <getUserIn>:
 80005ec:	2000      	movs	r0, #0
 80005ee:	4770      	bx	lr

080005f0 <setOffset>:
 80005f0:	4a05      	ldr	r2, [pc, #20]	; (8000608 <setOffset+0x18>)
 80005f2:	b510      	push	{r4, lr}
 80005f4:	8010      	strh	r0, [r2, #0]
 80005f6:	2200      	movs	r2, #0
 80005f8:	0003      	movs	r3, r0
 80005fa:	4804      	ldr	r0, [pc, #16]	; (800060c <setOffset+0x1c>)
 80005fc:	0011      	movs	r1, r2
 80005fe:	6800      	ldr	r0, [r0, #0]
 8000600:	f001 fed6 	bl	80023b0 <HAL_DAC_SetValue>
 8000604:	bd10      	pop	{r4, pc}
 8000606:	46c0      	nop			; (mov r8, r8)
 8000608:	20000540 	.word	0x20000540
 800060c:	20000534 	.word	0x20000534

08000610 <getOffset>:
 8000610:	4b01      	ldr	r3, [pc, #4]	; (8000618 <getOffset+0x8>)
 8000612:	8818      	ldrh	r0, [r3, #0]
 8000614:	4770      	bx	lr
 8000616:	46c0      	nop			; (mov r8, r8)
 8000618:	20000540 	.word	0x20000540

0800061c <acquisitionInit>:
 800061c:	b570      	push	{r4, r5, r6, lr}
 800061e:	4d0f      	ldr	r5, [pc, #60]	; (800065c <acquisitionInit+0x40>)
 8000620:	4c0f      	ldr	r4, [pc, #60]	; (8000660 <acquisitionInit+0x44>)
 8000622:	4b10      	ldr	r3, [pc, #64]	; (8000664 <acquisitionInit+0x48>)
 8000624:	602a      	str	r2, [r5, #0]
 8000626:	6021      	str	r1, [r4, #0]
 8000628:	2203      	movs	r2, #3
 800062a:	490f      	ldr	r1, [pc, #60]	; (8000668 <acquisitionInit+0x4c>)
 800062c:	6018      	str	r0, [r3, #0]
 800062e:	f001 fbed 	bl	8001e0c <HAL_ADC_Start_DMA>
 8000632:	480e      	ldr	r0, [pc, #56]	; (800066c <acquisitionInit+0x50>)
 8000634:	f7ff fefc 	bl	8000430 <FIRFilter_init>
 8000638:	2100      	movs	r1, #0
 800063a:	6828      	ldr	r0, [r5, #0]
 800063c:	f001 fee6 	bl	800240c <HAL_DAC_Start>
 8000640:	2080      	movs	r0, #128	; 0x80
 8000642:	0100      	lsls	r0, r0, #4
 8000644:	f7ff ffd4 	bl	80005f0 <setOffset>
 8000648:	6820      	ldr	r0, [r4, #0]
 800064a:	f004 fa2e 	bl	8004aaa <HAL_TIM_Base_Start_IT>
 800064e:	2000      	movs	r0, #0
 8000650:	f7ff ff32 	bl	80004b8 <setEncoderCount>
 8000654:	2000      	movs	r0, #0
 8000656:	f001 f83d 	bl	80016d4 <digipotWrite>
 800065a:	bd70      	pop	{r4, r5, r6, pc}
 800065c:	20000534 	.word	0x20000534
 8000660:	20000538 	.word	0x20000538
 8000664:	2000053c 	.word	0x2000053c
 8000668:	20000542 	.word	0x20000542
 800066c:	20000430 	.word	0x20000430

08000670 <sendToFilter>:
 8000670:	b510      	push	{r4, lr}
 8000672:	4b03      	ldr	r3, [pc, #12]	; (8000680 <sendToFilter+0x10>)
 8000674:	4803      	ldr	r0, [pc, #12]	; (8000684 <sendToFilter+0x14>)
 8000676:	8899      	ldrh	r1, [r3, #4]
 8000678:	f7ff fee7 	bl	800044a <FIRFilter_put>
 800067c:	bd10      	pop	{r4, pc}
 800067e:	46c0      	nop			; (mov r8, r8)
 8000680:	20000542 	.word	0x20000542
 8000684:	20000430 	.word	0x20000430

08000688 <getFromFilter>:
 8000688:	b510      	push	{r4, lr}
 800068a:	4802      	ldr	r0, [pc, #8]	; (8000694 <getFromFilter+0xc>)
 800068c:	f7ff feec 	bl	8000468 <FIRFilter_get>
 8000690:	bd10      	pop	{r4, pc}
 8000692:	46c0      	nop			; (mov r8, r8)
 8000694:	20000430 	.word	0x20000430

08000698 <measureGain>:
 8000698:	b570      	push	{r4, r5, r6, lr}
 800069a:	0005      	movs	r5, r0
 800069c:	2464      	movs	r4, #100	; 0x64
 800069e:	2600      	movs	r6, #0
 80006a0:	4b0b      	ldr	r3, [pc, #44]	; (80006d0 <measureGain+0x38>)
 80006a2:	4a0c      	ldr	r2, [pc, #48]	; (80006d4 <measureGain+0x3c>)
 80006a4:	889b      	ldrh	r3, [r3, #4]
 80006a6:	3c01      	subs	r4, #1
 80006a8:	189b      	adds	r3, r3, r2
 80006aa:	200a      	movs	r0, #10
 80006ac:	b2e4      	uxtb	r4, r4
 80006ae:	18f6      	adds	r6, r6, r3
 80006b0:	f001 faa8 	bl	8001c04 <HAL_Delay>
 80006b4:	2c00      	cmp	r4, #0
 80006b6:	d1f3      	bne.n	80006a0 <measureGain+0x8>
 80006b8:	0030      	movs	r0, r6
 80006ba:	2164      	movs	r1, #100	; 0x64
 80006bc:	f7ff fdcc 	bl	8000258 <__divsi3>
 80006c0:	17c3      	asrs	r3, r0, #31
 80006c2:	18c0      	adds	r0, r0, r3
 80006c4:	0029      	movs	r1, r5
 80006c6:	4058      	eors	r0, r3
 80006c8:	f7ff fdc6 	bl	8000258 <__divsi3>
 80006cc:	b2c0      	uxtb	r0, r0
 80006ce:	bd70      	pop	{r4, r5, r6, pc}
 80006d0:	20000542 	.word	0x20000542
 80006d4:	fffff800 	.word	0xfffff800

080006d8 <calibrateGain>:
 80006d8:	b510      	push	{r4, lr}
 80006da:	20ff      	movs	r0, #255	; 0xff
 80006dc:	f000 fffa 	bl	80016d4 <digipotWrite>
 80006e0:	2064      	movs	r0, #100	; 0x64
 80006e2:	f001 fa8f 	bl	8001c04 <HAL_Delay>
 80006e6:	2029      	movs	r0, #41	; 0x29
 80006e8:	f7ff ffd6 	bl	8000698 <measureGain>
 80006ec:	1e41      	subs	r1, r0, #1
 80006ee:	4811      	ldr	r0, [pc, #68]	; (8000734 <calibrateGain+0x5c>)
 80006f0:	f7ff fdb2 	bl	8000258 <__divsi3>
 80006f4:	0004      	movs	r4, r0
 80006f6:	2064      	movs	r0, #100	; 0x64
 80006f8:	f001 fa84 	bl	8001c04 <HAL_Delay>
 80006fc:	20f5      	movs	r0, #245	; 0xf5
 80006fe:	f000 ffe9 	bl	80016d4 <digipotWrite>
 8000702:	2064      	movs	r0, #100	; 0x64
 8000704:	f001 fa7e 	bl	8001c04 <HAL_Delay>
 8000708:	2029      	movs	r0, #41	; 0x29
 800070a:	f7ff ffc5 	bl	8000698 <measureGain>
 800070e:	1e41      	subs	r1, r0, #1
 8000710:	4808      	ldr	r0, [pc, #32]	; (8000734 <calibrateGain+0x5c>)
 8000712:	f7ff fda1 	bl	8000258 <__divsi3>
 8000716:	210a      	movs	r1, #10
 8000718:	1b00      	subs	r0, r0, r4
 800071a:	f7ff fd13 	bl	8000144 <__udivsi3>
 800071e:	2201      	movs	r2, #1
 8000720:	4b05      	ldr	r3, [pc, #20]	; (8000738 <calibrateGain+0x60>)
 8000722:	b2c0      	uxtb	r0, r0
 8000724:	7018      	strb	r0, [r3, #0]
 8000726:	4b05      	ldr	r3, [pc, #20]	; (800073c <calibrateGain+0x64>)
 8000728:	1a24      	subs	r4, r4, r0
 800072a:	701c      	strb	r4, [r3, #0]
 800072c:	4b04      	ldr	r3, [pc, #16]	; (8000740 <calibrateGain+0x68>)
 800072e:	701a      	strb	r2, [r3, #0]
 8000730:	bd10      	pop	{r4, pc}
 8000732:	46c0      	nop			; (mov r8, r8)
 8000734:	000186a0 	.word	0x000186a0
 8000738:	20000000 	.word	0x20000000
 800073c:	20000001 	.word	0x20000001
 8000740:	200001a8 	.word	0x200001a8

08000744 <getGainCalibrated>:
 8000744:	4b01      	ldr	r3, [pc, #4]	; (800074c <getGainCalibrated+0x8>)
 8000746:	7818      	ldrb	r0, [r3, #0]
 8000748:	4770      	bx	lr
 800074a:	46c0      	nop			; (mov r8, r8)
 800074c:	200001a8 	.word	0x200001a8

08000750 <getRgStep>:
 8000750:	4b01      	ldr	r3, [pc, #4]	; (8000758 <getRgStep+0x8>)
 8000752:	7818      	ldrb	r0, [r3, #0]
 8000754:	4770      	bx	lr
 8000756:	46c0      	nop			; (mov r8, r8)
 8000758:	20000000 	.word	0x20000000

0800075c <getRgWiper>:
 800075c:	4b01      	ldr	r3, [pc, #4]	; (8000764 <getRgWiper+0x8>)
 800075e:	7818      	ldrb	r0, [r3, #0]
 8000760:	4770      	bx	lr
 8000762:	46c0      	nop			; (mov r8, r8)
 8000764:	20000001 	.word	0x20000001

08000768 <calcGain>:
 8000768:	21ff      	movs	r1, #255	; 0xff
 800076a:	b510      	push	{r4, lr}
 800076c:	4b06      	ldr	r3, [pc, #24]	; (8000788 <calcGain+0x20>)
 800076e:	1a08      	subs	r0, r1, r0
 8000770:	7819      	ldrb	r1, [r3, #0]
 8000772:	4b06      	ldr	r3, [pc, #24]	; (800078c <calcGain+0x24>)
 8000774:	4348      	muls	r0, r1
 8000776:	7819      	ldrb	r1, [r3, #0]
 8000778:	1809      	adds	r1, r1, r0
 800077a:	b289      	uxth	r1, r1
 800077c:	4804      	ldr	r0, [pc, #16]	; (8000790 <calcGain+0x28>)
 800077e:	f7ff fd6b 	bl	8000258 <__divsi3>
 8000782:	3001      	adds	r0, #1
 8000784:	b280      	uxth	r0, r0
 8000786:	bd10      	pop	{r4, pc}
 8000788:	20000000 	.word	0x20000000
 800078c:	20000001 	.word	0x20000001
 8000790:	000186a0 	.word	0x000186a0

08000794 <setGain>:
 8000794:	1e41      	subs	r1, r0, #1
 8000796:	b510      	push	{r4, lr}
 8000798:	480a      	ldr	r0, [pc, #40]	; (80007c4 <setGain+0x30>)
 800079a:	f7ff fd5d 	bl	8000258 <__divsi3>
 800079e:	4b0a      	ldr	r3, [pc, #40]	; (80007c8 <setGain+0x34>)
 80007a0:	b280      	uxth	r0, r0
 80007a2:	781b      	ldrb	r3, [r3, #0]
 80007a4:	1ac0      	subs	r0, r0, r3
 80007a6:	4b09      	ldr	r3, [pc, #36]	; (80007cc <setGain+0x38>)
 80007a8:	7819      	ldrb	r1, [r3, #0]
 80007aa:	f7ff fd55 	bl	8000258 <__divsi3>
 80007ae:	22ff      	movs	r2, #255	; 0xff
 80007b0:	1a13      	subs	r3, r2, r0
 80007b2:	b29b      	uxth	r3, r3
 80007b4:	1c18      	adds	r0, r3, #0
 80007b6:	4293      	cmp	r3, r2
 80007b8:	d900      	bls.n	80007bc <setGain+0x28>
 80007ba:	1c10      	adds	r0, r2, #0
 80007bc:	b2c0      	uxtb	r0, r0
 80007be:	f000 ff89 	bl	80016d4 <digipotWrite>
 80007c2:	bd10      	pop	{r4, pc}
 80007c4:	000186a0 	.word	0x000186a0
 80007c8:	20000001 	.word	0x20000001
 80007cc:	20000000 	.word	0x20000000

080007d0 <getActiveGain>:
 80007d0:	b510      	push	{r4, lr}
 80007d2:	f000 ff79 	bl	80016c8 <getActiveD>
 80007d6:	f7ff ffc7 	bl	8000768 <calcGain>
 80007da:	bd10      	pop	{r4, pc}

080007dc <autoOffset>:
 80007dc:	2080      	movs	r0, #128	; 0x80
 80007de:	b5f8      	push	{r3, r4, r5, r6, r7, lr}
 80007e0:	0100      	lsls	r0, r0, #4
 80007e2:	f7ff ff05 	bl	80005f0 <setOffset>
 80007e6:	f7ff ff4f 	bl	8000688 <getFromFilter>
 80007ea:	4b17      	ldr	r3, [pc, #92]	; (8000848 <autoOffset+0x6c>)
 80007ec:	2580      	movs	r5, #128	; 0x80
 80007ee:	18c0      	adds	r0, r0, r3
 80007f0:	b204      	sxth	r4, r0
 80007f2:	f001 fa01 	bl	8001bf8 <HAL_GetTick>
 80007f6:	2780      	movs	r7, #128	; 0x80
 80007f8:	0006      	movs	r6, r0
 80007fa:	012d      	lsls	r5, r5, #4
 80007fc:	017f      	lsls	r7, r7, #5
 80007fe:	b2a4      	uxth	r4, r4
 8000800:	1d63      	adds	r3, r4, #5
 8000802:	b29b      	uxth	r3, r3
 8000804:	2b0a      	cmp	r3, #10
 8000806:	d801      	bhi.n	800080c <autoOffset+0x30>
 8000808:	2001      	movs	r0, #1
 800080a:	bdf8      	pop	{r3, r4, r5, r6, r7, pc}
 800080c:	f001 f9f4 	bl	8001bf8 <HAL_GetTick>
 8000810:	23fa      	movs	r3, #250	; 0xfa
 8000812:	009b      	lsls	r3, r3, #2
 8000814:	18f3      	adds	r3, r6, r3
 8000816:	4298      	cmp	r0, r3
 8000818:	d905      	bls.n	8000826 <autoOffset+0x4a>
 800081a:	2080      	movs	r0, #128	; 0x80
 800081c:	0100      	lsls	r0, r0, #4
 800081e:	f7ff fee7 	bl	80005f0 <setOffset>
 8000822:	2000      	movs	r0, #0
 8000824:	e7f1      	b.n	800080a <autoOffset+0x2e>
 8000826:	1b2c      	subs	r4, r5, r4
 8000828:	b2a0      	uxth	r0, r4
 800082a:	b205      	sxth	r5, r0
 800082c:	42b8      	cmp	r0, r7
 800082e:	d8f8      	bhi.n	8000822 <autoOffset+0x46>
 8000830:	f7ff fede 	bl	80005f0 <setOffset>
 8000834:	2064      	movs	r0, #100	; 0x64
 8000836:	f001 f9e5 	bl	8001c04 <HAL_Delay>
 800083a:	f7ff ff25 	bl	8000688 <getFromFilter>
 800083e:	4b02      	ldr	r3, [pc, #8]	; (8000848 <autoOffset+0x6c>)
 8000840:	18c0      	adds	r0, r0, r3
 8000842:	b204      	sxth	r4, r0
 8000844:	e7db      	b.n	80007fe <autoOffset+0x22>
 8000846:	46c0      	nop			; (mov r8, r8)
 8000848:	fffff800 	.word	0xfffff800

0800084c <SystemClock_Config>:
 800084c:	b530      	push	{r4, r5, lr}
 800084e:	2410      	movs	r4, #16
 8000850:	b099      	sub	sp, #100	; 0x64
 8000852:	2230      	movs	r2, #48	; 0x30
 8000854:	2100      	movs	r1, #0
 8000856:	a80c      	add	r0, sp, #48	; 0x30
 8000858:	f006 fb8d 	bl	8006f76 <memset>
 800085c:	0022      	movs	r2, r4
 800085e:	2100      	movs	r1, #0
 8000860:	4668      	mov	r0, sp
 8000862:	f006 fb88 	bl	8006f76 <memset>
 8000866:	221c      	movs	r2, #28
 8000868:	2100      	movs	r1, #0
 800086a:	a804      	add	r0, sp, #16
 800086c:	f006 fb83 	bl	8006f76 <memset>
 8000870:	2501      	movs	r5, #1
 8000872:	2322      	movs	r3, #34	; 0x22
 8000874:	a80b      	add	r0, sp, #44	; 0x2c
 8000876:	930b      	str	r3, [sp, #44]	; 0x2c
 8000878:	940f      	str	r4, [sp, #60]	; 0x3c
 800087a:	950e      	str	r5, [sp, #56]	; 0x38
 800087c:	9513      	str	r5, [sp, #76]	; 0x4c
 800087e:	f003 fb9b 	bl	8003fb8 <HAL_RCC_OscConfig>
 8000882:	2307      	movs	r3, #7
 8000884:	2400      	movs	r4, #0
 8000886:	9300      	str	r3, [sp, #0]
 8000888:	0029      	movs	r1, r5
 800088a:	3b04      	subs	r3, #4
 800088c:	4668      	mov	r0, sp
 800088e:	9301      	str	r3, [sp, #4]
 8000890:	9402      	str	r4, [sp, #8]
 8000892:	9403      	str	r4, [sp, #12]
 8000894:	f003 fe22 	bl	80044dc <HAL_RCC_ClockConfig>
 8000898:	4b04      	ldr	r3, [pc, #16]	; (80008ac <SystemClock_Config+0x60>)
 800089a:	a804      	add	r0, sp, #16
 800089c:	9304      	str	r3, [sp, #16]
 800089e:	9406      	str	r4, [sp, #24]
 80008a0:	9408      	str	r4, [sp, #32]
 80008a2:	940a      	str	r4, [sp, #40]	; 0x28
 80008a4:	f003 feb6 	bl	8004614 <HAL_RCCEx_PeriphCLKConfig>
 80008a8:	b019      	add	sp, #100	; 0x64
 80008aa:	bd30      	pop	{r4, r5, pc}
 80008ac:	00020021 	.word	0x00020021

080008b0 <main>:
 80008b0:	b5f0      	push	{r4, r5, r6, r7, lr}
 80008b2:	b08b      	sub	sp, #44	; 0x2c
 80008b4:	f001 f984 	bl	8001bc0 <HAL_Init>
 80008b8:	f7ff ffc8 	bl	800084c <SystemClock_Config>
 80008bc:	2214      	movs	r2, #20
 80008be:	2100      	movs	r1, #0
 80008c0:	a805      	add	r0, sp, #20
 80008c2:	f006 fb58 	bl	8006f76 <memset>
 80008c6:	2180      	movs	r1, #128	; 0x80
 80008c8:	4dbe      	ldr	r5, [pc, #760]	; (8000bc4 <main+0x314>)
 80008ca:	0289      	lsls	r1, r1, #10
 80008cc:	696a      	ldr	r2, [r5, #20]
 80008ce:	2090      	movs	r0, #144	; 0x90
 80008d0:	430a      	orrs	r2, r1
 80008d2:	616a      	str	r2, [r5, #20]
 80008d4:	696b      	ldr	r3, [r5, #20]
 80008d6:	4ebc      	ldr	r6, [pc, #752]	; (8000bc8 <main+0x318>)
 80008d8:	400b      	ands	r3, r1
 80008da:	2180      	movs	r1, #128	; 0x80
 80008dc:	9301      	str	r3, [sp, #4]
 80008de:	9b01      	ldr	r3, [sp, #4]
 80008e0:	696a      	ldr	r2, [r5, #20]
 80008e2:	02c9      	lsls	r1, r1, #11
 80008e4:	430a      	orrs	r2, r1
 80008e6:	616a      	str	r2, [r5, #20]
 80008e8:	696b      	ldr	r3, [r5, #20]
 80008ea:	2200      	movs	r2, #0
 80008ec:	400b      	ands	r3, r1
 80008ee:	9302      	str	r3, [sp, #8]
 80008f0:	2108      	movs	r1, #8
 80008f2:	05c0      	lsls	r0, r0, #23
 80008f4:	9b02      	ldr	r3, [sp, #8]
 80008f6:	f001 ff59 	bl	80027ac <HAL_GPIO_WritePin>
 80008fa:	2200      	movs	r2, #0
 80008fc:	0031      	movs	r1, r6
 80008fe:	48b3      	ldr	r0, [pc, #716]	; (8000bcc <main+0x31c>)
 8000900:	f001 ff54 	bl	80027ac <HAL_GPIO_WritePin>
 8000904:	2090      	movs	r0, #144	; 0x90
 8000906:	2400      	movs	r4, #0
 8000908:	2701      	movs	r7, #1
 800090a:	2308      	movs	r3, #8
 800090c:	a905      	add	r1, sp, #20
 800090e:	05c0      	lsls	r0, r0, #23
 8000910:	9305      	str	r3, [sp, #20]
 8000912:	9706      	str	r7, [sp, #24]
 8000914:	9407      	str	r4, [sp, #28]
 8000916:	9408      	str	r4, [sp, #32]
 8000918:	f001 fe80 	bl	800261c <HAL_GPIO_Init>
 800091c:	a905      	add	r1, sp, #20
 800091e:	48ab      	ldr	r0, [pc, #684]	; (8000bcc <main+0x31c>)
 8000920:	9605      	str	r6, [sp, #20]
 8000922:	9706      	str	r7, [sp, #24]
 8000924:	9407      	str	r4, [sp, #28]
 8000926:	9408      	str	r4, [sp, #32]
 8000928:	f001 fe78 	bl	800261c <HAL_GPIO_Init>
 800092c:	4ba8      	ldr	r3, [pc, #672]	; (8000bd0 <main+0x320>)
 800092e:	a905      	add	r1, sp, #20
 8000930:	48a6      	ldr	r0, [pc, #664]	; (8000bcc <main+0x31c>)
 8000932:	9305      	str	r3, [sp, #20]
 8000934:	9406      	str	r4, [sp, #24]
 8000936:	9407      	str	r4, [sp, #28]
 8000938:	f001 fe70 	bl	800261c <HAL_GPIO_Init>
 800093c:	23c0      	movs	r3, #192	; 0xc0
 800093e:	019b      	lsls	r3, r3, #6
 8000940:	9305      	str	r3, [sp, #20]
 8000942:	4ba4      	ldr	r3, [pc, #656]	; (8000bd4 <main+0x324>)
 8000944:	a905      	add	r1, sp, #20
 8000946:	48a1      	ldr	r0, [pc, #644]	; (8000bcc <main+0x31c>)
 8000948:	9306      	str	r3, [sp, #24]
 800094a:	9407      	str	r4, [sp, #28]
 800094c:	f001 fe66 	bl	800261c <HAL_GPIO_Init>
 8000950:	2381      	movs	r3, #129	; 0x81
 8000952:	2090      	movs	r0, #144	; 0x90
 8000954:	021b      	lsls	r3, r3, #8
 8000956:	a905      	add	r1, sp, #20
 8000958:	05c0      	lsls	r0, r0, #23
 800095a:	9305      	str	r3, [sp, #20]
 800095c:	9406      	str	r4, [sp, #24]
 800095e:	9407      	str	r4, [sp, #28]
 8000960:	f001 fe5c 	bl	800261c <HAL_GPIO_Init>
 8000964:	0022      	movs	r2, r4
 8000966:	0021      	movs	r1, r4
 8000968:	2007      	movs	r0, #7
 800096a:	f001 fbef 	bl	800214c <HAL_NVIC_SetPriority>
 800096e:	2007      	movs	r0, #7
 8000970:	f001 fc16 	bl	80021a0 <HAL_NVIC_EnableIRQ>
 8000974:	696b      	ldr	r3, [r5, #20]
 8000976:	0022      	movs	r2, r4
 8000978:	433b      	orrs	r3, r7
 800097a:	616b      	str	r3, [r5, #20]
 800097c:	696b      	ldr	r3, [r5, #20]
 800097e:	0021      	movs	r1, r4
 8000980:	403b      	ands	r3, r7
 8000982:	9300      	str	r3, [sp, #0]
 8000984:	2009      	movs	r0, #9
 8000986:	9b00      	ldr	r3, [sp, #0]
 8000988:	f001 fbe0 	bl	800214c <HAL_NVIC_SetPriority>
 800098c:	2009      	movs	r0, #9
 800098e:	f001 fc07 	bl	80021a0 <HAL_NVIC_EnableIRQ>
 8000992:	0021      	movs	r1, r4
 8000994:	220c      	movs	r2, #12
 8000996:	a805      	add	r0, sp, #20
 8000998:	f006 faed 	bl	8006f76 <memset>
 800099c:	003e      	movs	r6, r7
 800099e:	4b8e      	ldr	r3, [pc, #568]	; (8000bd8 <main+0x328>)
 80009a0:	4f8e      	ldr	r7, [pc, #568]	; (8000bdc <main+0x32c>)
 80009a2:	2502      	movs	r5, #2
 80009a4:	603b      	str	r3, [r7, #0]
 80009a6:	2380      	movs	r3, #128	; 0x80
 80009a8:	061b      	lsls	r3, r3, #24
 80009aa:	607b      	str	r3, [r7, #4]
 80009ac:	2304      	movs	r3, #4
 80009ae:	617b      	str	r3, [r7, #20]
 80009b0:	23c2      	movs	r3, #194	; 0xc2
 80009b2:	33ff      	adds	r3, #255	; 0xff
 80009b4:	61fb      	str	r3, [r7, #28]
 80009b6:	0038      	movs	r0, r7
 80009b8:	1d7b      	adds	r3, r7, #5
 80009ba:	77de      	strb	r6, [r3, #31]
 80009bc:	60bc      	str	r4, [r7, #8]
 80009be:	60fc      	str	r4, [r7, #12]
 80009c0:	613e      	str	r6, [r7, #16]
 80009c2:	763c      	strb	r4, [r7, #24]
 80009c4:	767c      	strb	r4, [r7, #25]
 80009c6:	76be      	strb	r6, [r7, #26]
 80009c8:	76fc      	strb	r4, [r7, #27]
 80009ca:	623c      	str	r4, [r7, #32]
 80009cc:	62be      	str	r6, [r7, #40]	; 0x28
 80009ce:	f001 f977 	bl	8001cc0 <HAL_ADC_Init>
 80009d2:	2007      	movs	r0, #7
 80009d4:	2280      	movs	r2, #128	; 0x80
 80009d6:	9007      	str	r0, [sp, #28]
 80009d8:	0152      	lsls	r2, r2, #5
 80009da:	a905      	add	r1, sp, #20
 80009dc:	0038      	movs	r0, r7
 80009de:	9206      	str	r2, [sp, #24]
 80009e0:	9405      	str	r4, [sp, #20]
 80009e2:	f001 faa9 	bl	8001f38 <HAL_ADC_ConfigChannel>
 80009e6:	a905      	add	r1, sp, #20
 80009e8:	0038      	movs	r0, r7
 80009ea:	9605      	str	r6, [sp, #20]
 80009ec:	f001 faa4 	bl	8001f38 <HAL_ADC_ConfigChannel>
 80009f0:	a905      	add	r1, sp, #20
 80009f2:	0038      	movs	r0, r7
 80009f4:	9505      	str	r5, [sp, #20]
 80009f6:	f001 fa9f 	bl	8001f38 <HAL_ADC_ConfigChannel>
 80009fa:	2210      	movs	r2, #16
 80009fc:	4878      	ldr	r0, [pc, #480]	; (8000be0 <main+0x330>)
 80009fe:	4b79      	ldr	r3, [pc, #484]	; (8000be4 <main+0x334>)
 8000a00:	6042      	str	r2, [r0, #4]
 8000a02:	6003      	str	r3, [r0, #0]
 8000a04:	6084      	str	r4, [r0, #8]
 8000a06:	60c4      	str	r4, [r0, #12]
 8000a08:	6104      	str	r4, [r0, #16]
 8000a0a:	6144      	str	r4, [r0, #20]
 8000a0c:	7604      	strb	r4, [r0, #24]
 8000a0e:	7644      	strb	r4, [r0, #25]
 8000a10:	7684      	strb	r4, [r0, #26]
 8000a12:	76c4      	strb	r4, [r0, #27]
 8000a14:	7704      	strb	r4, [r0, #28]
 8000a16:	7744      	strb	r4, [r0, #29]
 8000a18:	f001 fb0e 	bl	8002038 <HAL_CAN_Init>
 8000a1c:	0021      	movs	r1, r4
 8000a1e:	2208      	movs	r2, #8
 8000a20:	a805      	add	r0, sp, #20
 8000a22:	f006 faa8 	bl	8006f76 <memset>
 8000a26:	4a70      	ldr	r2, [pc, #448]	; (8000be8 <main+0x338>)
 8000a28:	4b70      	ldr	r3, [pc, #448]	; (8000bec <main+0x33c>)
 8000a2a:	0010      	movs	r0, r2
 8000a2c:	6013      	str	r3, [r2, #0]
 8000a2e:	f001 fcab 	bl	8002388 <HAL_DAC_Init>
 8000a32:	0022      	movs	r2, r4
 8000a34:	a905      	add	r1, sp, #20
 8000a36:	486c      	ldr	r0, [pc, #432]	; (8000be8 <main+0x338>)
 8000a38:	9405      	str	r4, [sp, #20]
 8000a3a:	9406      	str	r4, [sp, #24]
 8000a3c:	f001 fcca 	bl	80023d4 <HAL_DAC_ConfigChannel>
 8000a40:	4a6b      	ldr	r2, [pc, #428]	; (8000bf0 <main+0x340>)
 8000a42:	4b6c      	ldr	r3, [pc, #432]	; (8000bf4 <main+0x344>)
 8000a44:	0010      	movs	r0, r2
 8000a46:	6013      	str	r3, [r2, #0]
 8000a48:	4b6b      	ldr	r3, [pc, #428]	; (8000bf8 <main+0x348>)
 8000a4a:	60d6      	str	r6, [r2, #12]
 8000a4c:	6053      	str	r3, [r2, #4]
 8000a4e:	2364      	movs	r3, #100	; 0x64
 8000a50:	6114      	str	r4, [r2, #16]
 8000a52:	6093      	str	r3, [r2, #8]
 8000a54:	6154      	str	r4, [r2, #20]
 8000a56:	6194      	str	r4, [r2, #24]
 8000a58:	61d4      	str	r4, [r2, #28]
 8000a5a:	6214      	str	r4, [r2, #32]
 8000a5c:	f001 ffea 	bl	8002a34 <HAL_I2C_Init>
 8000a60:	0021      	movs	r1, r4
 8000a62:	4863      	ldr	r0, [pc, #396]	; (8000bf0 <main+0x340>)
 8000a64:	f002 fc5e 	bl	8003324 <HAL_I2CEx_ConfigAnalogFilter>
 8000a68:	0021      	movs	r1, r4
 8000a6a:	4861      	ldr	r0, [pc, #388]	; (8000bf0 <main+0x340>)
 8000a6c:	f002 fc80 	bl	8003370 <HAL_I2CEx_ConfigDigitalFilter>
 8000a70:	4e62      	ldr	r6, [pc, #392]	; (8000bfc <main+0x34c>)
 8000a72:	4b63      	ldr	r3, [pc, #396]	; (8000c00 <main+0x350>)
 8000a74:	2007      	movs	r0, #7
 8000a76:	6033      	str	r3, [r6, #0]
 8000a78:	2382      	movs	r3, #130	; 0x82
 8000a7a:	005b      	lsls	r3, r3, #1
 8000a7c:	6073      	str	r3, [r6, #4]
 8000a7e:	23e0      	movs	r3, #224	; 0xe0
 8000a80:	00db      	lsls	r3, r3, #3
 8000a82:	60f3      	str	r3, [r6, #12]
 8000a84:	2380      	movs	r3, #128	; 0x80
 8000a86:	2201      	movs	r2, #1
 8000a88:	009b      	lsls	r3, r3, #2
 8000a8a:	6135      	str	r5, [r6, #16]
 8000a8c:	62f0      	str	r0, [r6, #44]	; 0x2c
 8000a8e:	351e      	adds	r5, #30
 8000a90:	0030      	movs	r0, r6
 8000a92:	6172      	str	r2, [r6, #20]
 8000a94:	60b4      	str	r4, [r6, #8]
 8000a96:	61b3      	str	r3, [r6, #24]
 8000a98:	61f5      	str	r5, [r6, #28]
 8000a9a:	6234      	str	r4, [r6, #32]
 8000a9c:	6274      	str	r4, [r6, #36]	; 0x24
 8000a9e:	62b4      	str	r4, [r6, #40]	; 0x28
 8000aa0:	6334      	str	r4, [r6, #48]	; 0x30
 8000aa2:	6374      	str	r4, [r6, #52]	; 0x34
 8000aa4:	f003 fed8 	bl	8004858 <HAL_SPI_Init>
 8000aa8:	4d56      	ldr	r5, [pc, #344]	; (8000c04 <main+0x354>)
 8000aaa:	4b57      	ldr	r3, [pc, #348]	; (8000c08 <main+0x358>)
 8000aac:	200c      	movs	r0, #12
 8000aae:	602b      	str	r3, [r5, #0]
 8000ab0:	2396      	movs	r3, #150	; 0x96
 8000ab2:	019b      	lsls	r3, r3, #6
 8000ab4:	606b      	str	r3, [r5, #4]
 8000ab6:	2340      	movs	r3, #64	; 0x40
 8000ab8:	626b      	str	r3, [r5, #36]	; 0x24
 8000aba:	2380      	movs	r3, #128	; 0x80
 8000abc:	035b      	lsls	r3, r3, #13
 8000abe:	642b      	str	r3, [r5, #64]	; 0x40
 8000ac0:	2380      	movs	r3, #128	; 0x80
 8000ac2:	6168      	str	r0, [r5, #20]
 8000ac4:	039b      	lsls	r3, r3, #14
 8000ac6:	0028      	movs	r0, r5
 8000ac8:	646b      	str	r3, [r5, #68]	; 0x44
 8000aca:	60ac      	str	r4, [r5, #8]
 8000acc:	60ec      	str	r4, [r5, #12]
 8000ace:	612c      	str	r4, [r5, #16]
 8000ad0:	61ac      	str	r4, [r5, #24]
 8000ad2:	61ec      	str	r4, [r5, #28]
 8000ad4:	622c      	str	r4, [r5, #32]
 8000ad6:	f004 fcc9 	bl	800546c <HAL_UART_Init>
 8000ada:	f005 ffcf 	bl	8006a7c <MX_USB_DEVICE_Init>
 8000ade:	0021      	movs	r1, r4
 8000ae0:	2210      	movs	r2, #16
 8000ae2:	a805      	add	r0, sp, #20
 8000ae4:	f006 fa47 	bl	8006f76 <memset>
 8000ae8:	2208      	movs	r2, #8
 8000aea:	0021      	movs	r1, r4
 8000aec:	a803      	add	r0, sp, #12
 8000aee:	f006 fa42 	bl	8006f76 <memset>
 8000af2:	2380      	movs	r3, #128	; 0x80
 8000af4:	4845      	ldr	r0, [pc, #276]	; (8000c0c <main+0x35c>)
 8000af6:	05db      	lsls	r3, r3, #23
 8000af8:	6003      	str	r3, [r0, #0]
 8000afa:	2330      	movs	r3, #48	; 0x30
 8000afc:	6043      	str	r3, [r0, #4]
 8000afe:	3b31      	subs	r3, #49	; 0x31
 8000b00:	60c3      	str	r3, [r0, #12]
 8000b02:	6084      	str	r4, [r0, #8]
 8000b04:	6104      	str	r4, [r0, #16]
 8000b06:	6184      	str	r4, [r0, #24]
 8000b08:	f004 f8d8 	bl	8004cbc <HAL_TIM_Base_Init>
 8000b0c:	2180      	movs	r1, #128	; 0x80
 8000b0e:	0149      	lsls	r1, r1, #5
 8000b10:	9105      	str	r1, [sp, #20]
 8000b12:	483e      	ldr	r0, [pc, #248]	; (8000c0c <main+0x35c>)
 8000b14:	a905      	add	r1, sp, #20
 8000b16:	f004 f8f9 	bl	8004d0c <HAL_TIM_ConfigClockSource>
 8000b1a:	a903      	add	r1, sp, #12
 8000b1c:	483b      	ldr	r0, [pc, #236]	; (8000c0c <main+0x35c>)
 8000b1e:	9403      	str	r4, [sp, #12]
 8000b20:	9404      	str	r4, [sp, #16]
 8000b22:	f004 f989 	bl	8004e38 <HAL_TIMEx_MasterConfigSynchronization>
 8000b26:	493a      	ldr	r1, [pc, #232]	; (8000c10 <main+0x360>)
 8000b28:	4b3a      	ldr	r3, [pc, #232]	; (8000c14 <main+0x364>)
 8000b2a:	0008      	movs	r0, r1
 8000b2c:	600b      	str	r3, [r1, #0]
 8000b2e:	234a      	movs	r3, #74	; 0x4a
 8000b30:	604b      	str	r3, [r1, #4]
 8000b32:	4b39      	ldr	r3, [pc, #228]	; (8000c18 <main+0x368>)
 8000b34:	608c      	str	r4, [r1, #8]
 8000b36:	60cb      	str	r3, [r1, #12]
 8000b38:	610c      	str	r4, [r1, #16]
 8000b3a:	618c      	str	r4, [r1, #24]
 8000b3c:	f004 f8be 	bl	8004cbc <HAL_TIM_Base_Init>
 8000b40:	4836      	ldr	r0, [pc, #216]	; (8000c1c <main+0x36c>)
 8000b42:	4b37      	ldr	r3, [pc, #220]	; (8000c20 <main+0x370>)
 8000b44:	2201      	movs	r2, #1
 8000b46:	6003      	str	r3, [r0, #0]
 8000b48:	4b36      	ldr	r3, [pc, #216]	; (8000c24 <main+0x374>)
 8000b4a:	8082      	strh	r2, [r0, #4]
 8000b4c:	6083      	str	r3, [r0, #8]
 8000b4e:	2308      	movs	r3, #8
 8000b50:	60c3      	str	r3, [r0, #12]
 8000b52:	3318      	adds	r3, #24
 8000b54:	6143      	str	r3, [r0, #20]
 8000b56:	3360      	adds	r3, #96	; 0x60
 8000b58:	6183      	str	r3, [r0, #24]
 8000b5a:	6202      	str	r2, [r0, #32]
 8000b5c:	f001 fb8c 	bl	8002278 <HAL_CRC_Init>
 8000b60:	0030      	movs	r0, r6
 8000b62:	f000 fddd 	bl	8001720 <spiInit>
 8000b66:	f000 fbb1 	bl	80012cc <usb_init>
 8000b6a:	4821      	ldr	r0, [pc, #132]	; (8000bf0 <main+0x340>)
 8000b6c:	f000 f952 	bl	8000e14 <i2cInit>
 8000b70:	4827      	ldr	r0, [pc, #156]	; (8000c10 <main+0x360>)
 8000b72:	f000 f935 	bl	8000de0 <outputsInit>
 8000b76:	4a1c      	ldr	r2, [pc, #112]	; (8000be8 <main+0x338>)
 8000b78:	4924      	ldr	r1, [pc, #144]	; (8000c0c <main+0x35c>)
 8000b7a:	0038      	movs	r0, r7
 8000b7c:	f7ff fd4e 	bl	800061c <acquisitionInit>
 8000b80:	24fa      	movs	r4, #250	; 0xfa
 8000b82:	0028      	movs	r0, r5
 8000b84:	2580      	movs	r5, #128	; 0x80
 8000b86:	f000 fa5b 	bl	8001040 <serial_init>
 8000b8a:	f000 f89d 	bl	8000cc8 <statusLedBlink>
 8000b8e:	00a4      	lsls	r4, r4, #2
 8000b90:	006d      	lsls	r5, r5, #1
 8000b92:	f000 fd5f 	bl	8001654 <usbController>
 8000b96:	f000 f8bb 	bl	8000d10 <userLedController>
 8000b9a:	f000 f9a3 	bl	8000ee4 <i2cController>
 8000b9e:	f000 fb77 	bl	8001290 <serialController>
 8000ba2:	f001 f829 	bl	8001bf8 <HAL_GetTick>
 8000ba6:	42a0      	cmp	r0, r4
 8000ba8:	d9f3      	bls.n	8000b92 <main+0x2e2>
 8000baa:	2090      	movs	r0, #144	; 0x90
 8000bac:	0029      	movs	r1, r5
 8000bae:	05c0      	lsls	r0, r0, #23
 8000bb0:	f001 fdf6 	bl	80027a0 <HAL_GPIO_ReadPin>
 8000bb4:	2800      	cmp	r0, #0
 8000bb6:	d002      	beq.n	8000bbe <main+0x30e>
 8000bb8:	f000 f881 	bl	8000cbe <statusLedOff>
 8000bbc:	e7e9      	b.n	8000b92 <main+0x2e2>
 8000bbe:	f000 f879 	bl	8000cb4 <statusLedOn>
 8000bc2:	e7e6      	b.n	8000b92 <main+0x2e2>
 8000bc4:	40021000 	.word	0x40021000
 8000bc8:	0000c007 	.word	0x0000c007
 8000bcc:	48000400 	.word	0x48000400
 8000bd0:	00000c38 	.word	0x00000c38
 8000bd4:	10110000 	.word	0x10110000
 8000bd8:	40012400 	.word	0x40012400
 8000bdc:	2000082c 	.word	0x2000082c
 8000be0:	200005b8 	.word	0x200005b8
 8000be4:	40006400 	.word	0x40006400
 8000be8:	200006a4 	.word	0x200006a4
 8000bec:	40007400 	.word	0x40007400
 8000bf0:	20000548 	.word	0x20000548
 8000bf4:	40005400 	.word	0x40005400
 8000bf8:	2000090e 	.word	0x2000090e
 8000bfc:	20000704 	.word	0x20000704
 8000c00:	40013000 	.word	0x40013000
 8000c04:	20000624 	.word	0x20000624
 8000c08:	40013800 	.word	0x40013800
 8000c0c:	20000768 	.word	0x20000768
 8000c10:	200007a8 	.word	0x200007a8
 8000c14:	40002000 	.word	0x40002000
 8000c18:	0000fd61 	.word	0x0000fd61
 8000c1c:	20000594 	.word	0x20000594
 8000c20:	40023000 	.word	0x40023000
 8000c24:	00008005 	.word	0x00008005

08000c28 <HAL_GPIO_EXTI_Callback>:
 8000c28:	4b04      	ldr	r3, [pc, #16]	; (8000c3c <HAL_GPIO_EXTI_Callback+0x14>)
 8000c2a:	b510      	push	{r4, lr}
 8000c2c:	18c0      	adds	r0, r0, r3
 8000c2e:	4b04      	ldr	r3, [pc, #16]	; (8000c40 <HAL_GPIO_EXTI_Callback+0x18>)
 8000c30:	4218      	tst	r0, r3
 8000c32:	d101      	bne.n	8000c38 <HAL_GPIO_EXTI_Callback+0x10>
 8000c34:	f7ff fc6e 	bl	8000514 <encoderController>
 8000c38:	bd10      	pop	{r4, pc}
 8000c3a:	46c0      	nop			; (mov r8, r8)
 8000c3c:	fffff000 	.word	0xfffff000
 8000c40:	0000efff 	.word	0x0000efff

08000c44 <HAL_ADC_ConvCpltCallback>:
 8000c44:	b510      	push	{r4, lr}
 8000c46:	f7ff fd13 	bl	8000670 <sendToFilter>
 8000c4a:	bd10      	pop	{r4, pc}

08000c4c <calcCRC>:
 8000c4c:	b510      	push	{r4, lr}
 8000c4e:	000a      	movs	r2, r1
 8000c50:	0001      	movs	r1, r0
 8000c52:	4802      	ldr	r0, [pc, #8]	; (8000c5c <calcCRC+0x10>)
 8000c54:	f001 fb4a 	bl	80022ec <HAL_CRC_Calculate>
 8000c58:	b280      	uxth	r0, r0
 8000c5a:	bd10      	pop	{r4, pc}
 8000c5c:	20000594 	.word	0x20000594

08000c60 <Error_Handler>:
 8000c60:	4770      	bx	lr
	...

08000c64 <statusLedController>:
 8000c64:	b510      	push	{r4, lr}
 8000c66:	4b05      	ldr	r3, [pc, #20]	; (8000c7c <statusLedController+0x18>)
 8000c68:	781b      	ldrb	r3, [r3, #0]
 8000c6a:	2b02      	cmp	r3, #2
 8000c6c:	d104      	bne.n	8000c78 <statusLedController+0x14>
 8000c6e:	2180      	movs	r1, #128	; 0x80
 8000c70:	4803      	ldr	r0, [pc, #12]	; (8000c80 <statusLedController+0x1c>)
 8000c72:	01c9      	lsls	r1, r1, #7
 8000c74:	f001 fda0 	bl	80027b8 <HAL_GPIO_TogglePin>
 8000c78:	bd10      	pop	{r4, pc}
 8000c7a:	46c0      	nop			; (mov r8, r8)
 8000c7c:	200001c4 	.word	0x200001c4
 8000c80:	48000400 	.word	0x48000400

08000c84 <statusLedMode>:
 8000c84:	b570      	push	{r4, r5, r6, lr}
 8000c86:	4d09      	ldr	r5, [pc, #36]	; (8000cac <statusLedMode+0x28>)
 8000c88:	0004      	movs	r4, r0
 8000c8a:	782b      	ldrb	r3, [r5, #0]
 8000c8c:	4283      	cmp	r3, r0
 8000c8e:	d004      	beq.n	8000c9a <statusLedMode+0x16>
 8000c90:	2800      	cmp	r0, #0
 8000c92:	d003      	beq.n	8000c9c <statusLedMode+0x18>
 8000c94:	2801      	cmp	r0, #1
 8000c96:	d001      	beq.n	8000c9c <statusLedMode+0x18>
 8000c98:	702c      	strb	r4, [r5, #0]
 8000c9a:	bd70      	pop	{r4, r5, r6, pc}
 8000c9c:	2180      	movs	r1, #128	; 0x80
 8000c9e:	0022      	movs	r2, r4
 8000ca0:	01c9      	lsls	r1, r1, #7
 8000ca2:	4803      	ldr	r0, [pc, #12]	; (8000cb0 <statusLedMode+0x2c>)
 8000ca4:	f001 fd82 	bl	80027ac <HAL_GPIO_WritePin>
 8000ca8:	e7f6      	b.n	8000c98 <statusLedMode+0x14>
 8000caa:	46c0      	nop			; (mov r8, r8)
 8000cac:	200001c4 	.word	0x200001c4
 8000cb0:	48000400 	.word	0x48000400

08000cb4 <statusLedOn>:
 8000cb4:	b510      	push	{r4, lr}
 8000cb6:	2001      	movs	r0, #1
 8000cb8:	f7ff ffe4 	bl	8000c84 <statusLedMode>
 8000cbc:	bd10      	pop	{r4, pc}

08000cbe <statusLedOff>:
 8000cbe:	b510      	push	{r4, lr}
 8000cc0:	2000      	movs	r0, #0
 8000cc2:	f7ff ffdf 	bl	8000c84 <statusLedMode>
 8000cc6:	bd10      	pop	{r4, pc}

08000cc8 <statusLedBlink>:
 8000cc8:	b510      	push	{r4, lr}
 8000cca:	2002      	movs	r0, #2
 8000ccc:	f7ff ffda 	bl	8000c84 <statusLedMode>
 8000cd0:	bd10      	pop	{r4, pc}
	...

08000cd4 <getUserLedMode>:
 8000cd4:	4b01      	ldr	r3, [pc, #4]	; (8000cdc <getUserLedMode+0x8>)
 8000cd6:	7818      	ldrb	r0, [r3, #0]
 8000cd8:	4770      	bx	lr
 8000cda:	46c0      	nop			; (mov r8, r8)
 8000cdc:	200001c7 	.word	0x200001c7

08000ce0 <userLedFreq>:
 8000ce0:	0001      	movs	r1, r0
 8000ce2:	20fa      	movs	r0, #250	; 0xfa
 8000ce4:	b510      	push	{r4, lr}
 8000ce6:	0080      	lsls	r0, r0, #2
 8000ce8:	f7ff fab6 	bl	8000258 <__divsi3>
 8000cec:	4b01      	ldr	r3, [pc, #4]	; (8000cf4 <userLedFreq+0x14>)
 8000cee:	8018      	strh	r0, [r3, #0]
 8000cf0:	bd10      	pop	{r4, pc}
 8000cf2:	46c0      	nop			; (mov r8, r8)
 8000cf4:	20000004 	.word	0x20000004

08000cf8 <getUserLedFreq>:
 8000cf8:	20fa      	movs	r0, #250	; 0xfa
 8000cfa:	4b04      	ldr	r3, [pc, #16]	; (8000d0c <getUserLedFreq+0x14>)
 8000cfc:	b510      	push	{r4, lr}
 8000cfe:	8819      	ldrh	r1, [r3, #0]
 8000d00:	0080      	lsls	r0, r0, #2
 8000d02:	f7ff faa9 	bl	8000258 <__divsi3>
 8000d06:	b2c0      	uxtb	r0, r0
 8000d08:	bd10      	pop	{r4, pc}
 8000d0a:	46c0      	nop			; (mov r8, r8)
 8000d0c:	20000004 	.word	0x20000004

08000d10 <userLedController>:
 8000d10:	b570      	push	{r4, r5, r6, lr}
 8000d12:	4b0a      	ldr	r3, [pc, #40]	; (8000d3c <userLedController+0x2c>)
 8000d14:	781b      	ldrb	r3, [r3, #0]
 8000d16:	2b02      	cmp	r3, #2
 8000d18:	d10f      	bne.n	8000d3a <userLedController+0x2a>
 8000d1a:	f000 ff6d 	bl	8001bf8 <HAL_GetTick>
 8000d1e:	4b08      	ldr	r3, [pc, #32]	; (8000d40 <userLedController+0x30>)
 8000d20:	4c08      	ldr	r4, [pc, #32]	; (8000d44 <userLedController+0x34>)
 8000d22:	881b      	ldrh	r3, [r3, #0]
 8000d24:	6822      	ldr	r2, [r4, #0]
 8000d26:	0005      	movs	r5, r0
 8000d28:	189b      	adds	r3, r3, r2
 8000d2a:	4298      	cmp	r0, r3
 8000d2c:	d905      	bls.n	8000d3a <userLedController+0x2a>
 8000d2e:	2180      	movs	r1, #128	; 0x80
 8000d30:	4805      	ldr	r0, [pc, #20]	; (8000d48 <userLedController+0x38>)
 8000d32:	0209      	lsls	r1, r1, #8
 8000d34:	f001 fd40 	bl	80027b8 <HAL_GPIO_TogglePin>
 8000d38:	6025      	str	r5, [r4, #0]
 8000d3a:	bd70      	pop	{r4, r5, r6, pc}
 8000d3c:	200001c7 	.word	0x200001c7
 8000d40:	20000004 	.word	0x20000004
 8000d44:	200001c0 	.word	0x200001c0
 8000d48:	48000400 	.word	0x48000400

08000d4c <userLedMode>:
 8000d4c:	b570      	push	{r4, r5, r6, lr}
 8000d4e:	4c0c      	ldr	r4, [pc, #48]	; (8000d80 <userLedMode+0x34>)
 8000d50:	4d0c      	ldr	r5, [pc, #48]	; (8000d84 <userLedMode+0x38>)
 8000d52:	7823      	ldrb	r3, [r4, #0]
 8000d54:	0002      	movs	r2, r0
 8000d56:	7028      	strb	r0, [r5, #0]
 8000d58:	4283      	cmp	r3, r0
 8000d5a:	d007      	beq.n	8000d6c <userLedMode+0x20>
 8000d5c:	2801      	cmp	r0, #1
 8000d5e:	d006      	beq.n	8000d6e <userLedMode+0x22>
 8000d60:	2800      	cmp	r0, #0
 8000d62:	d004      	beq.n	8000d6e <userLedMode+0x22>
 8000d64:	2802      	cmp	r0, #2
 8000d66:	d008      	beq.n	8000d7a <userLedMode+0x2e>
 8000d68:	782b      	ldrb	r3, [r5, #0]
 8000d6a:	7023      	strb	r3, [r4, #0]
 8000d6c:	bd70      	pop	{r4, r5, r6, pc}
 8000d6e:	2180      	movs	r1, #128	; 0x80
 8000d70:	4805      	ldr	r0, [pc, #20]	; (8000d88 <userLedMode+0x3c>)
 8000d72:	0209      	lsls	r1, r1, #8
 8000d74:	f001 fd1a 	bl	80027ac <HAL_GPIO_WritePin>
 8000d78:	e7f6      	b.n	8000d68 <userLedMode+0x1c>
 8000d7a:	f7ff ffc9 	bl	8000d10 <userLedController>
 8000d7e:	e7f3      	b.n	8000d68 <userLedMode+0x1c>
 8000d80:	20000002 	.word	0x20000002
 8000d84:	200001c7 	.word	0x200001c7
 8000d88:	48000400 	.word	0x48000400

08000d8c <setUserOut>:
 8000d8c:	b510      	push	{r4, lr}
 8000d8e:	000a      	movs	r2, r1
 8000d90:	2901      	cmp	r1, #1
 8000d92:	d803      	bhi.n	8000d9c <setUserOut+0x10>
 8000d94:	2801      	cmp	r0, #1
 8000d96:	d002      	beq.n	8000d9e <setUserOut+0x12>
 8000d98:	2802      	cmp	r0, #2
 8000d9a:	d007      	beq.n	8000dac <setUserOut+0x20>
 8000d9c:	bd10      	pop	{r4, pc}
 8000d9e:	4b05      	ldr	r3, [pc, #20]	; (8000db4 <setUserOut+0x28>)
 8000da0:	7019      	strb	r1, [r3, #0]
 8000da2:	2102      	movs	r1, #2
 8000da4:	4804      	ldr	r0, [pc, #16]	; (8000db8 <setUserOut+0x2c>)
 8000da6:	f001 fd01 	bl	80027ac <HAL_GPIO_WritePin>
 8000daa:	e7f7      	b.n	8000d9c <setUserOut+0x10>
 8000dac:	4b03      	ldr	r3, [pc, #12]	; (8000dbc <setUserOut+0x30>)
 8000dae:	7019      	strb	r1, [r3, #0]
 8000db0:	2104      	movs	r1, #4
 8000db2:	e7f7      	b.n	8000da4 <setUserOut+0x18>
 8000db4:	200001c5 	.word	0x200001c5
 8000db8:	48000400 	.word	0x48000400
 8000dbc:	200001c6 	.word	0x200001c6

08000dc0 <getUserOut>:
 8000dc0:	2801      	cmp	r0, #1
 8000dc2:	d003      	beq.n	8000dcc <getUserOut+0xc>
 8000dc4:	2802      	cmp	r0, #2
 8000dc6:	d004      	beq.n	8000dd2 <getUserOut+0x12>
 8000dc8:	0018      	movs	r0, r3
 8000dca:	4770      	bx	lr
 8000dcc:	4b02      	ldr	r3, [pc, #8]	; (8000dd8 <getUserOut+0x18>)
 8000dce:	781b      	ldrb	r3, [r3, #0]
 8000dd0:	e7fa      	b.n	8000dc8 <getUserOut+0x8>
 8000dd2:	4b02      	ldr	r3, [pc, #8]	; (8000ddc <getUserOut+0x1c>)
 8000dd4:	e7fb      	b.n	8000dce <getUserOut+0xe>
 8000dd6:	46c0      	nop			; (mov r8, r8)
 8000dd8:	200001c5 	.word	0x200001c5
 8000ddc:	200001c6 	.word	0x200001c6

08000de0 <outputsInit>:
 8000de0:	b510      	push	{r4, lr}
 8000de2:	2400      	movs	r4, #0
 8000de4:	f003 fe61 	bl	8004aaa <HAL_TIM_Base_Start_IT>
 8000de8:	2000      	movs	r0, #0
 8000dea:	f7ff ff4b 	bl	8000c84 <statusLedMode>
 8000dee:	2000      	movs	r0, #0
 8000df0:	f7ff ffac 	bl	8000d4c <userLedMode>
 8000df4:	4b05      	ldr	r3, [pc, #20]	; (8000e0c <outputsInit+0x2c>)
 8000df6:	0022      	movs	r2, r4
 8000df8:	2102      	movs	r1, #2
 8000dfa:	4805      	ldr	r0, [pc, #20]	; (8000e10 <outputsInit+0x30>)
 8000dfc:	701c      	strb	r4, [r3, #0]
 8000dfe:	f001 fcd5 	bl	80027ac <HAL_GPIO_WritePin>
 8000e02:	0021      	movs	r1, r4
 8000e04:	2002      	movs	r0, #2
 8000e06:	f7ff ffc1 	bl	8000d8c <setUserOut>
 8000e0a:	bd10      	pop	{r4, pc}
 8000e0c:	200001c5 	.word	0x200001c5
 8000e10:	48000400 	.word	0x48000400

08000e14 <i2cInit>:
 8000e14:	4b08      	ldr	r3, [pc, #32]	; (8000e38 <i2cInit+0x24>)
 8000e16:	b510      	push	{r4, lr}
 8000e18:	6018      	str	r0, [r3, #0]
 8000e1a:	2300      	movs	r3, #0
 8000e1c:	001a      	movs	r2, r3
 8000e1e:	4c07      	ldr	r4, [pc, #28]	; (8000e3c <i2cInit+0x28>)
 8000e20:	4807      	ldr	r0, [pc, #28]	; (8000e40 <i2cInit+0x2c>)
 8000e22:	1919      	adds	r1, r3, r4
 8000e24:	700a      	strb	r2, [r1, #0]
 8000e26:	1819      	adds	r1, r3, r0
 8000e28:	3301      	adds	r3, #1
 8000e2a:	700a      	strb	r2, [r1, #0]
 8000e2c:	2b08      	cmp	r3, #8
 8000e2e:	d1f8      	bne.n	8000e22 <i2cInit+0xe>
 8000e30:	4b04      	ldr	r3, [pc, #16]	; (8000e44 <i2cInit+0x30>)
 8000e32:	701a      	strb	r2, [r3, #0]
 8000e34:	bd10      	pop	{r4, pc}
 8000e36:	46c0      	nop			; (mov r8, r8)
 8000e38:	20000880 	.word	0x20000880
 8000e3c:	2000086d 	.word	0x2000086d
 8000e40:	20000875 	.word	0x20000875
 8000e44:	200001c8 	.word	0x200001c8

08000e48 <i2cProcessRequest>:
 8000e48:	b5f8      	push	{r3, r4, r5, r6, r7, lr}
 8000e4a:	4e1f      	ldr	r6, [pc, #124]	; (8000ec8 <i2cProcessRequest+0x80>)
 8000e4c:	4a1f      	ldr	r2, [pc, #124]	; (8000ecc <i2cProcessRequest+0x84>)
 8000e4e:	7833      	ldrb	r3, [r6, #0]
 8000e50:	4c1f      	ldr	r4, [pc, #124]	; (8000ed0 <i2cProcessRequest+0x88>)
 8000e52:	2b01      	cmp	r3, #1
 8000e54:	d11d      	bne.n	8000e92 <i2cProcessRequest+0x4a>
 8000e56:	7813      	ldrb	r3, [r2, #0]
 8000e58:	2b0b      	cmp	r3, #11
 8000e5a:	d102      	bne.n	8000e62 <i2cProcessRequest+0x1a>
 8000e5c:	7820      	ldrb	r0, [r4, #0]
 8000e5e:	f7ff ff75 	bl	8000d4c <userLedMode>
 8000e62:	2300      	movs	r3, #0
 8000e64:	7033      	strb	r3, [r6, #0]
 8000e66:	2500      	movs	r5, #0
 8000e68:	7833      	ldrb	r3, [r6, #0]
 8000e6a:	7025      	strb	r5, [r4, #0]
 8000e6c:	7065      	strb	r5, [r4, #1]
 8000e6e:	70a5      	strb	r5, [r4, #2]
 8000e70:	70e5      	strb	r5, [r4, #3]
 8000e72:	7125      	strb	r5, [r4, #4]
 8000e74:	7165      	strb	r5, [r4, #5]
 8000e76:	71a5      	strb	r5, [r4, #6]
 8000e78:	71e5      	strb	r5, [r4, #7]
 8000e7a:	2b02      	cmp	r3, #2
 8000e7c:	d108      	bne.n	8000e90 <i2cProcessRequest+0x48>
 8000e7e:	4b15      	ldr	r3, [pc, #84]	; (8000ed4 <i2cProcessRequest+0x8c>)
 8000e80:	4815      	ldr	r0, [pc, #84]	; (8000ed8 <i2cProcessRequest+0x90>)
 8000e82:	781a      	ldrb	r2, [r3, #0]
 8000e84:	4915      	ldr	r1, [pc, #84]	; (8000edc <i2cProcessRequest+0x94>)
 8000e86:	2301      	movs	r3, #1
 8000e88:	6800      	ldr	r0, [r0, #0]
 8000e8a:	f001 fe29 	bl	8002ae0 <HAL_I2C_Slave_Transmit>
 8000e8e:	7035      	strb	r5, [r6, #0]
 8000e90:	bdf8      	pop	{r3, r4, r5, r6, r7, pc}
 8000e92:	7823      	ldrb	r3, [r4, #0]
 8000e94:	7013      	strb	r3, [r2, #0]
 8000e96:	2b0b      	cmp	r3, #11
 8000e98:	d011      	beq.n	8000ebe <i2cProcessRequest+0x76>
 8000e9a:	2b14      	cmp	r3, #20
 8000e9c:	d1e3      	bne.n	8000e66 <i2cProcessRequest+0x1e>
 8000e9e:	2302      	movs	r3, #2
 8000ea0:	4a0c      	ldr	r2, [pc, #48]	; (8000ed4 <i2cProcessRequest+0x8c>)
 8000ea2:	7033      	strb	r3, [r6, #0]
 8000ea4:	7013      	strb	r3, [r2, #0]
 8000ea6:	f7ff fbef 	bl	8000688 <getFromFilter>
 8000eaa:	0007      	movs	r7, r0
 8000eac:	f000 fbe2 	bl	8001674 <get8MSB>
 8000eb0:	4d0a      	ldr	r5, [pc, #40]	; (8000edc <i2cProcessRequest+0x94>)
 8000eb2:	7028      	strb	r0, [r5, #0]
 8000eb4:	0038      	movs	r0, r7
 8000eb6:	f000 fbdf 	bl	8001678 <get8LSB>
 8000eba:	7068      	strb	r0, [r5, #1]
 8000ebc:	e7d3      	b.n	8000e66 <i2cProcessRequest+0x1e>
 8000ebe:	2301      	movs	r3, #1
 8000ec0:	4a07      	ldr	r2, [pc, #28]	; (8000ee0 <i2cProcessRequest+0x98>)
 8000ec2:	7033      	strb	r3, [r6, #0]
 8000ec4:	7013      	strb	r3, [r2, #0]
 8000ec6:	e7ce      	b.n	8000e66 <i2cProcessRequest+0x1e>
 8000ec8:	200001c8 	.word	0x200001c8
 8000ecc:	200001c9 	.word	0x200001c9
 8000ed0:	2000086d 	.word	0x2000086d
 8000ed4:	2000087d 	.word	0x2000087d
 8000ed8:	20000880 	.word	0x20000880
 8000edc:	20000875 	.word	0x20000875
 8000ee0:	2000086c 	.word	0x2000086c

08000ee4 <i2cController>:
 8000ee4:	b510      	push	{r4, lr}
 8000ee6:	4b0e      	ldr	r3, [pc, #56]	; (8000f20 <i2cController+0x3c>)
 8000ee8:	781b      	ldrb	r3, [r3, #0]
 8000eea:	2b00      	cmp	r3, #0
 8000eec:	d002      	beq.n	8000ef4 <i2cController+0x10>
 8000eee:	2b01      	cmp	r3, #1
 8000ef0:	d00e      	beq.n	8000f10 <i2cController+0x2c>
 8000ef2:	bd10      	pop	{r4, pc}
 8000ef4:	2301      	movs	r3, #1
 8000ef6:	4c0b      	ldr	r4, [pc, #44]	; (8000f24 <i2cController+0x40>)
 8000ef8:	480b      	ldr	r0, [pc, #44]	; (8000f28 <i2cController+0x44>)
 8000efa:	001a      	movs	r2, r3
 8000efc:	0021      	movs	r1, r4
 8000efe:	6800      	ldr	r0, [r0, #0]
 8000f00:	f001 fe94 	bl	8002c2c <HAL_I2C_Slave_Receive>
 8000f04:	7823      	ldrb	r3, [r4, #0]
 8000f06:	2b00      	cmp	r3, #0
 8000f08:	d0f3      	beq.n	8000ef2 <i2cController+0xe>
 8000f0a:	f7ff ff9d 	bl	8000e48 <i2cProcessRequest>
 8000f0e:	e7f0      	b.n	8000ef2 <i2cController+0xe>
 8000f10:	4a06      	ldr	r2, [pc, #24]	; (8000f2c <i2cController+0x48>)
 8000f12:	4805      	ldr	r0, [pc, #20]	; (8000f28 <i2cController+0x44>)
 8000f14:	7812      	ldrb	r2, [r2, #0]
 8000f16:	4903      	ldr	r1, [pc, #12]	; (8000f24 <i2cController+0x40>)
 8000f18:	6800      	ldr	r0, [r0, #0]
 8000f1a:	f001 fe87 	bl	8002c2c <HAL_I2C_Slave_Receive>
 8000f1e:	e7f4      	b.n	8000f0a <i2cController+0x26>
 8000f20:	200001c8 	.word	0x200001c8
 8000f24:	2000086d 	.word	0x2000086d
 8000f28:	20000880 	.word	0x20000880
 8000f2c:	2000086c 	.word	0x2000086c

08000f30 <getCoils>:
 8000f30:	b510      	push	{r4, lr}
 8000f32:	2801      	cmp	r0, #1
 8000f34:	d008      	beq.n	8000f48 <getCoils+0x18>
 8000f36:	2800      	cmp	r0, #0
 8000f38:	d003      	beq.n	8000f42 <getCoils+0x12>
 8000f3a:	2802      	cmp	r0, #2
 8000f3c:	d004      	beq.n	8000f48 <getCoils+0x18>
 8000f3e:	2000      	movs	r0, #0
 8000f40:	e001      	b.n	8000f46 <getCoils+0x16>
 8000f42:	f7ff fec7 	bl	8000cd4 <getUserLedMode>
 8000f46:	bd10      	pop	{r4, pc}
 8000f48:	f7ff ff3a 	bl	8000dc0 <getUserOut>
 8000f4c:	e7fb      	b.n	8000f46 <getCoils+0x16>

08000f4e <getInputs>:
 8000f4e:	b510      	push	{r4, lr}
 8000f50:	2801      	cmp	r0, #1
 8000f52:	d003      	beq.n	8000f5c <getInputs+0xe>
 8000f54:	2802      	cmp	r0, #2
 8000f56:	d001      	beq.n	8000f5c <getInputs+0xe>
 8000f58:	2000      	movs	r0, #0
 8000f5a:	e001      	b.n	8000f60 <getInputs+0x12>
 8000f5c:	f7ff fb46 	bl	80005ec <getUserIn>
 8000f60:	bd10      	pop	{r4, pc}

08000f62 <modbus_readCoilStatus>:
 8000f62:	2303      	movs	r3, #3
 8000f64:	b570      	push	{r4, r5, r6, lr}
 8000f66:	000d      	movs	r5, r1
 8000f68:	429a      	cmp	r2, r3
 8000f6a:	d80b      	bhi.n	8000f84 <modbus_readCoilStatus+0x22>
 8000f6c:	3b01      	subs	r3, #1
 8000f6e:	2a00      	cmp	r2, #0
 8000f70:	d008      	beq.n	8000f84 <modbus_readCoilStatus+0x22>
 8000f72:	188a      	adds	r2, r1, r2
 8000f74:	2a03      	cmp	r2, #3
 8000f76:	dc05      	bgt.n	8000f84 <modbus_readCoilStatus+0x22>
 8000f78:	3b01      	subs	r3, #1
 8000f7a:	7003      	strb	r3, [r0, #0]
 8000f7c:	b294      	uxth	r4, r2
 8000f7e:	42ac      	cmp	r4, r5
 8000f80:	d102      	bne.n	8000f88 <modbus_readCoilStatus+0x26>
 8000f82:	2300      	movs	r3, #0
 8000f84:	0018      	movs	r0, r3
 8000f86:	bd70      	pop	{r4, r5, r6, pc}
 8000f88:	0028      	movs	r0, r5
 8000f8a:	3501      	adds	r5, #1
 8000f8c:	f7ff ffd0 	bl	8000f30 <getCoils>
 8000f90:	b2ad      	uxth	r5, r5
 8000f92:	e7f4      	b.n	8000f7e <modbus_readCoilStatus+0x1c>

08000f94 <modbus_readInputStatus>:
 8000f94:	b570      	push	{r4, r5, r6, lr}
 8000f96:	2303      	movs	r3, #3
 8000f98:	000d      	movs	r5, r1
 8000f9a:	2a02      	cmp	r2, #2
 8000f9c:	d80b      	bhi.n	8000fb6 <modbus_readInputStatus+0x22>
 8000f9e:	3b01      	subs	r3, #1
 8000fa0:	2a00      	cmp	r2, #0
 8000fa2:	d008      	beq.n	8000fb6 <modbus_readInputStatus+0x22>
 8000fa4:	188a      	adds	r2, r1, r2
 8000fa6:	429a      	cmp	r2, r3
 8000fa8:	dc05      	bgt.n	8000fb6 <modbus_readInputStatus+0x22>
 8000faa:	3b01      	subs	r3, #1
 8000fac:	7003      	strb	r3, [r0, #0]
 8000fae:	b294      	uxth	r4, r2
 8000fb0:	42ac      	cmp	r4, r5
 8000fb2:	d102      	bne.n	8000fba <modbus_readInputStatus+0x26>
 8000fb4:	2300      	movs	r3, #0
 8000fb6:	0018      	movs	r0, r3
 8000fb8:	bd70      	pop	{r4, r5, r6, pc}
 8000fba:	0028      	movs	r0, r5
 8000fbc:	3501      	adds	r5, #1
 8000fbe:	f7ff ffc6 	bl	8000f4e <getInputs>
 8000fc2:	b2ad      	uxth	r5, r5
 8000fc4:	e7f4      	b.n	8000fb0 <modbus_readInputStatus+0x1c>

08000fc6 <modbus_readHoldingRegisters>:
 8000fc6:	2004      	movs	r0, #4
 8000fc8:	4770      	bx	lr

08000fca <modbus_readIputRegisters>:
 8000fca:	2004      	movs	r0, #4
 8000fcc:	4770      	bx	lr

08000fce <modbus_writeSingleCoil>:
 8000fce:	2004      	movs	r0, #4
 8000fd0:	4770      	bx	lr

08000fd2 <modbus_writeSingleRegister>:
 8000fd2:	2004      	movs	r0, #4
 8000fd4:	4770      	bx	lr
	...

08000fd8 <serial_receiveEnable>:
 8000fd8:	b510      	push	{r4, lr}
 8000fda:	2200      	movs	r2, #0
 8000fdc:	2101      	movs	r1, #1
 8000fde:	4806      	ldr	r0, [pc, #24]	; (8000ff8 <serial_receiveEnable+0x20>)
 8000fe0:	f001 fbe4 	bl	80027ac <HAL_GPIO_WritePin>
 8000fe4:	4b05      	ldr	r3, [pc, #20]	; (8000ffc <serial_receiveEnable+0x24>)
 8000fe6:	681b      	ldr	r3, [r3, #0]
 8000fe8:	681a      	ldr	r2, [r3, #0]
 8000fea:	2390      	movs	r3, #144	; 0x90
 8000fec:	6811      	ldr	r1, [r2, #0]
 8000fee:	005b      	lsls	r3, r3, #1
 8000ff0:	430b      	orrs	r3, r1
 8000ff2:	6013      	str	r3, [r2, #0]
 8000ff4:	bd10      	pop	{r4, pc}
 8000ff6:	46c0      	nop			; (mov r8, r8)
 8000ff8:	48000400 	.word	0x48000400
 8000ffc:	20000884 	.word	0x20000884

08001000 <serial_transmit>:
 8001000:	b570      	push	{r4, r5, r6, lr}
 8001002:	0005      	movs	r5, r0
 8001004:	000c      	movs	r4, r1
 8001006:	2200      	movs	r2, #0
 8001008:	2101      	movs	r1, #1
 800100a:	4805      	ldr	r0, [pc, #20]	; (8001020 <serial_transmit+0x20>)
 800100c:	f001 fbce 	bl	80027ac <HAL_GPIO_WritePin>
 8001010:	4804      	ldr	r0, [pc, #16]	; (8001024 <serial_transmit+0x24>)
 8001012:	0029      	movs	r1, r5
 8001014:	b2a2      	uxth	r2, r4
 8001016:	230a      	movs	r3, #10
 8001018:	6800      	ldr	r0, [r0, #0]
 800101a:	f004 f98d 	bl	8005338 <HAL_UART_Transmit>
 800101e:	bd70      	pop	{r4, r5, r6, pc}
 8001020:	48000400 	.word	0x48000400
 8001024:	20000884 	.word	0x20000884

08001028 <serial_queueInit>:
 8001028:	0001      	movs	r1, r0
 800102a:	0003      	movs	r3, r0
 800102c:	2200      	movs	r2, #0
 800102e:	3141      	adds	r1, #65	; 0x41
 8001030:	701a      	strb	r2, [r3, #0]
 8001032:	3301      	adds	r3, #1
 8001034:	428b      	cmp	r3, r1
 8001036:	d1fb      	bne.n	8001030 <serial_queueInit+0x8>
 8001038:	701a      	strb	r2, [r3, #0]
 800103a:	6442      	str	r2, [r0, #68]	; 0x44
 800103c:	4770      	bx	lr
	...

08001040 <serial_init>:
 8001040:	b510      	push	{r4, lr}
 8001042:	4b04      	ldr	r3, [pc, #16]	; (8001054 <serial_init+0x14>)
 8001044:	6018      	str	r0, [r3, #0]
 8001046:	4804      	ldr	r0, [pc, #16]	; (8001058 <serial_init+0x18>)
 8001048:	f7ff ffee 	bl	8001028 <serial_queueInit>
 800104c:	f7ff ffc4 	bl	8000fd8 <serial_receiveEnable>
 8001050:	bd10      	pop	{r4, pc}
 8001052:	46c0      	nop			; (mov r8, r8)
 8001054:	20000884 	.word	0x20000884
 8001058:	200006b8 	.word	0x200006b8

0800105c <serial_addToQueue>:
 800105c:	0003      	movs	r3, r0
 800105e:	b570      	push	{r4, r5, r6, lr}
 8001060:	3341      	adds	r3, #65	; 0x41
 8001062:	0004      	movs	r4, r0
 8001064:	7818      	ldrb	r0, [r3, #0]
 8001066:	188a      	adds	r2, r1, r2
 8001068:	2841      	cmp	r0, #65	; 0x41
 800106a:	d106      	bne.n	800107a <serial_addToQueue+0x1e>
 800106c:	bd70      	pop	{r4, r5, r6, pc}
 800106e:	7818      	ldrb	r0, [r3, #0]
 8001070:	1c45      	adds	r5, r0, #1
 8001072:	701d      	strb	r5, [r3, #0]
 8001074:	780d      	ldrb	r5, [r1, #0]
 8001076:	3101      	adds	r1, #1
 8001078:	5425      	strb	r5, [r4, r0]
 800107a:	4291      	cmp	r1, r2
 800107c:	d1f7      	bne.n	800106e <serial_addToQueue+0x12>
 800107e:	f000 fdbb 	bl	8001bf8 <HAL_GetTick>
 8001082:	6460      	str	r0, [r4, #68]	; 0x44
 8001084:	e7f2      	b.n	800106c <serial_addToQueue+0x10>
	...

08001088 <serial_ISR>:
 8001088:	2220      	movs	r2, #32
 800108a:	6803      	ldr	r3, [r0, #0]
 800108c:	b510      	push	{r4, lr}
 800108e:	69d8      	ldr	r0, [r3, #28]
 8001090:	6819      	ldr	r1, [r3, #0]
 8001092:	4210      	tst	r0, r2
 8001094:	d008      	beq.n	80010a8 <serial_ISR+0x20>
 8001096:	4211      	tst	r1, r2
 8001098:	d006      	beq.n	80010a8 <serial_ISR+0x20>
 800109a:	8c9b      	ldrh	r3, [r3, #36]	; 0x24
 800109c:	4903      	ldr	r1, [pc, #12]	; (80010ac <serial_ISR+0x24>)
 800109e:	3a1f      	subs	r2, #31
 80010a0:	4803      	ldr	r0, [pc, #12]	; (80010b0 <serial_ISR+0x28>)
 80010a2:	700b      	strb	r3, [r1, #0]
 80010a4:	f7ff ffda 	bl	800105c <serial_addToQueue>
 80010a8:	bd10      	pop	{r4, pc}
 80010aa:	46c0      	nop			; (mov r8, r8)
 80010ac:	200001da 	.word	0x200001da
 80010b0:	200006b8 	.word	0x200006b8

080010b4 <serial_processFrame>:
 80010b4:	b5f8      	push	{r3, r4, r5, r6, r7, lr}
 80010b6:	0003      	movs	r3, r0
 80010b8:	4d52      	ldr	r5, [pc, #328]	; (8001204 <serial_processFrame+0x150>)
 80010ba:	7840      	ldrb	r0, [r0, #1]
 80010bc:	7068      	strb	r0, [r5, #1]
 80010be:	3801      	subs	r0, #1
 80010c0:	2805      	cmp	r0, #5
 80010c2:	d900      	bls.n	80010c6 <serial_processFrame+0x12>
 80010c4:	e09c      	b.n	8001200 <serial_processFrame+0x14c>
 80010c6:	f7ff f829 	bl	800011c <__gnu_thumb1_case_uqi>
 80010ca:	3703      	.short	0x3703
 80010cc:	8a786450 	.word	0x8a786450
 80010d0:	2000      	movs	r0, #0
 80010d2:	2908      	cmp	r1, #8
 80010d4:	d12f      	bne.n	8001136 <serial_processFrame+0x82>
 80010d6:	2407      	movs	r4, #7
 80010d8:	7919      	ldrb	r1, [r3, #4]
 80010da:	795a      	ldrb	r2, [r3, #5]
 80010dc:	0209      	lsls	r1, r1, #8
 80010de:	1852      	adds	r2, r2, r1
 80010e0:	b292      	uxth	r2, r2
 80010e2:	4014      	ands	r4, r2
 80010e4:	1e61      	subs	r1, r4, #1
 80010e6:	418c      	sbcs	r4, r1
 80010e8:	08d1      	lsrs	r1, r2, #3
 80010ea:	3101      	adds	r1, #1
 80010ec:	7898      	ldrb	r0, [r3, #2]
 80010ee:	1864      	adds	r4, r4, r1
 80010f0:	78d9      	ldrb	r1, [r3, #3]
 80010f2:	0200      	lsls	r0, r0, #8
 80010f4:	1809      	adds	r1, r1, r0
 80010f6:	b289      	uxth	r1, r1
 80010f8:	1ce8      	adds	r0, r5, #3
 80010fa:	b2e4      	uxtb	r4, r4
 80010fc:	f7ff ff31 	bl	8000f62 <modbus_readCoilStatus>
 8001100:	2800      	cmp	r0, #0
 8001102:	d004      	beq.n	800110e <serial_processFrame+0x5a>
 8001104:	2401      	movs	r4, #1
 8001106:	786b      	ldrb	r3, [r5, #1]
 8001108:	70a8      	strb	r0, [r5, #2]
 800110a:	3350      	adds	r3, #80	; 0x50
 800110c:	706b      	strb	r3, [r5, #1]
 800110e:	1ca1      	adds	r1, r4, #2
 8001110:	b2c9      	uxtb	r1, r1
 8001112:	0028      	movs	r0, r5
 8001114:	f7ff fd9a 	bl	8000c4c <calcCRC>
 8001118:	0007      	movs	r7, r0
 800111a:	f000 faad 	bl	8001678 <get8LSB>
 800111e:	192e      	adds	r6, r5, r4
 8001120:	70b0      	strb	r0, [r6, #2]
 8001122:	0038      	movs	r0, r7
 8001124:	f000 faa6 	bl	8001674 <get8MSB>
 8001128:	1d21      	adds	r1, r4, #4
 800112a:	70f0      	strb	r0, [r6, #3]
 800112c:	b2c9      	uxtb	r1, r1
 800112e:	0028      	movs	r0, r5
 8001130:	f7ff ff66 	bl	8001000 <serial_transmit>
 8001134:	2001      	movs	r0, #1
 8001136:	bdf8      	pop	{r3, r4, r5, r6, r7, pc}
 8001138:	2000      	movs	r0, #0
 800113a:	2908      	cmp	r1, #8
 800113c:	d1fb      	bne.n	8001136 <serial_processFrame+0x82>
 800113e:	2407      	movs	r4, #7
 8001140:	7919      	ldrb	r1, [r3, #4]
 8001142:	795a      	ldrb	r2, [r3, #5]
 8001144:	0209      	lsls	r1, r1, #8
 8001146:	1852      	adds	r2, r2, r1
 8001148:	b292      	uxth	r2, r2
 800114a:	4014      	ands	r4, r2
 800114c:	1e61      	subs	r1, r4, #1
 800114e:	418c      	sbcs	r4, r1
 8001150:	08d1      	lsrs	r1, r2, #3
 8001152:	3101      	adds	r1, #1
 8001154:	7898      	ldrb	r0, [r3, #2]
 8001156:	1864      	adds	r4, r4, r1
 8001158:	78d9      	ldrb	r1, [r3, #3]
 800115a:	0200      	lsls	r0, r0, #8
 800115c:	1809      	adds	r1, r1, r0
 800115e:	b289      	uxth	r1, r1
 8001160:	1ce8      	adds	r0, r5, #3
 8001162:	b2e4      	uxtb	r4, r4
 8001164:	f7ff ff16 	bl	8000f94 <modbus_readInputStatus>
 8001168:	e7ca      	b.n	8001100 <serial_processFrame+0x4c>
 800116a:	2000      	movs	r0, #0
 800116c:	2908      	cmp	r1, #8
 800116e:	d1e2      	bne.n	8001136 <serial_processFrame+0x82>
 8001170:	7919      	ldrb	r1, [r3, #4]
 8001172:	795a      	ldrb	r2, [r3, #5]
 8001174:	0209      	lsls	r1, r1, #8
 8001176:	7898      	ldrb	r0, [r3, #2]
 8001178:	1852      	adds	r2, r2, r1
 800117a:	78d9      	ldrb	r1, [r3, #3]
 800117c:	b292      	uxth	r2, r2
 800117e:	0200      	lsls	r0, r0, #8
 8001180:	0054      	lsls	r4, r2, #1
 8001182:	1809      	adds	r1, r1, r0
 8001184:	3401      	adds	r4, #1
 8001186:	b289      	uxth	r1, r1
 8001188:	1ce8      	adds	r0, r5, #3
 800118a:	b2e4      	uxtb	r4, r4
 800118c:	f7ff ff1b 	bl	8000fc6 <modbus_readHoldingRegisters>
 8001190:	e7b6      	b.n	8001100 <serial_processFrame+0x4c>
 8001192:	2000      	movs	r0, #0
 8001194:	2908      	cmp	r1, #8
 8001196:	d1ce      	bne.n	8001136 <serial_processFrame+0x82>
 8001198:	7919      	ldrb	r1, [r3, #4]
 800119a:	795a      	ldrb	r2, [r3, #5]
 800119c:	0209      	lsls	r1, r1, #8
 800119e:	7898      	ldrb	r0, [r3, #2]
 80011a0:	1852      	adds	r2, r2, r1
 80011a2:	78d9      	ldrb	r1, [r3, #3]
 80011a4:	b292      	uxth	r2, r2
 80011a6:	0200      	lsls	r0, r0, #8
 80011a8:	0054      	lsls	r4, r2, #1
 80011aa:	1809      	adds	r1, r1, r0
 80011ac:	3401      	adds	r4, #1
 80011ae:	b289      	uxth	r1, r1
 80011b0:	1ce8      	adds	r0, r5, #3
 80011b2:	b2e4      	uxtb	r4, r4
 80011b4:	f7ff ff09 	bl	8000fca <modbus_readIputRegisters>
 80011b8:	e7a2      	b.n	8001100 <serial_processFrame+0x4c>
 80011ba:	2000      	movs	r0, #0
 80011bc:	2908      	cmp	r1, #8
 80011be:	d1ba      	bne.n	8001136 <serial_processFrame+0x82>
 80011c0:	7919      	ldrb	r1, [r3, #4]
 80011c2:	795a      	ldrb	r2, [r3, #5]
 80011c4:	0209      	lsls	r1, r1, #8
 80011c6:	7898      	ldrb	r0, [r3, #2]
 80011c8:	1852      	adds	r2, r2, r1
 80011ca:	78d9      	ldrb	r1, [r3, #3]
 80011cc:	0200      	lsls	r0, r0, #8
 80011ce:	1809      	adds	r1, r1, r0
 80011d0:	b292      	uxth	r2, r2
 80011d2:	b289      	uxth	r1, r1
 80011d4:	1ce8      	adds	r0, r5, #3
 80011d6:	f7ff fefa 	bl	8000fce <modbus_writeSingleCoil>
 80011da:	2404      	movs	r4, #4
 80011dc:	e790      	b.n	8001100 <serial_processFrame+0x4c>
 80011de:	2000      	movs	r0, #0
 80011e0:	2908      	cmp	r1, #8
 80011e2:	d1a8      	bne.n	8001136 <serial_processFrame+0x82>
 80011e4:	7919      	ldrb	r1, [r3, #4]
 80011e6:	795a      	ldrb	r2, [r3, #5]
 80011e8:	0209      	lsls	r1, r1, #8
 80011ea:	7898      	ldrb	r0, [r3, #2]
 80011ec:	1852      	adds	r2, r2, r1
 80011ee:	78d9      	ldrb	r1, [r3, #3]
 80011f0:	0200      	lsls	r0, r0, #8
 80011f2:	1809      	adds	r1, r1, r0
 80011f4:	b292      	uxth	r2, r2
 80011f6:	b289      	uxth	r1, r1
 80011f8:	1ce8      	adds	r0, r5, #3
 80011fa:	f7ff feea 	bl	8000fd2 <modbus_writeSingleRegister>
 80011fe:	e7ec      	b.n	80011da <serial_processFrame+0x126>
 8001200:	2001      	movs	r0, #1
 8001202:	e77f      	b.n	8001104 <serial_processFrame+0x50>
 8001204:	200001ca 	.word	0x200001ca

08001208 <serial_getQueuedCommand>:
 8001208:	b570      	push	{r4, r5, r6, lr}
 800120a:	0006      	movs	r6, r0
 800120c:	2300      	movs	r3, #0
 800120e:	3641      	adds	r6, #65	; 0x41
 8001210:	7831      	ldrb	r1, [r6, #0]
 8001212:	4c13      	ldr	r4, [pc, #76]	; (8001260 <serial_getQueuedCommand+0x58>)
 8001214:	b2da      	uxtb	r2, r3
 8001216:	4291      	cmp	r1, r2
 8001218:	d803      	bhi.n	8001222 <serial_getQueuedCommand+0x1a>
 800121a:	2903      	cmp	r1, #3
 800121c:	d805      	bhi.n	800122a <serial_getQueuedCommand+0x22>
 800121e:	2000      	movs	r0, #0
 8001220:	bd70      	pop	{r4, r5, r6, pc}
 8001222:	5cc2      	ldrb	r2, [r0, r3]
 8001224:	551a      	strb	r2, [r3, r4]
 8001226:	3301      	adds	r3, #1
 8001228:	e7f4      	b.n	8001214 <serial_getQueuedCommand+0xc>
 800122a:	4b0e      	ldr	r3, [pc, #56]	; (8001264 <serial_getQueuedCommand+0x5c>)
 800122c:	4d0c      	ldr	r5, [pc, #48]	; (8001260 <serial_getQueuedCommand+0x58>)
 800122e:	781a      	ldrb	r2, [r3, #0]
 8001230:	782b      	ldrb	r3, [r5, #0]
 8001232:	429a      	cmp	r2, r3
 8001234:	d1f3      	bne.n	800121e <serial_getQueuedCommand+0x16>
 8001236:	186b      	adds	r3, r5, r1
 8001238:	1e5a      	subs	r2, r3, #1
 800123a:	7812      	ldrb	r2, [r2, #0]
 800123c:	3b02      	subs	r3, #2
 800123e:	781c      	ldrb	r4, [r3, #0]
 8001240:	0212      	lsls	r2, r2, #8
 8001242:	3902      	subs	r1, #2
 8001244:	18a4      	adds	r4, r4, r2
 8001246:	b2c9      	uxtb	r1, r1
 8001248:	0028      	movs	r0, r5
 800124a:	b2a4      	uxth	r4, r4
 800124c:	f7ff fcfe 	bl	8000c4c <calcCRC>
 8001250:	4284      	cmp	r4, r0
 8001252:	d1e4      	bne.n	800121e <serial_getQueuedCommand+0x16>
 8001254:	7831      	ldrb	r1, [r6, #0]
 8001256:	0028      	movs	r0, r5
 8001258:	f7ff ff2c 	bl	80010b4 <serial_processFrame>
 800125c:	2001      	movs	r0, #1
 800125e:	e7df      	b.n	8001220 <serial_getQueuedCommand+0x18>
 8001260:	200001de 	.word	0x200001de
 8001264:	2000000c 	.word	0x2000000c

08001268 <serial_frameReceived>:
 8001268:	b510      	push	{r4, lr}
 800126a:	0004      	movs	r4, r0
 800126c:	f000 fcc4 	bl	8001bf8 <HAL_GetTick>
 8001270:	4b06      	ldr	r3, [pc, #24]	; (800128c <serial_frameReceived+0x24>)
 8001272:	681a      	ldr	r2, [r3, #0]
 8001274:	6c63      	ldr	r3, [r4, #68]	; 0x44
 8001276:	189a      	adds	r2, r3, r2
 8001278:	2300      	movs	r3, #0
 800127a:	4290      	cmp	r0, r2
 800127c:	d903      	bls.n	8001286 <serial_frameReceived+0x1e>
 800127e:	3441      	adds	r4, #65	; 0x41
 8001280:	7823      	ldrb	r3, [r4, #0]
 8001282:	1e58      	subs	r0, r3, #1
 8001284:	4183      	sbcs	r3, r0
 8001286:	b2d8      	uxtb	r0, r3
 8001288:	bd10      	pop	{r4, pc}
 800128a:	46c0      	nop			; (mov r8, r8)
 800128c:	20000008 	.word	0x20000008

08001290 <serialController>:
 8001290:	b510      	push	{r4, lr}
 8001292:	4c07      	ldr	r4, [pc, #28]	; (80012b0 <serialController+0x20>)
 8001294:	0020      	movs	r0, r4
 8001296:	f7ff ffe7 	bl	8001268 <serial_frameReceived>
 800129a:	2800      	cmp	r0, #0
 800129c:	d007      	beq.n	80012ae <serialController+0x1e>
 800129e:	0020      	movs	r0, r4
 80012a0:	f7ff ffb2 	bl	8001208 <serial_getQueuedCommand>
 80012a4:	0020      	movs	r0, r4
 80012a6:	f7ff febf 	bl	8001028 <serial_queueInit>
 80012aa:	f7ff fe95 	bl	8000fd8 <serial_receiveEnable>
 80012ae:	bd10      	pop	{r4, pc}
 80012b0:	200006b8 	.word	0x200006b8

080012b4 <usb_queueInit>:
 80012b4:	0001      	movs	r1, r0
 80012b6:	0003      	movs	r3, r0
 80012b8:	2200      	movs	r2, #0
 80012ba:	3141      	adds	r1, #65	; 0x41
 80012bc:	701a      	strb	r2, [r3, #0]
 80012be:	3301      	adds	r3, #1
 80012c0:	428b      	cmp	r3, r1
 80012c2:	d1fb      	bne.n	80012bc <usb_queueInit+0x8>
 80012c4:	3042      	adds	r0, #66	; 0x42
 80012c6:	701a      	strb	r2, [r3, #0]
 80012c8:	7002      	strb	r2, [r0, #0]
 80012ca:	4770      	bx	lr

080012cc <usb_init>:
 80012cc:	b510      	push	{r4, lr}
 80012ce:	4803      	ldr	r0, [pc, #12]	; (80012dc <usb_init+0x10>)
 80012d0:	f7ff fff0 	bl	80012b4 <usb_queueInit>
 80012d4:	f7ff fcf8 	bl	8000cc8 <statusLedBlink>
 80012d8:	bd10      	pop	{r4, pc}
 80012da:	46c0      	nop			; (mov r8, r8)
 80012dc:	200005e0 	.word	0x200005e0

080012e0 <usb_addToQueue>:
 80012e0:	b5f0      	push	{r4, r5, r6, r7, lr}
 80012e2:	0003      	movs	r3, r0
 80012e4:	0004      	movs	r4, r0
 80012e6:	3341      	adds	r3, #65	; 0x41
 80012e8:	3442      	adds	r4, #66	; 0x42
 80012ea:	7825      	ldrb	r5, [r4, #0]
 80012ec:	781b      	ldrb	r3, [r3, #0]
 80012ee:	1b5b      	subs	r3, r3, r5
 80012f0:	b2db      	uxtb	r3, r3
 80012f2:	001d      	movs	r5, r3
 80012f4:	3540      	adds	r5, #64	; 0x40
 80012f6:	b2ed      	uxtb	r5, r5
 80012f8:	2d40      	cmp	r5, #64	; 0x40
 80012fa:	d901      	bls.n	8001300 <usb_addToQueue+0x20>
 80012fc:	3b01      	subs	r3, #1
 80012fe:	b2dd      	uxtb	r5, r3
 8001300:	4295      	cmp	r5, r2
 8001302:	d303      	bcc.n	800130c <usb_addToQueue+0x2c>
 8001304:	2600      	movs	r6, #0
 8001306:	188a      	adds	r2, r1, r2
 8001308:	4291      	cmp	r1, r2
 800130a:	d100      	bne.n	800130e <usb_addToQueue+0x2e>
 800130c:	bdf0      	pop	{r4, r5, r6, r7, pc}
 800130e:	7825      	ldrb	r5, [r4, #0]
 8001310:	1c6b      	adds	r3, r5, #1
 8001312:	b2db      	uxtb	r3, r3
 8001314:	7023      	strb	r3, [r4, #0]
 8001316:	780f      	ldrb	r7, [r1, #0]
 8001318:	5547      	strb	r7, [r0, r5]
 800131a:	2b41      	cmp	r3, #65	; 0x41
 800131c:	d100      	bne.n	8001320 <usb_addToQueue+0x40>
 800131e:	7026      	strb	r6, [r4, #0]
 8001320:	3101      	adds	r1, #1
 8001322:	e7f1      	b.n	8001308 <usb_addToQueue+0x28>

08001324 <usb_peekQueue>:
 8001324:	0003      	movs	r3, r0
 8001326:	3341      	adds	r3, #65	; 0x41
 8001328:	781b      	ldrb	r3, [r3, #0]
 800132a:	18c9      	adds	r1, r1, r3
 800132c:	b2c9      	uxtb	r1, r1
 800132e:	2940      	cmp	r1, #64	; 0x40
 8001330:	d901      	bls.n	8001336 <usb_peekQueue+0x12>
 8001332:	3941      	subs	r1, #65	; 0x41
 8001334:	b2c9      	uxtb	r1, r1
 8001336:	5c40      	ldrb	r0, [r0, r1]
 8001338:	4770      	bx	lr

0800133a <usb_GetByteFromQueue>:
 800133a:	0002      	movs	r2, r0
 800133c:	3241      	adds	r2, #65	; 0x41
 800133e:	7813      	ldrb	r3, [r2, #0]
 8001340:	5cc0      	ldrb	r0, [r0, r3]
 8001342:	2b40      	cmp	r3, #64	; 0x40
 8001344:	d102      	bne.n	800134c <usb_GetByteFromQueue+0x12>
 8001346:	2300      	movs	r3, #0
 8001348:	7013      	strb	r3, [r2, #0]
 800134a:	4770      	bx	lr
 800134c:	3301      	adds	r3, #1
 800134e:	e7fb      	b.n	8001348 <usb_GetByteFromQueue+0xe>

08001350 <usb_queueDiscard>:
 8001350:	b570      	push	{r4, r5, r6, lr}
 8001352:	0005      	movs	r5, r0
 8001354:	2402      	movs	r4, #2
 8001356:	1ea1      	subs	r1, r4, #2
 8001358:	b2c9      	uxtb	r1, r1
 800135a:	0028      	movs	r0, r5
 800135c:	f7ff ffe2 	bl	8001324 <usb_peekQueue>
 8001360:	280d      	cmp	r0, #13
 8001362:	d112      	bne.n	800138a <usb_queueDiscard+0x3a>
 8001364:	1e61      	subs	r1, r4, #1
 8001366:	b2c9      	uxtb	r1, r1
 8001368:	0028      	movs	r0, r5
 800136a:	f7ff ffdb 	bl	8001324 <usb_peekQueue>
 800136e:	280a      	cmp	r0, #10
 8001370:	d10b      	bne.n	800138a <usb_queueDiscard+0x3a>
 8001372:	0021      	movs	r1, r4
 8001374:	0028      	movs	r0, r5
 8001376:	f7ff ffd5 	bl	8001324 <usb_peekQueue>
 800137a:	2823      	cmp	r0, #35	; 0x23
 800137c:	d105      	bne.n	800138a <usb_queueDiscard+0x3a>
 800137e:	3541      	adds	r5, #65	; 0x41
 8001380:	702c      	strb	r4, [r5, #0]
 8001382:	3402      	adds	r4, #2
 8001384:	b2e4      	uxtb	r4, r4
 8001386:	0020      	movs	r0, r4
 8001388:	bd70      	pop	{r4, r5, r6, pc}
 800138a:	3401      	adds	r4, #1
 800138c:	b2e4      	uxtb	r4, r4
 800138e:	2c40      	cmp	r4, #64	; 0x40
 8001390:	d1e1      	bne.n	8001356 <usb_queueDiscard+0x6>
 8001392:	002a      	movs	r2, r5
 8001394:	2300      	movs	r3, #0
 8001396:	3241      	adds	r2, #65	; 0x41
 8001398:	3542      	adds	r5, #66	; 0x42
 800139a:	7013      	strb	r3, [r2, #0]
 800139c:	702b      	strb	r3, [r5, #0]
 800139e:	e7f2      	b.n	8001386 <usb_queueDiscard+0x36>

080013a0 <usb_processFrame>:
 80013a0:	2223      	movs	r2, #35	; 0x23
 80013a2:	b570      	push	{r4, r5, r6, lr}
 80013a4:	4c90      	ldr	r4, [pc, #576]	; (80015e8 <usb_processFrame+0x248>)
 80013a6:	0003      	movs	r3, r0
 80013a8:	7022      	strb	r2, [r4, #0]
 80013aa:	7885      	ldrb	r5, [r0, #2]
 80013ac:	1e68      	subs	r0, r5, #1
 80013ae:	283d      	cmp	r0, #61	; 0x3d
 80013b0:	d900      	bls.n	80013b4 <usb_processFrame+0x14>
 80013b2:	e114      	b.n	80015de <usb_processFrame+0x23e>
 80013b4:	f7fe febc 	bl	8000130 <__gnu_thumb1_case_uhi>
 80013b8:	0060003e 	.word	0x0060003e
 80013bc:	01130113 	.word	0x01130113
 80013c0:	01130113 	.word	0x01130113
 80013c4:	01130113 	.word	0x01130113
 80013c8:	00660113 	.word	0x00660113
 80013cc:	00700069 	.word	0x00700069
 80013d0:	00780073 	.word	0x00780073
 80013d4:	0082007c 	.word	0x0082007c
 80013d8:	01130086 	.word	0x01130086
 80013dc:	008a0113 	.word	0x008a0113
 80013e0:	00960090 	.word	0x00960090
 80013e4:	01130113 	.word	0x01130113
 80013e8:	01130113 	.word	0x01130113
 80013ec:	01130113 	.word	0x01130113
 80013f0:	009a0113 	.word	0x009a0113
 80013f4:	011300a0 	.word	0x011300a0
 80013f8:	01130113 	.word	0x01130113
 80013fc:	01130113 	.word	0x01130113
 8001400:	01130113 	.word	0x01130113
 8001404:	00a40113 	.word	0x00a40113
 8001408:	00ac00a7 	.word	0x00ac00a7
 800140c:	00d600b8 	.word	0x00d600b8
 8001410:	01130113 	.word	0x01130113
 8001414:	01130113 	.word	0x01130113
 8001418:	00e50113 	.word	0x00e50113
 800141c:	00ec00e7 	.word	0x00ec00e7
 8001420:	00f600f1 	.word	0x00f600f1
 8001424:	011300fd 	.word	0x011300fd
 8001428:	01130113 	.word	0x01130113
 800142c:	01020113 	.word	0x01020113
 8001430:	010e0109 	.word	0x010e0109
 8001434:	2220      	movs	r2, #32
 8001436:	2381      	movs	r3, #129	; 0x81
 8001438:	216d      	movs	r1, #109	; 0x6d
 800143a:	250c      	movs	r5, #12
 800143c:	7122      	strb	r2, [r4, #4]
 800143e:	71e2      	strb	r2, [r4, #7]
 8001440:	7262      	strb	r2, [r4, #9]
 8001442:	3230      	adds	r2, #48	; 0x30
 8001444:	70a3      	strb	r3, [r4, #2]
 8001446:	72a2      	strb	r2, [r4, #10]
 8001448:	3b38      	subs	r3, #56	; 0x38
 800144a:	321e      	adds	r2, #30
 800144c:	70e3      	strb	r3, [r4, #3]
 800144e:	7322      	strb	r2, [r4, #12]
 8001450:	3318      	adds	r3, #24
 8001452:	3a0a      	subs	r2, #10
 8001454:	7163      	strb	r3, [r4, #5]
 8001456:	71a1      	strb	r1, [r4, #6]
 8001458:	7223      	strb	r3, [r4, #8]
 800145a:	72e3      	strb	r3, [r4, #11]
 800145c:	7362      	strb	r2, [r4, #13]
 800145e:	73a3      	strb	r3, [r4, #14]
 8001460:	220d      	movs	r2, #13
 8001462:	1963      	adds	r3, r4, r5
 8001464:	709a      	strb	r2, [r3, #2]
 8001466:	1d29      	adds	r1, r5, #4
 8001468:	3a03      	subs	r2, #3
 800146a:	0020      	movs	r0, r4
 800146c:	70da      	strb	r2, [r3, #3]
 800146e:	7065      	strb	r5, [r4, #1]
 8001470:	f005 fb60 	bl	8006b34 <CDC_Transmit_FS>
 8001474:	2000      	movs	r0, #0
 8001476:	bd70      	pop	{r4, r5, r6, pc}
 8001478:	2382      	movs	r3, #130	; 0x82
 800147a:	70a3      	strb	r3, [r4, #2]
 800147c:	f000 f902 	bl	8001684 <getConfigBits>
 8001480:	70e0      	strb	r0, [r4, #3]
 8001482:	e7ed      	b.n	8001460 <usb_processFrame+0xc0>
 8001484:	78d8      	ldrb	r0, [r3, #3]
 8001486:	f7ff fc61 	bl	8000d4c <userLedMode>
 800148a:	238b      	movs	r3, #139	; 0x8b
 800148c:	70a3      	strb	r3, [r4, #2]
 800148e:	f7ff fc21 	bl	8000cd4 <getUserLedMode>
 8001492:	70e0      	strb	r0, [r4, #3]
 8001494:	2502      	movs	r5, #2
 8001496:	e7e3      	b.n	8001460 <usb_processFrame+0xc0>
 8001498:	78d8      	ldrb	r0, [r3, #3]
 800149a:	f7ff fc21 	bl	8000ce0 <userLedFreq>
 800149e:	238d      	movs	r3, #141	; 0x8d
 80014a0:	70a3      	strb	r3, [r4, #2]
 80014a2:	f7ff fc29 	bl	8000cf8 <getUserLedFreq>
 80014a6:	e7f4      	b.n	8001492 <usb_processFrame+0xf2>
 80014a8:	78d9      	ldrb	r1, [r3, #3]
 80014aa:	2001      	movs	r0, #1
 80014ac:	f7ff fc6e 	bl	8000d8c <setUserOut>
 80014b0:	238f      	movs	r3, #143	; 0x8f
 80014b2:	2001      	movs	r0, #1
 80014b4:	70a3      	strb	r3, [r4, #2]
 80014b6:	f7ff fc83 	bl	8000dc0 <getUserOut>
 80014ba:	e7ea      	b.n	8001492 <usb_processFrame+0xf2>
 80014bc:	78d9      	ldrb	r1, [r3, #3]
 80014be:	2002      	movs	r0, #2
 80014c0:	f7ff fc64 	bl	8000d8c <setUserOut>
 80014c4:	2391      	movs	r3, #145	; 0x91
 80014c6:	2002      	movs	r0, #2
 80014c8:	70a3      	strb	r3, [r4, #2]
 80014ca:	e7f4      	b.n	80014b6 <usb_processFrame+0x116>
 80014cc:	2394      	movs	r3, #148	; 0x94
 80014ce:	70a3      	strb	r3, [r4, #2]
 80014d0:	f7ff f8da 	bl	8000688 <getFromFilter>
 80014d4:	0005      	movs	r5, r0
 80014d6:	e04a      	b.n	800156e <usb_processFrame+0x1ce>
 80014d8:	2395      	movs	r3, #149	; 0x95
 80014da:	2000      	movs	r0, #0
 80014dc:	70a3      	strb	r3, [r4, #2]
 80014de:	f7fe ffe5 	bl	80004ac <getAnalogRead>
 80014e2:	e7f7      	b.n	80014d4 <usb_processFrame+0x134>
 80014e4:	2396      	movs	r3, #150	; 0x96
 80014e6:	2001      	movs	r0, #1
 80014e8:	70a3      	strb	r3, [r4, #2]
 80014ea:	e7f8      	b.n	80014de <usb_processFrame+0x13e>
 80014ec:	239e      	movs	r3, #158	; 0x9e
 80014ee:	2001      	movs	r0, #1
 80014f0:	70a3      	strb	r3, [r4, #2]
 80014f2:	f7ff f87b 	bl	80005ec <getUserIn>
 80014f6:	e7cc      	b.n	8001492 <usb_processFrame+0xf2>
 80014f8:	239f      	movs	r3, #159	; 0x9f
 80014fa:	2002      	movs	r0, #2
 80014fc:	70a3      	strb	r3, [r4, #2]
 80014fe:	e7f8      	b.n	80014f2 <usb_processFrame+0x152>
 8001500:	78d8      	ldrb	r0, [r3, #3]
 8001502:	f7fe fff5 	bl	80004f0 <setEncoderMode>
 8001506:	23a9      	movs	r3, #169	; 0xa9
 8001508:	70a3      	strb	r3, [r4, #2]
 800150a:	f7fe fff7 	bl	80004fc <getEncoderMode>
 800150e:	e7c0      	b.n	8001492 <usb_processFrame+0xf2>
 8001510:	78d8      	ldrb	r0, [r3, #3]
 8001512:	791a      	ldrb	r2, [r3, #4]
 8001514:	0600      	lsls	r0, r0, #24
 8001516:	0412      	lsls	r2, r2, #16
 8001518:	1880      	adds	r0, r0, r2
 800151a:	795a      	ldrb	r2, [r3, #5]
 800151c:	799b      	ldrb	r3, [r3, #6]
 800151e:	0212      	lsls	r2, r2, #8
 8001520:	1880      	adds	r0, r0, r2
 8001522:	18c0      	adds	r0, r0, r3
 8001524:	f7fe ffc8 	bl	80004b8 <setEncoderCount>
 8001528:	23ab      	movs	r3, #171	; 0xab
 800152a:	70a3      	strb	r3, [r4, #2]
 800152c:	f7fe ffec 	bl	8000508 <getEncoderCount>
 8001530:	0005      	movs	r5, r0
 8001532:	f000 f8a3 	bl	800167c <get16MSB>
 8001536:	f000 f89d 	bl	8001674 <get8MSB>
 800153a:	70e0      	strb	r0, [r4, #3]
 800153c:	0028      	movs	r0, r5
 800153e:	f000 f89d 	bl	800167c <get16MSB>
 8001542:	f000 f899 	bl	8001678 <get8LSB>
 8001546:	7120      	strb	r0, [r4, #4]
 8001548:	0028      	movs	r0, r5
 800154a:	f000 f899 	bl	8001680 <get16LSB>
 800154e:	f000 f891 	bl	8001674 <get8MSB>
 8001552:	7160      	strb	r0, [r4, #5]
 8001554:	0028      	movs	r0, r5
 8001556:	f000 f893 	bl	8001680 <get16LSB>
 800155a:	f000 f88d 	bl	8001678 <get8LSB>
 800155e:	2505      	movs	r5, #5
 8001560:	71a0      	strb	r0, [r4, #6]
 8001562:	e77d      	b.n	8001460 <usb_processFrame+0xc0>
 8001564:	23ac      	movs	r3, #172	; 0xac
 8001566:	70a3      	strb	r3, [r4, #2]
 8001568:	f7ff f83a 	bl	80005e0 <getEncoderDuty>
 800156c:	b285      	uxth	r5, r0
 800156e:	0028      	movs	r0, r5
 8001570:	f000 f880 	bl	8001674 <get8MSB>
 8001574:	70e0      	strb	r0, [r4, #3]
 8001576:	0028      	movs	r0, r5
 8001578:	f000 f87e 	bl	8001678 <get8LSB>
 800157c:	2503      	movs	r5, #3
 800157e:	7120      	strb	r0, [r4, #4]
 8001580:	e76e      	b.n	8001460 <usb_processFrame+0xc0>
 8001582:	f7ff f8a9 	bl	80006d8 <calibrateGain>
 8001586:	23b3      	movs	r3, #179	; 0xb3
 8001588:	70a3      	strb	r3, [r4, #2]
 800158a:	f7ff f8db 	bl	8000744 <getGainCalibrated>
 800158e:	e780      	b.n	8001492 <usb_processFrame+0xf2>
 8001590:	23b4      	movs	r3, #180	; 0xb4
 8001592:	70a3      	strb	r3, [r4, #2]
 8001594:	f7ff f8dc 	bl	8000750 <getRgStep>
 8001598:	e77b      	b.n	8001492 <usb_processFrame+0xf2>
 800159a:	23b5      	movs	r3, #181	; 0xb5
 800159c:	70a3      	strb	r3, [r4, #2]
 800159e:	f7ff f8dd 	bl	800075c <getRgWiper>
 80015a2:	e776      	b.n	8001492 <usb_processFrame+0xf2>
 80015a4:	78da      	ldrb	r2, [r3, #3]
 80015a6:	7918      	ldrb	r0, [r3, #4]
 80015a8:	0212      	lsls	r2, r2, #8
 80015aa:	1880      	adds	r0, r0, r2
 80015ac:	b280      	uxth	r0, r0
 80015ae:	f7ff f8f1 	bl	8000794 <setGain>
 80015b2:	23b7      	movs	r3, #183	; 0xb7
 80015b4:	70a3      	strb	r3, [r4, #2]
 80015b6:	f7ff f90b 	bl	80007d0 <getActiveGain>
 80015ba:	e78b      	b.n	80014d4 <usb_processFrame+0x134>
 80015bc:	78da      	ldrb	r2, [r3, #3]
 80015be:	7918      	ldrb	r0, [r3, #4]
 80015c0:	0212      	lsls	r2, r2, #8
 80015c2:	1880      	adds	r0, r0, r2
 80015c4:	b280      	uxth	r0, r0
 80015c6:	f7ff f813 	bl	80005f0 <setOffset>
 80015ca:	23bd      	movs	r3, #189	; 0xbd
 80015cc:	70a3      	strb	r3, [r4, #2]
 80015ce:	f7ff f81f 	bl	8000610 <getOffset>
 80015d2:	e77f      	b.n	80014d4 <usb_processFrame+0x134>
 80015d4:	f7ff f902 	bl	80007dc <autoOffset>
 80015d8:	23be      	movs	r3, #190	; 0xbe
 80015da:	70a3      	strb	r3, [r4, #2]
 80015dc:	e759      	b.n	8001492 <usb_processFrame+0xf2>
 80015de:	2300      	movs	r3, #0
 80015e0:	70a3      	strb	r3, [r4, #2]
 80015e2:	3301      	adds	r3, #1
 80015e4:	70e3      	strb	r3, [r4, #3]
 80015e6:	e755      	b.n	8001494 <usb_processFrame+0xf4>
 80015e8:	200001ee 	.word	0x200001ee

080015ec <usb_getQueuedCommand>:
 80015ec:	b5f8      	push	{r3, r4, r5, r6, r7, lr}
 80015ee:	0004      	movs	r4, r0
 80015f0:	3441      	adds	r4, #65	; 0x41
 80015f2:	7823      	ldrb	r3, [r4, #0]
 80015f4:	0006      	movs	r6, r0
 80015f6:	5cc3      	ldrb	r3, [r0, r3]
 80015f8:	2b23      	cmp	r3, #35	; 0x23
 80015fa:	d001      	beq.n	8001600 <usb_getQueuedCommand+0x14>
 80015fc:	f7ff fea8 	bl	8001350 <usb_queueDiscard>
 8001600:	0033      	movs	r3, r6
 8001602:	3342      	adds	r3, #66	; 0x42
 8001604:	7822      	ldrb	r2, [r4, #0]
 8001606:	781b      	ldrb	r3, [r3, #0]
 8001608:	429a      	cmp	r2, r3
 800160a:	d101      	bne.n	8001610 <usb_getQueuedCommand+0x24>
 800160c:	2000      	movs	r0, #0
 800160e:	bdf8      	pop	{r3, r4, r5, r6, r7, pc}
 8001610:	2101      	movs	r1, #1
 8001612:	0030      	movs	r0, r6
 8001614:	f7ff fe86 	bl	8001324 <usb_peekQueue>
 8001618:	2700      	movs	r7, #0
 800161a:	1d04      	adds	r4, r0, #4
 800161c:	b2e4      	uxtb	r4, r4
 800161e:	b2fb      	uxtb	r3, r7
 8001620:	4d0b      	ldr	r5, [pc, #44]	; (8001650 <usb_getQueuedCommand+0x64>)
 8001622:	42a3      	cmp	r3, r4
 8001624:	d30d      	bcc.n	8001642 <usb_getQueuedCommand+0x56>
 8001626:	192c      	adds	r4, r5, r4
 8001628:	1ea3      	subs	r3, r4, #2
 800162a:	781b      	ldrb	r3, [r3, #0]
 800162c:	2b0d      	cmp	r3, #13
 800162e:	d1ed      	bne.n	800160c <usb_getQueuedCommand+0x20>
 8001630:	3c01      	subs	r4, #1
 8001632:	7823      	ldrb	r3, [r4, #0]
 8001634:	2b0a      	cmp	r3, #10
 8001636:	d1e9      	bne.n	800160c <usb_getQueuedCommand+0x20>
 8001638:	0028      	movs	r0, r5
 800163a:	f7ff feb1 	bl	80013a0 <usb_processFrame>
 800163e:	2001      	movs	r0, #1
 8001640:	e7e5      	b.n	800160e <usb_getQueuedCommand+0x22>
 8001642:	0030      	movs	r0, r6
 8001644:	f7ff fe79 	bl	800133a <usb_GetByteFromQueue>
 8001648:	55e8      	strb	r0, [r5, r7]
 800164a:	3701      	adds	r7, #1
 800164c:	e7e7      	b.n	800161e <usb_getQueuedCommand+0x32>
 800164e:	46c0      	nop			; (mov r8, r8)
 8001650:	200001fe 	.word	0x200001fe

08001654 <usbController>:
 8001654:	4806      	ldr	r0, [pc, #24]	; (8001670 <usbController+0x1c>)
 8001656:	b510      	push	{r4, lr}
 8001658:	0002      	movs	r2, r0
 800165a:	0003      	movs	r3, r0
 800165c:	3242      	adds	r2, #66	; 0x42
 800165e:	3341      	adds	r3, #65	; 0x41
 8001660:	7812      	ldrb	r2, [r2, #0]
 8001662:	781b      	ldrb	r3, [r3, #0]
 8001664:	429a      	cmp	r2, r3
 8001666:	d001      	beq.n	800166c <usbController+0x18>
 8001668:	f7ff ffc0 	bl	80015ec <usb_getQueuedCommand>
 800166c:	bd10      	pop	{r4, pc}
 800166e:	46c0      	nop			; (mov r8, r8)
 8001670:	200005e0 	.word	0x200005e0

08001674 <get8MSB>:
 8001674:	0a00      	lsrs	r0, r0, #8
 8001676:	4770      	bx	lr

08001678 <get8LSB>:
 8001678:	b2c0      	uxtb	r0, r0
 800167a:	4770      	bx	lr

0800167c <get16MSB>:
 800167c:	0c00      	lsrs	r0, r0, #16
 800167e:	4770      	bx	lr

08001680 <get16LSB>:
 8001680:	b280      	uxth	r0, r0
 8001682:	4770      	bx	lr

08001684 <getConfigBits>:
 8001684:	2180      	movs	r1, #128	; 0x80
 8001686:	2090      	movs	r0, #144	; 0x90
 8001688:	b570      	push	{r4, r5, r6, lr}
 800168a:	0209      	lsls	r1, r1, #8
 800168c:	05c0      	lsls	r0, r0, #23
 800168e:	f001 f887 	bl	80027a0 <HAL_GPIO_ReadPin>
 8001692:	4d0c      	ldr	r5, [pc, #48]	; (80016c4 <getConfigBits+0x40>)
 8001694:	0004      	movs	r4, r0
 8001696:	2108      	movs	r1, #8
 8001698:	0028      	movs	r0, r5
 800169a:	f001 f881 	bl	80027a0 <HAL_GPIO_ReadPin>
 800169e:	2110      	movs	r1, #16
 80016a0:	0006      	movs	r6, r0
 80016a2:	0028      	movs	r0, r5
 80016a4:	f001 f87c 	bl	80027a0 <HAL_GPIO_ReadPin>
 80016a8:	0076      	lsls	r6, r6, #1
 80016aa:	0080      	lsls	r0, r0, #2
 80016ac:	1836      	adds	r6, r6, r0
 80016ae:	2120      	movs	r1, #32
 80016b0:	0028      	movs	r0, r5
 80016b2:	f001 f875 	bl	80027a0 <HAL_GPIO_ReadPin>
 80016b6:	19a4      	adds	r4, r4, r6
 80016b8:	b2e4      	uxtb	r4, r4
 80016ba:	00c0      	lsls	r0, r0, #3
 80016bc:	1820      	adds	r0, r4, r0
 80016be:	b2c0      	uxtb	r0, r0
 80016c0:	bd70      	pop	{r4, r5, r6, pc}
 80016c2:	46c0      	nop			; (mov r8, r8)
 80016c4:	48000400 	.word	0x48000400

080016c8 <getActiveD>:
 80016c8:	4b01      	ldr	r3, [pc, #4]	; (80016d0 <getActiveD+0x8>)
 80016ca:	7818      	ldrb	r0, [r3, #0]
 80016cc:	4770      	bx	lr
 80016ce:	46c0      	nop			; (mov r8, r8)
 80016d0:	20000888 	.word	0x20000888

080016d4 <digipotWrite>:
 80016d4:	b537      	push	{r0, r1, r2, r4, r5, lr}
 80016d6:	2490      	movs	r4, #144	; 0x90
 80016d8:	05e4      	lsls	r4, r4, #23
 80016da:	0005      	movs	r5, r0
 80016dc:	2200      	movs	r2, #0
 80016de:	2108      	movs	r1, #8
 80016e0:	0020      	movs	r0, r4
 80016e2:	f001 f863 	bl	80027ac <HAL_GPIO_WritePin>
 80016e6:	2032      	movs	r0, #50	; 0x32
 80016e8:	f000 fa8c 	bl	8001c04 <HAL_Delay>
 80016ec:	2313      	movs	r3, #19
 80016ee:	480a      	ldr	r0, [pc, #40]	; (8001718 <digipotWrite+0x44>)
 80016f0:	a901      	add	r1, sp, #4
 80016f2:	700b      	strb	r3, [r1, #0]
 80016f4:	2202      	movs	r2, #2
 80016f6:	331f      	adds	r3, #31
 80016f8:	6800      	ldr	r0, [r0, #0]
 80016fa:	704d      	strb	r5, [r1, #1]
 80016fc:	f003 f90a 	bl	8004914 <HAL_SPI_Transmit>
 8001700:	2032      	movs	r0, #50	; 0x32
 8001702:	f000 fa7f 	bl	8001c04 <HAL_Delay>
 8001706:	4b05      	ldr	r3, [pc, #20]	; (800171c <digipotWrite+0x48>)
 8001708:	2201      	movs	r2, #1
 800170a:	2108      	movs	r1, #8
 800170c:	0020      	movs	r0, r4
 800170e:	701d      	strb	r5, [r3, #0]
 8001710:	f001 f84c 	bl	80027ac <HAL_GPIO_WritePin>
 8001714:	bd37      	pop	{r0, r1, r2, r4, r5, pc}
 8001716:	46c0      	nop			; (mov r8, r8)
 8001718:	2000088c 	.word	0x2000088c
 800171c:	20000888 	.word	0x20000888

08001720 <spiInit>:
 8001720:	b510      	push	{r4, lr}
 8001722:	4b03      	ldr	r3, [pc, #12]	; (8001730 <spiInit+0x10>)
 8001724:	6018      	str	r0, [r3, #0]
 8001726:	2000      	movs	r0, #0
 8001728:	f7ff ffd4 	bl	80016d4 <digipotWrite>
 800172c:	bd10      	pop	{r4, pc}
 800172e:	46c0      	nop			; (mov r8, r8)
 8001730:	2000088c 	.word	0x2000088c

08001734 <HAL_MspInit>:
 8001734:	2001      	movs	r0, #1
 8001736:	4b0a      	ldr	r3, [pc, #40]	; (8001760 <HAL_MspInit+0x2c>)
 8001738:	b082      	sub	sp, #8
 800173a:	6999      	ldr	r1, [r3, #24]
 800173c:	4301      	orrs	r1, r0
 800173e:	6199      	str	r1, [r3, #24]
 8001740:	2180      	movs	r1, #128	; 0x80
 8001742:	699a      	ldr	r2, [r3, #24]
 8001744:	0549      	lsls	r1, r1, #21
 8001746:	4002      	ands	r2, r0
 8001748:	9200      	str	r2, [sp, #0]
 800174a:	9a00      	ldr	r2, [sp, #0]
 800174c:	69da      	ldr	r2, [r3, #28]
 800174e:	430a      	orrs	r2, r1
 8001750:	61da      	str	r2, [r3, #28]
 8001752:	69db      	ldr	r3, [r3, #28]
 8001754:	400b      	ands	r3, r1
 8001756:	9301      	str	r3, [sp, #4]
 8001758:	9b01      	ldr	r3, [sp, #4]
 800175a:	b002      	add	sp, #8
 800175c:	4770      	bx	lr
 800175e:	46c0      	nop			; (mov r8, r8)
 8001760:	40021000 	.word	0x40021000

08001764 <HAL_ADC_MspInit>:
 8001764:	b530      	push	{r4, r5, lr}
 8001766:	0005      	movs	r5, r0
 8001768:	b089      	sub	sp, #36	; 0x24
 800176a:	2214      	movs	r2, #20
 800176c:	2100      	movs	r1, #0
 800176e:	a803      	add	r0, sp, #12
 8001770:	f005 fc01 	bl	8006f76 <memset>
 8001774:	4b1e      	ldr	r3, [pc, #120]	; (80017f0 <HAL_ADC_MspInit+0x8c>)
 8001776:	682a      	ldr	r2, [r5, #0]
 8001778:	429a      	cmp	r2, r3
 800177a:	d136      	bne.n	80017ea <HAL_ADC_MspInit+0x86>
 800177c:	2080      	movs	r0, #128	; 0x80
 800177e:	4b1d      	ldr	r3, [pc, #116]	; (80017f4 <HAL_ADC_MspInit+0x90>)
 8001780:	0080      	lsls	r0, r0, #2
 8001782:	6999      	ldr	r1, [r3, #24]
 8001784:	4301      	orrs	r1, r0
 8001786:	6199      	str	r1, [r3, #24]
 8001788:	2180      	movs	r1, #128	; 0x80
 800178a:	699a      	ldr	r2, [r3, #24]
 800178c:	0289      	lsls	r1, r1, #10
 800178e:	4002      	ands	r2, r0
 8001790:	9201      	str	r2, [sp, #4]
 8001792:	9a01      	ldr	r2, [sp, #4]
 8001794:	695a      	ldr	r2, [r3, #20]
 8001796:	2090      	movs	r0, #144	; 0x90
 8001798:	430a      	orrs	r2, r1
 800179a:	615a      	str	r2, [r3, #20]
 800179c:	695b      	ldr	r3, [r3, #20]
 800179e:	05c0      	lsls	r0, r0, #23
 80017a0:	400b      	ands	r3, r1
 80017a2:	9302      	str	r3, [sp, #8]
 80017a4:	9b02      	ldr	r3, [sp, #8]
 80017a6:	2307      	movs	r3, #7
 80017a8:	a903      	add	r1, sp, #12
 80017aa:	9303      	str	r3, [sp, #12]
 80017ac:	3b04      	subs	r3, #4
 80017ae:	9304      	str	r3, [sp, #16]
 80017b0:	f000 ff34 	bl	800261c <HAL_GPIO_Init>
 80017b4:	4c10      	ldr	r4, [pc, #64]	; (80017f8 <HAL_ADC_MspInit+0x94>)
 80017b6:	4b11      	ldr	r3, [pc, #68]	; (80017fc <HAL_ADC_MspInit+0x98>)
 80017b8:	0020      	movs	r0, r4
 80017ba:	6023      	str	r3, [r4, #0]
 80017bc:	2300      	movs	r3, #0
 80017be:	6063      	str	r3, [r4, #4]
 80017c0:	60a3      	str	r3, [r4, #8]
 80017c2:	3380      	adds	r3, #128	; 0x80
 80017c4:	60e3      	str	r3, [r4, #12]
 80017c6:	3380      	adds	r3, #128	; 0x80
 80017c8:	6123      	str	r3, [r4, #16]
 80017ca:	2380      	movs	r3, #128	; 0x80
 80017cc:	00db      	lsls	r3, r3, #3
 80017ce:	6163      	str	r3, [r4, #20]
 80017d0:	2320      	movs	r3, #32
 80017d2:	61a3      	str	r3, [r4, #24]
 80017d4:	2380      	movs	r3, #128	; 0x80
 80017d6:	019b      	lsls	r3, r3, #6
 80017d8:	61e3      	str	r3, [r4, #28]
 80017da:	f000 fe41 	bl	8002460 <HAL_DMA_Init>
 80017de:	2800      	cmp	r0, #0
 80017e0:	d001      	beq.n	80017e6 <HAL_ADC_MspInit+0x82>
 80017e2:	f7ff fa3d 	bl	8000c60 <Error_Handler>
 80017e6:	632c      	str	r4, [r5, #48]	; 0x30
 80017e8:	6265      	str	r5, [r4, #36]	; 0x24
 80017ea:	b009      	add	sp, #36	; 0x24
 80017ec:	bd30      	pop	{r4, r5, pc}
 80017ee:	46c0      	nop			; (mov r8, r8)
 80017f0:	40012400 	.word	0x40012400
 80017f4:	40021000 	.word	0x40021000
 80017f8:	200007e8 	.word	0x200007e8
 80017fc:	40020008 	.word	0x40020008

08001800 <HAL_CAN_MspInit>:
 8001800:	b510      	push	{r4, lr}
 8001802:	0004      	movs	r4, r0
 8001804:	b088      	sub	sp, #32
 8001806:	2214      	movs	r2, #20
 8001808:	2100      	movs	r1, #0
 800180a:	a803      	add	r0, sp, #12
 800180c:	f005 fbb3 	bl	8006f76 <memset>
 8001810:	4b12      	ldr	r3, [pc, #72]	; (800185c <HAL_CAN_MspInit+0x5c>)
 8001812:	6822      	ldr	r2, [r4, #0]
 8001814:	429a      	cmp	r2, r3
 8001816:	d11f      	bne.n	8001858 <HAL_CAN_MspInit+0x58>
 8001818:	2080      	movs	r0, #128	; 0x80
 800181a:	4b11      	ldr	r3, [pc, #68]	; (8001860 <HAL_CAN_MspInit+0x60>)
 800181c:	0480      	lsls	r0, r0, #18
 800181e:	69d9      	ldr	r1, [r3, #28]
 8001820:	4301      	orrs	r1, r0
 8001822:	61d9      	str	r1, [r3, #28]
 8001824:	2180      	movs	r1, #128	; 0x80
 8001826:	69da      	ldr	r2, [r3, #28]
 8001828:	02c9      	lsls	r1, r1, #11
 800182a:	4002      	ands	r2, r0
 800182c:	9201      	str	r2, [sp, #4]
 800182e:	9a01      	ldr	r2, [sp, #4]
 8001830:	695a      	ldr	r2, [r3, #20]
 8001832:	480c      	ldr	r0, [pc, #48]	; (8001864 <HAL_CAN_MspInit+0x64>)
 8001834:	430a      	orrs	r2, r1
 8001836:	615a      	str	r2, [r3, #20]
 8001838:	695b      	ldr	r3, [r3, #20]
 800183a:	400b      	ands	r3, r1
 800183c:	9302      	str	r3, [sp, #8]
 800183e:	9b02      	ldr	r3, [sp, #8]
 8001840:	23c0      	movs	r3, #192	; 0xc0
 8001842:	009b      	lsls	r3, r3, #2
 8001844:	9303      	str	r3, [sp, #12]
 8001846:	2302      	movs	r3, #2
 8001848:	9304      	str	r3, [sp, #16]
 800184a:	3301      	adds	r3, #1
 800184c:	9306      	str	r3, [sp, #24]
 800184e:	a903      	add	r1, sp, #12
 8001850:	3301      	adds	r3, #1
 8001852:	9307      	str	r3, [sp, #28]
 8001854:	f000 fee2 	bl	800261c <HAL_GPIO_Init>
 8001858:	b008      	add	sp, #32
 800185a:	bd10      	pop	{r4, pc}
 800185c:	40006400 	.word	0x40006400
 8001860:	40021000 	.word	0x40021000
 8001864:	48000400 	.word	0x48000400

08001868 <HAL_CRC_MspInit>:
 8001868:	4b07      	ldr	r3, [pc, #28]	; (8001888 <HAL_CRC_MspInit+0x20>)
 800186a:	6802      	ldr	r2, [r0, #0]
 800186c:	b082      	sub	sp, #8
 800186e:	429a      	cmp	r2, r3
 8001870:	d108      	bne.n	8001884 <HAL_CRC_MspInit+0x1c>
 8001872:	2040      	movs	r0, #64	; 0x40
 8001874:	4a05      	ldr	r2, [pc, #20]	; (800188c <HAL_CRC_MspInit+0x24>)
 8001876:	6951      	ldr	r1, [r2, #20]
 8001878:	4301      	orrs	r1, r0
 800187a:	6151      	str	r1, [r2, #20]
 800187c:	6953      	ldr	r3, [r2, #20]
 800187e:	4003      	ands	r3, r0
 8001880:	9301      	str	r3, [sp, #4]
 8001882:	9b01      	ldr	r3, [sp, #4]
 8001884:	b002      	add	sp, #8
 8001886:	4770      	bx	lr
 8001888:	40023000 	.word	0x40023000
 800188c:	40021000 	.word	0x40021000

08001890 <HAL_DAC_MspInit>:
 8001890:	b510      	push	{r4, lr}
 8001892:	0004      	movs	r4, r0
 8001894:	b088      	sub	sp, #32
 8001896:	2214      	movs	r2, #20
 8001898:	2100      	movs	r1, #0
 800189a:	a803      	add	r0, sp, #12
 800189c:	f005 fb6b 	bl	8006f76 <memset>
 80018a0:	4b10      	ldr	r3, [pc, #64]	; (80018e4 <HAL_DAC_MspInit+0x54>)
 80018a2:	6822      	ldr	r2, [r4, #0]
 80018a4:	429a      	cmp	r2, r3
 80018a6:	d11b      	bne.n	80018e0 <HAL_DAC_MspInit+0x50>
 80018a8:	2080      	movs	r0, #128	; 0x80
 80018aa:	4b0f      	ldr	r3, [pc, #60]	; (80018e8 <HAL_DAC_MspInit+0x58>)
 80018ac:	0580      	lsls	r0, r0, #22
 80018ae:	69d9      	ldr	r1, [r3, #28]
 80018b0:	4301      	orrs	r1, r0
 80018b2:	61d9      	str	r1, [r3, #28]
 80018b4:	2180      	movs	r1, #128	; 0x80
 80018b6:	69da      	ldr	r2, [r3, #28]
 80018b8:	0289      	lsls	r1, r1, #10
 80018ba:	4002      	ands	r2, r0
 80018bc:	9201      	str	r2, [sp, #4]
 80018be:	9a01      	ldr	r2, [sp, #4]
 80018c0:	695a      	ldr	r2, [r3, #20]
 80018c2:	2090      	movs	r0, #144	; 0x90
 80018c4:	430a      	orrs	r2, r1
 80018c6:	615a      	str	r2, [r3, #20]
 80018c8:	695b      	ldr	r3, [r3, #20]
 80018ca:	05c0      	lsls	r0, r0, #23
 80018cc:	400b      	ands	r3, r1
 80018ce:	9302      	str	r3, [sp, #8]
 80018d0:	9b02      	ldr	r3, [sp, #8]
 80018d2:	2310      	movs	r3, #16
 80018d4:	a903      	add	r1, sp, #12
 80018d6:	9303      	str	r3, [sp, #12]
 80018d8:	3b0d      	subs	r3, #13
 80018da:	9304      	str	r3, [sp, #16]
 80018dc:	f000 fe9e 	bl	800261c <HAL_GPIO_Init>
 80018e0:	b008      	add	sp, #32
 80018e2:	bd10      	pop	{r4, pc}
 80018e4:	40007400 	.word	0x40007400
 80018e8:	40021000 	.word	0x40021000

080018ec <HAL_I2C_MspInit>:
 80018ec:	b510      	push	{r4, lr}
 80018ee:	0004      	movs	r4, r0
 80018f0:	b088      	sub	sp, #32
 80018f2:	2214      	movs	r2, #20
 80018f4:	2100      	movs	r1, #0
 80018f6:	a803      	add	r0, sp, #12
 80018f8:	f005 fb3d 	bl	8006f76 <memset>
 80018fc:	4b16      	ldr	r3, [pc, #88]	; (8001958 <HAL_I2C_MspInit+0x6c>)
 80018fe:	6822      	ldr	r2, [r4, #0]
 8001900:	429a      	cmp	r2, r3
 8001902:	d127      	bne.n	8001954 <HAL_I2C_MspInit+0x68>
 8001904:	2180      	movs	r1, #128	; 0x80
 8001906:	4c15      	ldr	r4, [pc, #84]	; (800195c <HAL_I2C_MspInit+0x70>)
 8001908:	02c9      	lsls	r1, r1, #11
 800190a:	6962      	ldr	r2, [r4, #20]
 800190c:	4814      	ldr	r0, [pc, #80]	; (8001960 <HAL_I2C_MspInit+0x74>)
 800190e:	430a      	orrs	r2, r1
 8001910:	6162      	str	r2, [r4, #20]
 8001912:	6963      	ldr	r3, [r4, #20]
 8001914:	2203      	movs	r2, #3
 8001916:	400b      	ands	r3, r1
 8001918:	9301      	str	r3, [sp, #4]
 800191a:	9b01      	ldr	r3, [sp, #4]
 800191c:	23c0      	movs	r3, #192	; 0xc0
 800191e:	9303      	str	r3, [sp, #12]
 8001920:	3bae      	subs	r3, #174	; 0xae
 8001922:	9304      	str	r3, [sp, #16]
 8001924:	a903      	add	r1, sp, #12
 8001926:	3b11      	subs	r3, #17
 8001928:	9305      	str	r3, [sp, #20]
 800192a:	9206      	str	r2, [sp, #24]
 800192c:	9307      	str	r3, [sp, #28]
 800192e:	f000 fe75 	bl	800261c <HAL_GPIO_Init>
 8001932:	2180      	movs	r1, #128	; 0x80
 8001934:	69e2      	ldr	r2, [r4, #28]
 8001936:	0389      	lsls	r1, r1, #14
 8001938:	430a      	orrs	r2, r1
 800193a:	61e2      	str	r2, [r4, #28]
 800193c:	2200      	movs	r2, #0
 800193e:	69e3      	ldr	r3, [r4, #28]
 8001940:	2017      	movs	r0, #23
 8001942:	400b      	ands	r3, r1
 8001944:	9302      	str	r3, [sp, #8]
 8001946:	0011      	movs	r1, r2
 8001948:	9b02      	ldr	r3, [sp, #8]
 800194a:	f000 fbff 	bl	800214c <HAL_NVIC_SetPriority>
 800194e:	2017      	movs	r0, #23
 8001950:	f000 fc26 	bl	80021a0 <HAL_NVIC_EnableIRQ>
 8001954:	b008      	add	sp, #32
 8001956:	bd10      	pop	{r4, pc}
 8001958:	40005400 	.word	0x40005400
 800195c:	40021000 	.word	0x40021000
 8001960:	48000400 	.word	0x48000400

08001964 <HAL_SPI_MspInit>:
 8001964:	b510      	push	{r4, lr}
 8001966:	0004      	movs	r4, r0
 8001968:	b088      	sub	sp, #32
 800196a:	2214      	movs	r2, #20
 800196c:	2100      	movs	r1, #0
 800196e:	a803      	add	r0, sp, #12
 8001970:	f005 fb01 	bl	8006f76 <memset>
 8001974:	4b11      	ldr	r3, [pc, #68]	; (80019bc <HAL_SPI_MspInit+0x58>)
 8001976:	6822      	ldr	r2, [r4, #0]
 8001978:	429a      	cmp	r2, r3
 800197a:	d11d      	bne.n	80019b8 <HAL_SPI_MspInit+0x54>
 800197c:	2080      	movs	r0, #128	; 0x80
 800197e:	4b10      	ldr	r3, [pc, #64]	; (80019c0 <HAL_SPI_MspInit+0x5c>)
 8001980:	0140      	lsls	r0, r0, #5
 8001982:	6999      	ldr	r1, [r3, #24]
 8001984:	4301      	orrs	r1, r0
 8001986:	6199      	str	r1, [r3, #24]
 8001988:	2180      	movs	r1, #128	; 0x80
 800198a:	699a      	ldr	r2, [r3, #24]
 800198c:	0289      	lsls	r1, r1, #10
 800198e:	4002      	ands	r2, r0
 8001990:	9201      	str	r2, [sp, #4]
 8001992:	9a01      	ldr	r2, [sp, #4]
 8001994:	695a      	ldr	r2, [r3, #20]
 8001996:	2090      	movs	r0, #144	; 0x90
 8001998:	430a      	orrs	r2, r1
 800199a:	615a      	str	r2, [r3, #20]
 800199c:	695b      	ldr	r3, [r3, #20]
 800199e:	05c0      	lsls	r0, r0, #23
 80019a0:	400b      	ands	r3, r1
 80019a2:	9302      	str	r3, [sp, #8]
 80019a4:	9b02      	ldr	r3, [sp, #8]
 80019a6:	23e0      	movs	r3, #224	; 0xe0
 80019a8:	9303      	str	r3, [sp, #12]
 80019aa:	3bde      	subs	r3, #222	; 0xde
 80019ac:	9304      	str	r3, [sp, #16]
 80019ae:	a903      	add	r1, sp, #12
 80019b0:	3301      	adds	r3, #1
 80019b2:	9306      	str	r3, [sp, #24]
 80019b4:	f000 fe32 	bl	800261c <HAL_GPIO_Init>
 80019b8:	b008      	add	sp, #32
 80019ba:	bd10      	pop	{r4, pc}
 80019bc:	40013000 	.word	0x40013000
 80019c0:	40021000 	.word	0x40021000

080019c4 <HAL_TIM_Base_MspInit>:
 80019c4:	b507      	push	{r0, r1, r2, lr}
 80019c6:	2280      	movs	r2, #128	; 0x80
 80019c8:	6803      	ldr	r3, [r0, #0]
 80019ca:	05d2      	lsls	r2, r2, #23
 80019cc:	4293      	cmp	r3, r2
 80019ce:	d109      	bne.n	80019e4 <HAL_TIM_Base_MspInit+0x20>
 80019d0:	2001      	movs	r0, #1
 80019d2:	4a0f      	ldr	r2, [pc, #60]	; (8001a10 <HAL_TIM_Base_MspInit+0x4c>)
 80019d4:	69d1      	ldr	r1, [r2, #28]
 80019d6:	4301      	orrs	r1, r0
 80019d8:	61d1      	str	r1, [r2, #28]
 80019da:	69d3      	ldr	r3, [r2, #28]
 80019dc:	4003      	ands	r3, r0
 80019de:	9300      	str	r3, [sp, #0]
 80019e0:	9b00      	ldr	r3, [sp, #0]
 80019e2:	bd07      	pop	{r0, r1, r2, pc}
 80019e4:	4a0b      	ldr	r2, [pc, #44]	; (8001a14 <HAL_TIM_Base_MspInit+0x50>)
 80019e6:	4293      	cmp	r3, r2
 80019e8:	d1fb      	bne.n	80019e2 <HAL_TIM_Base_MspInit+0x1e>
 80019ea:	2080      	movs	r0, #128	; 0x80
 80019ec:	4a08      	ldr	r2, [pc, #32]	; (8001a10 <HAL_TIM_Base_MspInit+0x4c>)
 80019ee:	0040      	lsls	r0, r0, #1
 80019f0:	69d1      	ldr	r1, [r2, #28]
 80019f2:	4301      	orrs	r1, r0
 80019f4:	61d1      	str	r1, [r2, #28]
 80019f6:	69d3      	ldr	r3, [r2, #28]
 80019f8:	2200      	movs	r2, #0
 80019fa:	4003      	ands	r3, r0
 80019fc:	9301      	str	r3, [sp, #4]
 80019fe:	0011      	movs	r1, r2
 8001a00:	38ed      	subs	r0, #237	; 0xed
 8001a02:	9b01      	ldr	r3, [sp, #4]
 8001a04:	f000 fba2 	bl	800214c <HAL_NVIC_SetPriority>
 8001a08:	2013      	movs	r0, #19
 8001a0a:	f000 fbc9 	bl	80021a0 <HAL_NVIC_EnableIRQ>
 8001a0e:	e7e8      	b.n	80019e2 <HAL_TIM_Base_MspInit+0x1e>
 8001a10:	40021000 	.word	0x40021000
 8001a14:	40002000 	.word	0x40002000

08001a18 <HAL_UART_MspInit>:
 8001a18:	b510      	push	{r4, lr}
 8001a1a:	0004      	movs	r4, r0
 8001a1c:	b088      	sub	sp, #32
 8001a1e:	2214      	movs	r2, #20
 8001a20:	2100      	movs	r1, #0
 8001a22:	a803      	add	r0, sp, #12
 8001a24:	f005 faa7 	bl	8006f76 <memset>
 8001a28:	4b17      	ldr	r3, [pc, #92]	; (8001a88 <HAL_UART_MspInit+0x70>)
 8001a2a:	6822      	ldr	r2, [r4, #0]
 8001a2c:	429a      	cmp	r2, r3
 8001a2e:	d128      	bne.n	8001a82 <HAL_UART_MspInit+0x6a>
 8001a30:	2080      	movs	r0, #128	; 0x80
 8001a32:	4b16      	ldr	r3, [pc, #88]	; (8001a8c <HAL_UART_MspInit+0x74>)
 8001a34:	01c0      	lsls	r0, r0, #7
 8001a36:	6999      	ldr	r1, [r3, #24]
 8001a38:	4301      	orrs	r1, r0
 8001a3a:	6199      	str	r1, [r3, #24]
 8001a3c:	2180      	movs	r1, #128	; 0x80
 8001a3e:	699a      	ldr	r2, [r3, #24]
 8001a40:	0289      	lsls	r1, r1, #10
 8001a42:	4002      	ands	r2, r0
 8001a44:	9201      	str	r2, [sp, #4]
 8001a46:	9a01      	ldr	r2, [sp, #4]
 8001a48:	695a      	ldr	r2, [r3, #20]
 8001a4a:	2090      	movs	r0, #144	; 0x90
 8001a4c:	430a      	orrs	r2, r1
 8001a4e:	615a      	str	r2, [r3, #20]
 8001a50:	695b      	ldr	r3, [r3, #20]
 8001a52:	05c0      	lsls	r0, r0, #23
 8001a54:	400b      	ands	r3, r1
 8001a56:	9302      	str	r3, [sp, #8]
 8001a58:	9b02      	ldr	r3, [sp, #8]
 8001a5a:	23c0      	movs	r3, #192	; 0xc0
 8001a5c:	00db      	lsls	r3, r3, #3
 8001a5e:	9303      	str	r3, [sp, #12]
 8001a60:	2302      	movs	r3, #2
 8001a62:	9304      	str	r3, [sp, #16]
 8001a64:	3301      	adds	r3, #1
 8001a66:	9306      	str	r3, [sp, #24]
 8001a68:	a903      	add	r1, sp, #12
 8001a6a:	3b02      	subs	r3, #2
 8001a6c:	9307      	str	r3, [sp, #28]
 8001a6e:	f000 fdd5 	bl	800261c <HAL_GPIO_Init>
 8001a72:	2200      	movs	r2, #0
 8001a74:	201b      	movs	r0, #27
 8001a76:	0011      	movs	r1, r2
 8001a78:	f000 fb68 	bl	800214c <HAL_NVIC_SetPriority>
 8001a7c:	201b      	movs	r0, #27
 8001a7e:	f000 fb8f 	bl	80021a0 <HAL_NVIC_EnableIRQ>
 8001a82:	b008      	add	sp, #32
 8001a84:	bd10      	pop	{r4, pc}
 8001a86:	46c0      	nop			; (mov r8, r8)
 8001a88:	40013800 	.word	0x40013800
 8001a8c:	40021000 	.word	0x40021000

08001a90 <NMI_Handler>:
 8001a90:	4770      	bx	lr

08001a92 <HardFault_Handler>:
 8001a92:	e7fe      	b.n	8001a92 <HardFault_Handler>

08001a94 <SVC_Handler>:
 8001a94:	4770      	bx	lr

08001a96 <PendSV_Handler>:
 8001a96:	4770      	bx	lr

08001a98 <SysTick_Handler>:
 8001a98:	b510      	push	{r4, lr}
 8001a9a:	f000 f8a1 	bl	8001be0 <HAL_IncTick>
 8001a9e:	bd10      	pop	{r4, pc}

08001aa0 <EXTI4_15_IRQHandler>:
 8001aa0:	2080      	movs	r0, #128	; 0x80
 8001aa2:	b510      	push	{r4, lr}
 8001aa4:	0140      	lsls	r0, r0, #5
 8001aa6:	f000 fe8f 	bl	80027c8 <HAL_GPIO_EXTI_IRQHandler>
 8001aaa:	2080      	movs	r0, #128	; 0x80
 8001aac:	0180      	lsls	r0, r0, #6
 8001aae:	f000 fe8b 	bl	80027c8 <HAL_GPIO_EXTI_IRQHandler>
 8001ab2:	bd10      	pop	{r4, pc}

08001ab4 <DMA1_Channel1_IRQHandler>:
 8001ab4:	b510      	push	{r4, lr}
 8001ab6:	4802      	ldr	r0, [pc, #8]	; (8001ac0 <DMA1_Channel1_IRQHandler+0xc>)
 8001ab8:	f000 fd63 	bl	8002582 <HAL_DMA_IRQHandler>
 8001abc:	bd10      	pop	{r4, pc}
 8001abe:	46c0      	nop			; (mov r8, r8)
 8001ac0:	200007e8 	.word	0x200007e8

08001ac4 <TIM14_IRQHandler>:
 8001ac4:	b510      	push	{r4, lr}
 8001ac6:	f7ff f8cd 	bl	8000c64 <statusLedController>
 8001aca:	4802      	ldr	r0, [pc, #8]	; (8001ad4 <TIM14_IRQHandler+0x10>)
 8001acc:	f003 f801 	bl	8004ad2 <HAL_TIM_IRQHandler>
 8001ad0:	bd10      	pop	{r4, pc}
 8001ad2:	46c0      	nop			; (mov r8, r8)
 8001ad4:	200007a8 	.word	0x200007a8

08001ad8 <I2C1_IRQHandler>:
 8001ad8:	4806      	ldr	r0, [pc, #24]	; (8001af4 <I2C1_IRQHandler+0x1c>)
 8001ada:	b510      	push	{r4, lr}
 8001adc:	6803      	ldr	r3, [r0, #0]
 8001ade:	699a      	ldr	r2, [r3, #24]
 8001ae0:	23e0      	movs	r3, #224	; 0xe0
 8001ae2:	00db      	lsls	r3, r3, #3
 8001ae4:	421a      	tst	r2, r3
 8001ae6:	d002      	beq.n	8001aee <I2C1_IRQHandler+0x16>
 8001ae8:	f001 fbdc 	bl	80032a4 <HAL_I2C_ER_IRQHandler>
 8001aec:	bd10      	pop	{r4, pc}
 8001aee:	f001 f945 	bl	8002d7c <HAL_I2C_EV_IRQHandler>
 8001af2:	e7fb      	b.n	8001aec <I2C1_IRQHandler+0x14>
 8001af4:	20000548 	.word	0x20000548

08001af8 <USART1_IRQHandler>:
 8001af8:	b510      	push	{r4, lr}
 8001afa:	4c04      	ldr	r4, [pc, #16]	; (8001b0c <USART1_IRQHandler+0x14>)
 8001afc:	0020      	movs	r0, r4
 8001afe:	f7ff fac3 	bl	8001088 <serial_ISR>
 8001b02:	0020      	movs	r0, r4
 8001b04:	f003 f9e2 	bl	8004ecc <HAL_UART_IRQHandler>
 8001b08:	bd10      	pop	{r4, pc}
 8001b0a:	46c0      	nop			; (mov r8, r8)
 8001b0c:	20000624 	.word	0x20000624

08001b10 <USB_IRQHandler>:
 8001b10:	b510      	push	{r4, lr}
 8001b12:	4802      	ldr	r0, [pc, #8]	; (8001b1c <USB_IRQHandler+0xc>)
 8001b14:	f001 fce2 	bl	80034dc <HAL_PCD_IRQHandler>
 8001b18:	bd10      	pop	{r4, pc}
 8001b1a:	46c0      	nop			; (mov r8, r8)
 8001b1c:	20001528 	.word	0x20001528

08001b20 <SystemInit>:
 8001b20:	4770      	bx	lr
	...

08001b24 <Reset_Handler>:
 8001b24:	480d      	ldr	r0, [pc, #52]	; (8001b5c <LoopForever+0x2>)
 8001b26:	4685      	mov	sp, r0
 8001b28:	480d      	ldr	r0, [pc, #52]	; (8001b60 <LoopForever+0x6>)
 8001b2a:	490e      	ldr	r1, [pc, #56]	; (8001b64 <LoopForever+0xa>)
 8001b2c:	4a0e      	ldr	r2, [pc, #56]	; (8001b68 <LoopForever+0xe>)
 8001b2e:	2300      	movs	r3, #0
 8001b30:	e002      	b.n	8001b38 <LoopCopyDataInit>

08001b32 <CopyDataInit>:
 8001b32:	58d4      	ldr	r4, [r2, r3]
 8001b34:	50c4      	str	r4, [r0, r3]
 8001b36:	3304      	adds	r3, #4

08001b38 <LoopCopyDataInit>:
 8001b38:	18c4      	adds	r4, r0, r3
 8001b3a:	428c      	cmp	r4, r1
 8001b3c:	d3f9      	bcc.n	8001b32 <CopyDataInit>
 8001b3e:	4a0b      	ldr	r2, [pc, #44]	; (8001b6c <LoopForever+0x12>)
 8001b40:	4c0b      	ldr	r4, [pc, #44]	; (8001b70 <LoopForever+0x16>)
 8001b42:	2300      	movs	r3, #0
 8001b44:	e001      	b.n	8001b4a <LoopFillZerobss>

08001b46 <FillZerobss>:
 8001b46:	6013      	str	r3, [r2, #0]
 8001b48:	3204      	adds	r2, #4

08001b4a <LoopFillZerobss>:
 8001b4a:	42a2      	cmp	r2, r4
 8001b4c:	d3fb      	bcc.n	8001b46 <FillZerobss>
 8001b4e:	f7ff ffe7 	bl	8001b20 <SystemInit>
 8001b52:	f005 f9e3 	bl	8006f1c <__libc_init_array>
 8001b56:	f7fe feab 	bl	80008b0 <main>

08001b5a <LoopForever>:
 8001b5a:	e7fe      	b.n	8001b5a <LoopForever>
 8001b5c:	20004000 	.word	0x20004000
 8001b60:	20000000 	.word	0x20000000
 8001b64:	2000018c 	.word	0x2000018c
 8001b68:	0800712c 	.word	0x0800712c
 8001b6c:	2000018c 	.word	0x2000018c
 8001b70:	2000181c 	.word	0x2000181c

08001b74 <ADC1_COMP_IRQHandler>:
 8001b74:	e7fe      	b.n	8001b74 <ADC1_COMP_IRQHandler>
	...

08001b78 <HAL_InitTick>:
 8001b78:	b570      	push	{r4, r5, r6, lr}
 8001b7a:	0005      	movs	r5, r0
 8001b7c:	20fa      	movs	r0, #250	; 0xfa
 8001b7e:	4b0d      	ldr	r3, [pc, #52]	; (8001bb4 <HAL_InitTick+0x3c>)
 8001b80:	0080      	lsls	r0, r0, #2
 8001b82:	7819      	ldrb	r1, [r3, #0]
 8001b84:	f7fe fade 	bl	8000144 <__udivsi3>
 8001b88:	4b0b      	ldr	r3, [pc, #44]	; (8001bb8 <HAL_InitTick+0x40>)
 8001b8a:	0001      	movs	r1, r0
 8001b8c:	6818      	ldr	r0, [r3, #0]
 8001b8e:	f7fe fad9 	bl	8000144 <__udivsi3>
 8001b92:	f000 fb11 	bl	80021b8 <HAL_SYSTICK_Config>
 8001b96:	0004      	movs	r4, r0
 8001b98:	2001      	movs	r0, #1
 8001b9a:	2c00      	cmp	r4, #0
 8001b9c:	d109      	bne.n	8001bb2 <HAL_InitTick+0x3a>
 8001b9e:	2d03      	cmp	r5, #3
 8001ba0:	d807      	bhi.n	8001bb2 <HAL_InitTick+0x3a>
 8001ba2:	3802      	subs	r0, #2
 8001ba4:	0022      	movs	r2, r4
 8001ba6:	0029      	movs	r1, r5
 8001ba8:	f000 fad0 	bl	800214c <HAL_NVIC_SetPriority>
 8001bac:	0020      	movs	r0, r4
 8001bae:	4b03      	ldr	r3, [pc, #12]	; (8001bbc <HAL_InitTick+0x44>)
 8001bb0:	601d      	str	r5, [r3, #0]
 8001bb2:	bd70      	pop	{r4, r5, r6, pc}
 8001bb4:	20000014 	.word	0x20000014
 8001bb8:	20000010 	.word	0x20000010
 8001bbc:	20000018 	.word	0x20000018

08001bc0 <HAL_Init>:
 8001bc0:	2310      	movs	r3, #16
 8001bc2:	4a06      	ldr	r2, [pc, #24]	; (8001bdc <HAL_Init+0x1c>)
 8001bc4:	b510      	push	{r4, lr}
 8001bc6:	6811      	ldr	r1, [r2, #0]
 8001bc8:	2000      	movs	r0, #0
 8001bca:	430b      	orrs	r3, r1
 8001bcc:	6013      	str	r3, [r2, #0]
 8001bce:	f7ff ffd3 	bl	8001b78 <HAL_InitTick>
 8001bd2:	f7ff fdaf 	bl	8001734 <HAL_MspInit>
 8001bd6:	2000      	movs	r0, #0
 8001bd8:	bd10      	pop	{r4, pc}
 8001bda:	46c0      	nop			; (mov r8, r8)
 8001bdc:	40022000 	.word	0x40022000

08001be0 <HAL_IncTick>:
 8001be0:	4a03      	ldr	r2, [pc, #12]	; (8001bf0 <HAL_IncTick+0x10>)
 8001be2:	4b04      	ldr	r3, [pc, #16]	; (8001bf4 <HAL_IncTick+0x14>)
 8001be4:	6811      	ldr	r1, [r2, #0]
 8001be6:	781b      	ldrb	r3, [r3, #0]
 8001be8:	185b      	adds	r3, r3, r1
 8001bea:	6013      	str	r3, [r2, #0]
 8001bec:	4770      	bx	lr
 8001bee:	46c0      	nop			; (mov r8, r8)
 8001bf0:	20000890 	.word	0x20000890
 8001bf4:	20000014 	.word	0x20000014

08001bf8 <HAL_GetTick>:
 8001bf8:	4b01      	ldr	r3, [pc, #4]	; (8001c00 <HAL_GetTick+0x8>)
 8001bfa:	6818      	ldr	r0, [r3, #0]
 8001bfc:	4770      	bx	lr
 8001bfe:	46c0      	nop			; (mov r8, r8)
 8001c00:	20000890 	.word	0x20000890

08001c04 <HAL_Delay>:
 8001c04:	b570      	push	{r4, r5, r6, lr}
 8001c06:	0004      	movs	r4, r0
 8001c08:	f7ff fff6 	bl	8001bf8 <HAL_GetTick>
 8001c0c:	0005      	movs	r5, r0
 8001c0e:	1c63      	adds	r3, r4, #1
 8001c10:	d002      	beq.n	8001c18 <HAL_Delay+0x14>
 8001c12:	4b04      	ldr	r3, [pc, #16]	; (8001c24 <HAL_Delay+0x20>)
 8001c14:	781b      	ldrb	r3, [r3, #0]
 8001c16:	18e4      	adds	r4, r4, r3
 8001c18:	f7ff ffee 	bl	8001bf8 <HAL_GetTick>
 8001c1c:	1b40      	subs	r0, r0, r5
 8001c1e:	42a0      	cmp	r0, r4
 8001c20:	d3fa      	bcc.n	8001c18 <HAL_Delay+0x14>
 8001c22:	bd70      	pop	{r4, r5, r6, pc}
 8001c24:	20000014 	.word	0x20000014

08001c28 <ADC_Enable>:
 8001c28:	2300      	movs	r3, #0
 8001c2a:	b573      	push	{r0, r1, r4, r5, r6, lr}
 8001c2c:	2103      	movs	r1, #3
 8001c2e:	9301      	str	r3, [sp, #4]
 8001c30:	6803      	ldr	r3, [r0, #0]
 8001c32:	0004      	movs	r4, r0
 8001c34:	689a      	ldr	r2, [r3, #8]
 8001c36:	400a      	ands	r2, r1
 8001c38:	2a01      	cmp	r2, #1
 8001c3a:	d107      	bne.n	8001c4c <ADC_Enable+0x24>
 8001c3c:	6819      	ldr	r1, [r3, #0]
 8001c3e:	4211      	tst	r1, r2
 8001c40:	d001      	beq.n	8001c46 <ADC_Enable+0x1e>
 8001c42:	2000      	movs	r0, #0
 8001c44:	bd76      	pop	{r1, r2, r4, r5, r6, pc}
 8001c46:	68da      	ldr	r2, [r3, #12]
 8001c48:	0412      	lsls	r2, r2, #16
 8001c4a:	d4fa      	bmi.n	8001c42 <ADC_Enable+0x1a>
 8001c4c:	6899      	ldr	r1, [r3, #8]
 8001c4e:	4a19      	ldr	r2, [pc, #100]	; (8001cb4 <ADC_Enable+0x8c>)
 8001c50:	4211      	tst	r1, r2
 8001c52:	d008      	beq.n	8001c66 <ADC_Enable+0x3e>
 8001c54:	2310      	movs	r3, #16
 8001c56:	2001      	movs	r0, #1
 8001c58:	6ba2      	ldr	r2, [r4, #56]	; 0x38
 8001c5a:	4313      	orrs	r3, r2
 8001c5c:	63a3      	str	r3, [r4, #56]	; 0x38
 8001c5e:	6be3      	ldr	r3, [r4, #60]	; 0x3c
 8001c60:	4303      	orrs	r3, r0
 8001c62:	63e3      	str	r3, [r4, #60]	; 0x3c
 8001c64:	e7ee      	b.n	8001c44 <ADC_Enable+0x1c>
 8001c66:	2201      	movs	r2, #1
 8001c68:	6899      	ldr	r1, [r3, #8]
 8001c6a:	430a      	orrs	r2, r1
 8001c6c:	609a      	str	r2, [r3, #8]
 8001c6e:	4b12      	ldr	r3, [pc, #72]	; (8001cb8 <ADC_Enable+0x90>)
 8001c70:	4912      	ldr	r1, [pc, #72]	; (8001cbc <ADC_Enable+0x94>)
 8001c72:	6818      	ldr	r0, [r3, #0]
 8001c74:	f7fe fa66 	bl	8000144 <__udivsi3>
 8001c78:	9001      	str	r0, [sp, #4]
 8001c7a:	9b01      	ldr	r3, [sp, #4]
 8001c7c:	2b00      	cmp	r3, #0
 8001c7e:	d115      	bne.n	8001cac <ADC_Enable+0x84>
 8001c80:	f7ff ffba 	bl	8001bf8 <HAL_GetTick>
 8001c84:	2501      	movs	r5, #1
 8001c86:	0006      	movs	r6, r0
 8001c88:	6823      	ldr	r3, [r4, #0]
 8001c8a:	681b      	ldr	r3, [r3, #0]
 8001c8c:	422b      	tst	r3, r5
 8001c8e:	d1d8      	bne.n	8001c42 <ADC_Enable+0x1a>
 8001c90:	f7ff ffb2 	bl	8001bf8 <HAL_GetTick>
 8001c94:	1b80      	subs	r0, r0, r6
 8001c96:	2802      	cmp	r0, #2
 8001c98:	d9f6      	bls.n	8001c88 <ADC_Enable+0x60>
 8001c9a:	2310      	movs	r3, #16
 8001c9c:	6ba2      	ldr	r2, [r4, #56]	; 0x38
 8001c9e:	2001      	movs	r0, #1
 8001ca0:	4313      	orrs	r3, r2
 8001ca2:	63a3      	str	r3, [r4, #56]	; 0x38
 8001ca4:	6be3      	ldr	r3, [r4, #60]	; 0x3c
 8001ca6:	432b      	orrs	r3, r5
 8001ca8:	63e3      	str	r3, [r4, #60]	; 0x3c
 8001caa:	e7cb      	b.n	8001c44 <ADC_Enable+0x1c>
 8001cac:	9b01      	ldr	r3, [sp, #4]
 8001cae:	3b01      	subs	r3, #1
 8001cb0:	9301      	str	r3, [sp, #4]
 8001cb2:	e7e2      	b.n	8001c7a <ADC_Enable+0x52>
 8001cb4:	80000017 	.word	0x80000017
 8001cb8:	20000010 	.word	0x20000010
 8001cbc:	000f4240 	.word	0x000f4240

08001cc0 <HAL_ADC_Init>:
 8001cc0:	b5f8      	push	{r3, r4, r5, r6, r7, lr}
 8001cc2:	0004      	movs	r4, r0
 8001cc4:	2001      	movs	r0, #1
 8001cc6:	2c00      	cmp	r4, #0
 8001cc8:	d07e      	beq.n	8001dc8 <HAL_ADC_Init+0x108>
 8001cca:	6ba3      	ldr	r3, [r4, #56]	; 0x38
 8001ccc:	2b00      	cmp	r3, #0
 8001cce:	d106      	bne.n	8001cde <HAL_ADC_Init+0x1e>
 8001cd0:	0022      	movs	r2, r4
 8001cd2:	3234      	adds	r2, #52	; 0x34
 8001cd4:	63e3      	str	r3, [r4, #60]	; 0x3c
 8001cd6:	0020      	movs	r0, r4
 8001cd8:	7013      	strb	r3, [r2, #0]
 8001cda:	f7ff fd43 	bl	8001764 <HAL_ADC_MspInit>
 8001cde:	6ba3      	ldr	r3, [r4, #56]	; 0x38
 8001ce0:	06db      	lsls	r3, r3, #27
 8001ce2:	d500      	bpl.n	8001ce6 <HAL_ADC_Init+0x26>
 8001ce4:	e085      	b.n	8001df2 <HAL_ADC_Init+0x132>
 8001ce6:	2204      	movs	r2, #4
 8001ce8:	6823      	ldr	r3, [r4, #0]
 8001cea:	6898      	ldr	r0, [r3, #8]
 8001cec:	4010      	ands	r0, r2
 8001cee:	d000      	beq.n	8001cf2 <HAL_ADC_Init+0x32>
 8001cf0:	e07f      	b.n	8001df2 <HAL_ADC_Init+0x132>
 8001cf2:	6ba2      	ldr	r2, [r4, #56]	; 0x38
 8001cf4:	4942      	ldr	r1, [pc, #264]	; (8001e00 <HAL_ADC_Init+0x140>)
 8001cf6:	4011      	ands	r1, r2
 8001cf8:	2202      	movs	r2, #2
 8001cfa:	430a      	orrs	r2, r1
 8001cfc:	2103      	movs	r1, #3
 8001cfe:	63a2      	str	r2, [r4, #56]	; 0x38
 8001d00:	689a      	ldr	r2, [r3, #8]
 8001d02:	400a      	ands	r2, r1
 8001d04:	2a01      	cmp	r2, #1
 8001d06:	d105      	bne.n	8001d14 <HAL_ADC_Init+0x54>
 8001d08:	6819      	ldr	r1, [r3, #0]
 8001d0a:	4211      	tst	r1, r2
 8001d0c:	d10e      	bne.n	8001d2c <HAL_ADC_Init+0x6c>
 8001d0e:	68da      	ldr	r2, [r3, #12]
 8001d10:	0412      	lsls	r2, r2, #16
 8001d12:	d40b      	bmi.n	8001d2c <HAL_ADC_Init+0x6c>
 8001d14:	2118      	movs	r1, #24
 8001d16:	68da      	ldr	r2, [r3, #12]
 8001d18:	438a      	bics	r2, r1
 8001d1a:	68a1      	ldr	r1, [r4, #8]
 8001d1c:	430a      	orrs	r2, r1
 8001d1e:	60da      	str	r2, [r3, #12]
 8001d20:	6919      	ldr	r1, [r3, #16]
 8001d22:	6862      	ldr	r2, [r4, #4]
 8001d24:	0089      	lsls	r1, r1, #2
 8001d26:	0889      	lsrs	r1, r1, #2
 8001d28:	4311      	orrs	r1, r2
 8001d2a:	6119      	str	r1, [r3, #16]
 8001d2c:	68da      	ldr	r2, [r3, #12]
 8001d2e:	4935      	ldr	r1, [pc, #212]	; (8001e04 <HAL_ADC_Init+0x144>)
 8001d30:	400a      	ands	r2, r1
 8001d32:	60da      	str	r2, [r3, #12]
 8001d34:	7e25      	ldrb	r5, [r4, #24]
 8001d36:	7e62      	ldrb	r2, [r4, #25]
 8001d38:	03ad      	lsls	r5, r5, #14
 8001d3a:	03d2      	lsls	r2, r2, #15
 8001d3c:	4315      	orrs	r5, r2
 8001d3e:	6aa2      	ldr	r2, [r4, #40]	; 0x28
 8001d40:	7ea1      	ldrb	r1, [r4, #26]
 8001d42:	3a01      	subs	r2, #1
 8001d44:	1e56      	subs	r6, r2, #1
 8001d46:	41b2      	sbcs	r2, r6
 8001d48:	0316      	lsls	r6, r2, #12
 8001d4a:	68e2      	ldr	r2, [r4, #12]
 8001d4c:	034f      	lsls	r7, r1, #13
 8001d4e:	4315      	orrs	r5, r2
 8001d50:	6922      	ldr	r2, [r4, #16]
 8001d52:	432f      	orrs	r7, r5
 8001d54:	2a02      	cmp	r2, #2
 8001d56:	d100      	bne.n	8001d5a <HAL_ADC_Init+0x9a>
 8001d58:	2004      	movs	r0, #4
 8001d5a:	1d62      	adds	r2, r4, #5
 8001d5c:	7fd2      	ldrb	r2, [r2, #31]
 8001d5e:	0052      	lsls	r2, r2, #1
 8001d60:	433a      	orrs	r2, r7
 8001d62:	4332      	orrs	r2, r6
 8001d64:	4302      	orrs	r2, r0
 8001d66:	7ee0      	ldrb	r0, [r4, #27]
 8001d68:	2801      	cmp	r0, #1
 8001d6a:	d104      	bne.n	8001d76 <HAL_ADC_Init+0xb6>
 8001d6c:	2900      	cmp	r1, #0
 8001d6e:	d12c      	bne.n	8001dca <HAL_ADC_Init+0x10a>
 8001d70:	2180      	movs	r1, #128	; 0x80
 8001d72:	0249      	lsls	r1, r1, #9
 8001d74:	430a      	orrs	r2, r1
 8001d76:	20c2      	movs	r0, #194	; 0xc2
 8001d78:	69e1      	ldr	r1, [r4, #28]
 8001d7a:	30ff      	adds	r0, #255	; 0xff
 8001d7c:	4281      	cmp	r1, r0
 8001d7e:	d002      	beq.n	8001d86 <HAL_ADC_Init+0xc6>
 8001d80:	6a20      	ldr	r0, [r4, #32]
 8001d82:	4301      	orrs	r1, r0
 8001d84:	430a      	orrs	r2, r1
 8001d86:	2080      	movs	r0, #128	; 0x80
 8001d88:	68d9      	ldr	r1, [r3, #12]
 8001d8a:	0540      	lsls	r0, r0, #21
 8001d8c:	4311      	orrs	r1, r2
 8001d8e:	60d9      	str	r1, [r3, #12]
 8001d90:	6ae1      	ldr	r1, [r4, #44]	; 0x2c
 8001d92:	4281      	cmp	r1, r0
 8001d94:	d002      	beq.n	8001d9c <HAL_ADC_Init+0xdc>
 8001d96:	1e48      	subs	r0, r1, #1
 8001d98:	2806      	cmp	r0, #6
 8001d9a:	d807      	bhi.n	8001dac <HAL_ADC_Init+0xec>
 8001d9c:	2507      	movs	r5, #7
 8001d9e:	6958      	ldr	r0, [r3, #20]
 8001da0:	4029      	ands	r1, r5
 8001da2:	43a8      	bics	r0, r5
 8001da4:	6158      	str	r0, [r3, #20]
 8001da6:	6958      	ldr	r0, [r3, #20]
 8001da8:	4301      	orrs	r1, r0
 8001daa:	6159      	str	r1, [r3, #20]
 8001dac:	68db      	ldr	r3, [r3, #12]
 8001dae:	4916      	ldr	r1, [pc, #88]	; (8001e08 <HAL_ADC_Init+0x148>)
 8001db0:	400b      	ands	r3, r1
 8001db2:	4293      	cmp	r3, r2
 8001db4:	d111      	bne.n	8001dda <HAL_ADC_Init+0x11a>
 8001db6:	2000      	movs	r0, #0
 8001db8:	2203      	movs	r2, #3
 8001dba:	63e0      	str	r0, [r4, #60]	; 0x3c
 8001dbc:	6ba3      	ldr	r3, [r4, #56]	; 0x38
 8001dbe:	4393      	bics	r3, r2
 8001dc0:	001a      	movs	r2, r3
 8001dc2:	2301      	movs	r3, #1
 8001dc4:	4313      	orrs	r3, r2
 8001dc6:	63a3      	str	r3, [r4, #56]	; 0x38
 8001dc8:	bdf8      	pop	{r3, r4, r5, r6, r7, pc}
 8001dca:	2120      	movs	r1, #32
 8001dcc:	6ba5      	ldr	r5, [r4, #56]	; 0x38
 8001dce:	4329      	orrs	r1, r5
 8001dd0:	63a1      	str	r1, [r4, #56]	; 0x38
 8001dd2:	6be1      	ldr	r1, [r4, #60]	; 0x3c
 8001dd4:	4308      	orrs	r0, r1
 8001dd6:	63e0      	str	r0, [r4, #60]	; 0x3c
 8001dd8:	e7cd      	b.n	8001d76 <HAL_ADC_Init+0xb6>
 8001dda:	2212      	movs	r2, #18
 8001ddc:	6ba3      	ldr	r3, [r4, #56]	; 0x38
 8001dde:	2001      	movs	r0, #1
 8001de0:	4393      	bics	r3, r2
 8001de2:	001a      	movs	r2, r3
 8001de4:	2310      	movs	r3, #16
 8001de6:	4313      	orrs	r3, r2
 8001de8:	63a3      	str	r3, [r4, #56]	; 0x38
 8001dea:	6be3      	ldr	r3, [r4, #60]	; 0x3c
 8001dec:	4303      	orrs	r3, r0
 8001dee:	63e3      	str	r3, [r4, #60]	; 0x3c
 8001df0:	e7ea      	b.n	8001dc8 <HAL_ADC_Init+0x108>
 8001df2:	2310      	movs	r3, #16
 8001df4:	6ba2      	ldr	r2, [r4, #56]	; 0x38
 8001df6:	2001      	movs	r0, #1
 8001df8:	4313      	orrs	r3, r2
 8001dfa:	63a3      	str	r3, [r4, #56]	; 0x38
 8001dfc:	e7e4      	b.n	8001dc8 <HAL_ADC_Init+0x108>
 8001dfe:	46c0      	nop			; (mov r8, r8)
 8001e00:	fffffefd 	.word	0xfffffefd
 8001e04:	fffe0219 	.word	0xfffe0219
 8001e08:	833fffe7 	.word	0x833fffe7

08001e0c <HAL_ADC_Start_DMA>:
 8001e0c:	b5f7      	push	{r0, r1, r2, r4, r5, r6, r7, lr}
 8001e0e:	6803      	ldr	r3, [r0, #0]
 8001e10:	0004      	movs	r4, r0
 8001e12:	689b      	ldr	r3, [r3, #8]
 8001e14:	000f      	movs	r7, r1
 8001e16:	9201      	str	r2, [sp, #4]
 8001e18:	2002      	movs	r0, #2
 8001e1a:	075b      	lsls	r3, r3, #29
 8001e1c:	d430      	bmi.n	8001e80 <HAL_ADC_Start_DMA+0x74>
 8001e1e:	0026      	movs	r6, r4
 8001e20:	3634      	adds	r6, #52	; 0x34
 8001e22:	7833      	ldrb	r3, [r6, #0]
 8001e24:	2b01      	cmp	r3, #1
 8001e26:	d02b      	beq.n	8001e80 <HAL_ADC_Start_DMA+0x74>
 8001e28:	2301      	movs	r3, #1
 8001e2a:	7033      	strb	r3, [r6, #0]
 8001e2c:	7e63      	ldrb	r3, [r4, #25]
 8001e2e:	2b01      	cmp	r3, #1
 8001e30:	d127      	bne.n	8001e82 <HAL_ADC_Start_DMA+0x76>
 8001e32:	6ba3      	ldr	r3, [r4, #56]	; 0x38
 8001e34:	4a16      	ldr	r2, [pc, #88]	; (8001e90 <HAL_ADC_Start_DMA+0x84>)
 8001e36:	2500      	movs	r5, #0
 8001e38:	401a      	ands	r2, r3
 8001e3a:	2380      	movs	r3, #128	; 0x80
 8001e3c:	005b      	lsls	r3, r3, #1
 8001e3e:	4313      	orrs	r3, r2
 8001e40:	63a3      	str	r3, [r4, #56]	; 0x38
 8001e42:	6b20      	ldr	r0, [r4, #48]	; 0x30
 8001e44:	4b13      	ldr	r3, [pc, #76]	; (8001e94 <HAL_ADC_Start_DMA+0x88>)
 8001e46:	63e5      	str	r5, [r4, #60]	; 0x3c
 8001e48:	7035      	strb	r5, [r6, #0]
 8001e4a:	6283      	str	r3, [r0, #40]	; 0x28
 8001e4c:	4b12      	ldr	r3, [pc, #72]	; (8001e98 <HAL_ADC_Start_DMA+0x8c>)
 8001e4e:	6821      	ldr	r1, [r4, #0]
 8001e50:	62c3      	str	r3, [r0, #44]	; 0x2c
 8001e52:	4b12      	ldr	r3, [pc, #72]	; (8001e9c <HAL_ADC_Start_DMA+0x90>)
 8001e54:	6303      	str	r3, [r0, #48]	; 0x30
 8001e56:	231c      	movs	r3, #28
 8001e58:	600b      	str	r3, [r1, #0]
 8001e5a:	684a      	ldr	r2, [r1, #4]
 8001e5c:	3b0c      	subs	r3, #12
 8001e5e:	4313      	orrs	r3, r2
 8001e60:	604b      	str	r3, [r1, #4]
 8001e62:	2301      	movs	r3, #1
 8001e64:	68ca      	ldr	r2, [r1, #12]
 8001e66:	4313      	orrs	r3, r2
 8001e68:	60cb      	str	r3, [r1, #12]
 8001e6a:	003a      	movs	r2, r7
 8001e6c:	3140      	adds	r1, #64	; 0x40
 8001e6e:	9b01      	ldr	r3, [sp, #4]
 8001e70:	f000 fb28 	bl	80024c4 <HAL_DMA_Start_IT>
 8001e74:	2304      	movs	r3, #4
 8001e76:	0028      	movs	r0, r5
 8001e78:	6822      	ldr	r2, [r4, #0]
 8001e7a:	6891      	ldr	r1, [r2, #8]
 8001e7c:	430b      	orrs	r3, r1
 8001e7e:	6093      	str	r3, [r2, #8]
 8001e80:	bdfe      	pop	{r1, r2, r3, r4, r5, r6, r7, pc}
 8001e82:	0020      	movs	r0, r4
 8001e84:	f7ff fed0 	bl	8001c28 <ADC_Enable>
 8001e88:	2800      	cmp	r0, #0
 8001e8a:	d0d2      	beq.n	8001e32 <HAL_ADC_Start_DMA+0x26>
 8001e8c:	e7f8      	b.n	8001e80 <HAL_ADC_Start_DMA+0x74>
 8001e8e:	46c0      	nop			; (mov r8, r8)
 8001e90:	fffff0fe 	.word	0xfffff0fe
 8001e94:	08001ea1 	.word	0x08001ea1
 8001e98:	08001f13 	.word	0x08001f13
 8001e9c:	08001f1f 	.word	0x08001f1f

08001ea0 <ADC_DMAConvCplt>:
 8001ea0:	2250      	movs	r2, #80	; 0x50
 8001ea2:	6a43      	ldr	r3, [r0, #36]	; 0x24
 8001ea4:	b510      	push	{r4, lr}
 8001ea6:	6b99      	ldr	r1, [r3, #56]	; 0x38
 8001ea8:	4211      	tst	r1, r2
 8001eaa:	d12a      	bne.n	8001f02 <ADC_DMAConvCplt+0x62>
 8001eac:	6b99      	ldr	r1, [r3, #56]	; 0x38
 8001eae:	32b1      	adds	r2, #177	; 0xb1
 8001eb0:	32ff      	adds	r2, #255	; 0xff
 8001eb2:	430a      	orrs	r2, r1
 8001eb4:	21c0      	movs	r1, #192	; 0xc0
 8001eb6:	639a      	str	r2, [r3, #56]	; 0x38
 8001eb8:	681a      	ldr	r2, [r3, #0]
 8001eba:	0109      	lsls	r1, r1, #4
 8001ebc:	68d0      	ldr	r0, [r2, #12]
 8001ebe:	4208      	tst	r0, r1
 8001ec0:	d112      	bne.n	8001ee8 <ADC_DMAConvCplt+0x48>
 8001ec2:	7e99      	ldrb	r1, [r3, #26]
 8001ec4:	2900      	cmp	r1, #0
 8001ec6:	d10f      	bne.n	8001ee8 <ADC_DMAConvCplt+0x48>
 8001ec8:	6811      	ldr	r1, [r2, #0]
 8001eca:	0709      	lsls	r1, r1, #28
 8001ecc:	d50c      	bpl.n	8001ee8 <ADC_DMAConvCplt+0x48>
 8001ece:	6891      	ldr	r1, [r2, #8]
 8001ed0:	0749      	lsls	r1, r1, #29
 8001ed2:	d40d      	bmi.n	8001ef0 <ADC_DMAConvCplt+0x50>
 8001ed4:	200c      	movs	r0, #12
 8001ed6:	6851      	ldr	r1, [r2, #4]
 8001ed8:	4381      	bics	r1, r0
 8001eda:	6051      	str	r1, [r2, #4]
 8001edc:	6b9a      	ldr	r2, [r3, #56]	; 0x38
 8001ede:	490b      	ldr	r1, [pc, #44]	; (8001f0c <ADC_DMAConvCplt+0x6c>)
 8001ee0:	4011      	ands	r1, r2
 8001ee2:	2201      	movs	r2, #1
 8001ee4:	430a      	orrs	r2, r1
 8001ee6:	639a      	str	r2, [r3, #56]	; 0x38
 8001ee8:	0018      	movs	r0, r3
 8001eea:	f7fe feab 	bl	8000c44 <HAL_ADC_ConvCpltCallback>
 8001eee:	bd10      	pop	{r4, pc}
 8001ef0:	2220      	movs	r2, #32
 8001ef2:	6b99      	ldr	r1, [r3, #56]	; 0x38
 8001ef4:	430a      	orrs	r2, r1
 8001ef6:	639a      	str	r2, [r3, #56]	; 0x38
 8001ef8:	2201      	movs	r2, #1
 8001efa:	6bd9      	ldr	r1, [r3, #60]	; 0x3c
 8001efc:	430a      	orrs	r2, r1
 8001efe:	63da      	str	r2, [r3, #60]	; 0x3c
 8001f00:	e7f2      	b.n	8001ee8 <ADC_DMAConvCplt+0x48>
 8001f02:	6b1b      	ldr	r3, [r3, #48]	; 0x30
 8001f04:	6b1b      	ldr	r3, [r3, #48]	; 0x30
 8001f06:	4798      	blx	r3
 8001f08:	e7f1      	b.n	8001eee <ADC_DMAConvCplt+0x4e>
 8001f0a:	46c0      	nop			; (mov r8, r8)
 8001f0c:	fffffefe 	.word	0xfffffefe

08001f10 <HAL_ADC_ConvHalfCpltCallback>:
 8001f10:	4770      	bx	lr

08001f12 <ADC_DMAHalfConvCplt>:
 8001f12:	b510      	push	{r4, lr}
 8001f14:	6a40      	ldr	r0, [r0, #36]	; 0x24
 8001f16:	f7ff fffb 	bl	8001f10 <HAL_ADC_ConvHalfCpltCallback>
 8001f1a:	bd10      	pop	{r4, pc}

08001f1c <HAL_ADC_ErrorCallback>:
 8001f1c:	4770      	bx	lr

08001f1e <ADC_DMAError>:
 8001f1e:	2340      	movs	r3, #64	; 0x40
 8001f20:	6a40      	ldr	r0, [r0, #36]	; 0x24
 8001f22:	b510      	push	{r4, lr}
 8001f24:	6b82      	ldr	r2, [r0, #56]	; 0x38
 8001f26:	4313      	orrs	r3, r2
 8001f28:	6383      	str	r3, [r0, #56]	; 0x38
 8001f2a:	2304      	movs	r3, #4
 8001f2c:	6bc2      	ldr	r2, [r0, #60]	; 0x3c
 8001f2e:	4313      	orrs	r3, r2
 8001f30:	63c3      	str	r3, [r0, #60]	; 0x3c
 8001f32:	f7ff fff3 	bl	8001f1c <HAL_ADC_ErrorCallback>
 8001f36:	bd10      	pop	{r4, pc}

08001f38 <HAL_ADC_ConfigChannel>:
 8001f38:	b5f7      	push	{r0, r1, r2, r4, r5, r6, r7, lr}
 8001f3a:	2200      	movs	r2, #0
 8001f3c:	0004      	movs	r4, r0
 8001f3e:	9201      	str	r2, [sp, #4]
 8001f40:	3434      	adds	r4, #52	; 0x34
 8001f42:	7822      	ldrb	r2, [r4, #0]
 8001f44:	0003      	movs	r3, r0
 8001f46:	2002      	movs	r0, #2
 8001f48:	2a01      	cmp	r2, #1
 8001f4a:	d02b      	beq.n	8001fa4 <HAL_ADC_ConfigChannel+0x6c>
 8001f4c:	2201      	movs	r2, #1
 8001f4e:	681d      	ldr	r5, [r3, #0]
 8001f50:	6ade      	ldr	r6, [r3, #44]	; 0x2c
 8001f52:	68a8      	ldr	r0, [r5, #8]
 8001f54:	7022      	strb	r2, [r4, #0]
 8001f56:	0740      	lsls	r0, r0, #29
 8001f58:	d45a      	bmi.n	8002010 <HAL_ADC_ConfigChannel+0xd8>
 8001f5a:	680b      	ldr	r3, [r1, #0]
 8001f5c:	482f      	ldr	r0, [pc, #188]	; (800201c <HAL_ADC_ConfigChannel+0xe4>)
 8001f5e:	001f      	movs	r7, r3
 8001f60:	4684      	mov	ip, r0
 8001f62:	6848      	ldr	r0, [r1, #4]
 8001f64:	409a      	lsls	r2, r3
 8001f66:	3f10      	subs	r7, #16
 8001f68:	4560      	cmp	r0, ip
 8001f6a:	d03b      	beq.n	8001fe4 <HAL_ADC_ConfigChannel+0xac>
 8001f6c:	6aa8      	ldr	r0, [r5, #40]	; 0x28
 8001f6e:	4310      	orrs	r0, r2
 8001f70:	2280      	movs	r2, #128	; 0x80
 8001f72:	62a8      	str	r0, [r5, #40]	; 0x28
 8001f74:	0552      	lsls	r2, r2, #21
 8001f76:	4296      	cmp	r6, r2
 8001f78:	d00f      	beq.n	8001f9a <HAL_ADC_ConfigChannel+0x62>
 8001f7a:	3e01      	subs	r6, #1
 8001f7c:	2e06      	cmp	r6, #6
 8001f7e:	d90c      	bls.n	8001f9a <HAL_ADC_ConfigChannel+0x62>
 8001f80:	688a      	ldr	r2, [r1, #8]
 8001f82:	2107      	movs	r1, #7
 8001f84:	6968      	ldr	r0, [r5, #20]
 8001f86:	4008      	ands	r0, r1
 8001f88:	4282      	cmp	r2, r0
 8001f8a:	d006      	beq.n	8001f9a <HAL_ADC_ConfigChannel+0x62>
 8001f8c:	6968      	ldr	r0, [r5, #20]
 8001f8e:	400a      	ands	r2, r1
 8001f90:	4388      	bics	r0, r1
 8001f92:	6168      	str	r0, [r5, #20]
 8001f94:	6968      	ldr	r0, [r5, #20]
 8001f96:	4302      	orrs	r2, r0
 8001f98:	616a      	str	r2, [r5, #20]
 8001f9a:	2f02      	cmp	r7, #2
 8001f9c:	d903      	bls.n	8001fa6 <HAL_ADC_ConfigChannel+0x6e>
 8001f9e:	2000      	movs	r0, #0
 8001fa0:	2300      	movs	r3, #0
 8001fa2:	7023      	strb	r3, [r4, #0]
 8001fa4:	bdfe      	pop	{r1, r2, r3, r4, r5, r6, r7, pc}
 8001fa6:	4a1e      	ldr	r2, [pc, #120]	; (8002020 <HAL_ADC_ConfigChannel+0xe8>)
 8001fa8:	2080      	movs	r0, #128	; 0x80
 8001faa:	6811      	ldr	r1, [r2, #0]
 8001fac:	2b10      	cmp	r3, #16
 8001fae:	d015      	beq.n	8001fdc <HAL_ADC_ConfigChannel+0xa4>
 8001fb0:	2b11      	cmp	r3, #17
 8001fb2:	d115      	bne.n	8001fe0 <HAL_ADC_ConfigChannel+0xa8>
 8001fb4:	03c0      	lsls	r0, r0, #15
 8001fb6:	4301      	orrs	r1, r0
 8001fb8:	6011      	str	r1, [r2, #0]
 8001fba:	2b10      	cmp	r3, #16
 8001fbc:	d1ef      	bne.n	8001f9e <HAL_ADC_ConfigChannel+0x66>
 8001fbe:	4b19      	ldr	r3, [pc, #100]	; (8002024 <HAL_ADC_ConfigChannel+0xec>)
 8001fc0:	4919      	ldr	r1, [pc, #100]	; (8002028 <HAL_ADC_ConfigChannel+0xf0>)
 8001fc2:	6818      	ldr	r0, [r3, #0]
 8001fc4:	f7fe f8be 	bl	8000144 <__udivsi3>
 8001fc8:	230a      	movs	r3, #10
 8001fca:	4358      	muls	r0, r3
 8001fcc:	9001      	str	r0, [sp, #4]
 8001fce:	9b01      	ldr	r3, [sp, #4]
 8001fd0:	2b00      	cmp	r3, #0
 8001fd2:	d0e4      	beq.n	8001f9e <HAL_ADC_ConfigChannel+0x66>
 8001fd4:	9b01      	ldr	r3, [sp, #4]
 8001fd6:	3b01      	subs	r3, #1
 8001fd8:	9301      	str	r3, [sp, #4]
 8001fda:	e7f8      	b.n	8001fce <HAL_ADC_ConfigChannel+0x96>
 8001fdc:	0400      	lsls	r0, r0, #16
 8001fde:	e7ea      	b.n	8001fb6 <HAL_ADC_ConfigChannel+0x7e>
 8001fe0:	0440      	lsls	r0, r0, #17
 8001fe2:	e7e8      	b.n	8001fb6 <HAL_ADC_ConfigChannel+0x7e>
 8001fe4:	6aa9      	ldr	r1, [r5, #40]	; 0x28
 8001fe6:	4391      	bics	r1, r2
 8001fe8:	62a9      	str	r1, [r5, #40]	; 0x28
 8001fea:	2f02      	cmp	r7, #2
 8001fec:	d8d7      	bhi.n	8001f9e <HAL_ADC_ConfigChannel+0x66>
 8001fee:	4a0c      	ldr	r2, [pc, #48]	; (8002020 <HAL_ADC_ConfigChannel+0xe8>)
 8001ff0:	6811      	ldr	r1, [r2, #0]
 8001ff2:	2b10      	cmp	r3, #16
 8001ff4:	d00a      	beq.n	800200c <HAL_ADC_ConfigChannel+0xd4>
 8001ff6:	3b11      	subs	r3, #17
 8001ff8:	1e58      	subs	r0, r3, #1
 8001ffa:	4183      	sbcs	r3, r0
 8001ffc:	480b      	ldr	r0, [pc, #44]	; (800202c <HAL_ADC_ConfigChannel+0xf4>)
 8001ffe:	425b      	negs	r3, r3
 8002000:	4003      	ands	r3, r0
 8002002:	480b      	ldr	r0, [pc, #44]	; (8002030 <HAL_ADC_ConfigChannel+0xf8>)
 8002004:	181b      	adds	r3, r3, r0
 8002006:	400b      	ands	r3, r1
 8002008:	6013      	str	r3, [r2, #0]
 800200a:	e7c8      	b.n	8001f9e <HAL_ADC_ConfigChannel+0x66>
 800200c:	4b09      	ldr	r3, [pc, #36]	; (8002034 <HAL_ADC_ConfigChannel+0xfc>)
 800200e:	e7fa      	b.n	8002006 <HAL_ADC_ConfigChannel+0xce>
 8002010:	2120      	movs	r1, #32
 8002012:	6b98      	ldr	r0, [r3, #56]	; 0x38
 8002014:	4301      	orrs	r1, r0
 8002016:	6399      	str	r1, [r3, #56]	; 0x38
 8002018:	0010      	movs	r0, r2
 800201a:	e7c1      	b.n	8001fa0 <HAL_ADC_ConfigChannel+0x68>
 800201c:	00001001 	.word	0x00001001
 8002020:	40012708 	.word	0x40012708
 8002024:	20000010 	.word	0x20000010
 8002028:	000f4240 	.word	0x000f4240
 800202c:	ff400000 	.word	0xff400000
 8002030:	ffbfffff 	.word	0xffbfffff
 8002034:	ff7fffff 	.word	0xff7fffff

08002038 <HAL_CAN_Init>:
 8002038:	b5f8      	push	{r3, r4, r5, r6, r7, lr}
 800203a:	0004      	movs	r4, r0
 800203c:	2001      	movs	r0, #1
 800203e:	2c00      	cmp	r4, #0
 8002040:	d064      	beq.n	800210c <HAL_CAN_Init+0xd4>
 8002042:	1825      	adds	r5, r4, r0
 8002044:	7feb      	ldrb	r3, [r5, #31]
 8002046:	2b00      	cmp	r3, #0
 8002048:	d102      	bne.n	8002050 <HAL_CAN_Init+0x18>
 800204a:	0020      	movs	r0, r4
 800204c:	f7ff fbd8 	bl	8001800 <HAL_CAN_MspInit>
 8002050:	2602      	movs	r6, #2
 8002052:	6822      	ldr	r2, [r4, #0]
 8002054:	6813      	ldr	r3, [r2, #0]
 8002056:	43b3      	bics	r3, r6
 8002058:	6013      	str	r3, [r2, #0]
 800205a:	f7ff fdcd 	bl	8001bf8 <HAL_GetTick>
 800205e:	0007      	movs	r7, r0
 8002060:	6823      	ldr	r3, [r4, #0]
 8002062:	685a      	ldr	r2, [r3, #4]
 8002064:	4232      	tst	r2, r6
 8002066:	d144      	bne.n	80020f2 <HAL_CAN_Init+0xba>
 8002068:	2601      	movs	r6, #1
 800206a:	681a      	ldr	r2, [r3, #0]
 800206c:	4332      	orrs	r2, r6
 800206e:	601a      	str	r2, [r3, #0]
 8002070:	f7ff fdc2 	bl	8001bf8 <HAL_GetTick>
 8002074:	0007      	movs	r7, r0
 8002076:	6823      	ldr	r3, [r4, #0]
 8002078:	685a      	ldr	r2, [r3, #4]
 800207a:	4232      	tst	r2, r6
 800207c:	d047      	beq.n	800210e <HAL_CAN_Init+0xd6>
 800207e:	7e21      	ldrb	r1, [r4, #24]
 8002080:	2280      	movs	r2, #128	; 0x80
 8002082:	2901      	cmp	r1, #1
 8002084:	d149      	bne.n	800211a <HAL_CAN_Init+0xe2>
 8002086:	6819      	ldr	r1, [r3, #0]
 8002088:	430a      	orrs	r2, r1
 800208a:	601a      	str	r2, [r3, #0]
 800208c:	7e61      	ldrb	r1, [r4, #25]
 800208e:	2240      	movs	r2, #64	; 0x40
 8002090:	2901      	cmp	r1, #1
 8002092:	d146      	bne.n	8002122 <HAL_CAN_Init+0xea>
 8002094:	6819      	ldr	r1, [r3, #0]
 8002096:	430a      	orrs	r2, r1
 8002098:	601a      	str	r2, [r3, #0]
 800209a:	7ea1      	ldrb	r1, [r4, #26]
 800209c:	2220      	movs	r2, #32
 800209e:	2901      	cmp	r1, #1
 80020a0:	d143      	bne.n	800212a <HAL_CAN_Init+0xf2>
 80020a2:	6819      	ldr	r1, [r3, #0]
 80020a4:	430a      	orrs	r2, r1
 80020a6:	601a      	str	r2, [r3, #0]
 80020a8:	7ee1      	ldrb	r1, [r4, #27]
 80020aa:	2210      	movs	r2, #16
 80020ac:	2901      	cmp	r1, #1
 80020ae:	d140      	bne.n	8002132 <HAL_CAN_Init+0xfa>
 80020b0:	6819      	ldr	r1, [r3, #0]
 80020b2:	4391      	bics	r1, r2
 80020b4:	6019      	str	r1, [r3, #0]
 80020b6:	7f21      	ldrb	r1, [r4, #28]
 80020b8:	2208      	movs	r2, #8
 80020ba:	2901      	cmp	r1, #1
 80020bc:	d13d      	bne.n	800213a <HAL_CAN_Init+0x102>
 80020be:	6819      	ldr	r1, [r3, #0]
 80020c0:	430a      	orrs	r2, r1
 80020c2:	601a      	str	r2, [r3, #0]
 80020c4:	7f61      	ldrb	r1, [r4, #29]
 80020c6:	2204      	movs	r2, #4
 80020c8:	2901      	cmp	r1, #1
 80020ca:	d13a      	bne.n	8002142 <HAL_CAN_Init+0x10a>
 80020cc:	6819      	ldr	r1, [r3, #0]
 80020ce:	430a      	orrs	r2, r1
 80020d0:	601a      	str	r2, [r3, #0]
 80020d2:	68e1      	ldr	r1, [r4, #12]
 80020d4:	68a2      	ldr	r2, [r4, #8]
 80020d6:	2000      	movs	r0, #0
 80020d8:	430a      	orrs	r2, r1
 80020da:	6921      	ldr	r1, [r4, #16]
 80020dc:	430a      	orrs	r2, r1
 80020de:	6961      	ldr	r1, [r4, #20]
 80020e0:	430a      	orrs	r2, r1
 80020e2:	6861      	ldr	r1, [r4, #4]
 80020e4:	3901      	subs	r1, #1
 80020e6:	430a      	orrs	r2, r1
 80020e8:	61da      	str	r2, [r3, #28]
 80020ea:	2301      	movs	r3, #1
 80020ec:	6260      	str	r0, [r4, #36]	; 0x24
 80020ee:	77eb      	strb	r3, [r5, #31]
 80020f0:	e00c      	b.n	800210c <HAL_CAN_Init+0xd4>
 80020f2:	f7ff fd81 	bl	8001bf8 <HAL_GetTick>
 80020f6:	1bc0      	subs	r0, r0, r7
 80020f8:	280a      	cmp	r0, #10
 80020fa:	d9b1      	bls.n	8002060 <HAL_CAN_Init+0x28>
 80020fc:	2380      	movs	r3, #128	; 0x80
 80020fe:	6a62      	ldr	r2, [r4, #36]	; 0x24
 8002100:	029b      	lsls	r3, r3, #10
 8002102:	4313      	orrs	r3, r2
 8002104:	6263      	str	r3, [r4, #36]	; 0x24
 8002106:	2305      	movs	r3, #5
 8002108:	2001      	movs	r0, #1
 800210a:	77eb      	strb	r3, [r5, #31]
 800210c:	bdf8      	pop	{r3, r4, r5, r6, r7, pc}
 800210e:	f7ff fd73 	bl	8001bf8 <HAL_GetTick>
 8002112:	1bc0      	subs	r0, r0, r7
 8002114:	280a      	cmp	r0, #10
 8002116:	d9ae      	bls.n	8002076 <HAL_CAN_Init+0x3e>
 8002118:	e7f0      	b.n	80020fc <HAL_CAN_Init+0xc4>
 800211a:	6819      	ldr	r1, [r3, #0]
 800211c:	4391      	bics	r1, r2
 800211e:	6019      	str	r1, [r3, #0]
 8002120:	e7b4      	b.n	800208c <HAL_CAN_Init+0x54>
 8002122:	6819      	ldr	r1, [r3, #0]
 8002124:	4391      	bics	r1, r2
 8002126:	6019      	str	r1, [r3, #0]
 8002128:	e7b7      	b.n	800209a <HAL_CAN_Init+0x62>
 800212a:	6819      	ldr	r1, [r3, #0]
 800212c:	4391      	bics	r1, r2
 800212e:	6019      	str	r1, [r3, #0]
 8002130:	e7ba      	b.n	80020a8 <HAL_CAN_Init+0x70>
 8002132:	6819      	ldr	r1, [r3, #0]
 8002134:	430a      	orrs	r2, r1
 8002136:	601a      	str	r2, [r3, #0]
 8002138:	e7bd      	b.n	80020b6 <HAL_CAN_Init+0x7e>
 800213a:	6819      	ldr	r1, [r3, #0]
 800213c:	4391      	bics	r1, r2
 800213e:	6019      	str	r1, [r3, #0]
 8002140:	e7c0      	b.n	80020c4 <HAL_CAN_Init+0x8c>
 8002142:	6819      	ldr	r1, [r3, #0]
 8002144:	4391      	bics	r1, r2
 8002146:	6019      	str	r1, [r3, #0]
 8002148:	e7c3      	b.n	80020d2 <HAL_CAN_Init+0x9a>
	...

0800214c <HAL_NVIC_SetPriority>:
 800214c:	b530      	push	{r4, r5, lr}
 800214e:	25ff      	movs	r5, #255	; 0xff
 8002150:	2403      	movs	r4, #3
 8002152:	002a      	movs	r2, r5
 8002154:	b2c3      	uxtb	r3, r0
 8002156:	401c      	ands	r4, r3
 8002158:	00e4      	lsls	r4, r4, #3
 800215a:	40a2      	lsls	r2, r4
 800215c:	0189      	lsls	r1, r1, #6
 800215e:	4029      	ands	r1, r5
 8002160:	43d2      	mvns	r2, r2
 8002162:	40a1      	lsls	r1, r4
 8002164:	2800      	cmp	r0, #0
 8002166:	db0a      	blt.n	800217e <HAL_NVIC_SetPriority+0x32>
 8002168:	24c0      	movs	r4, #192	; 0xc0
 800216a:	4b0b      	ldr	r3, [pc, #44]	; (8002198 <HAL_NVIC_SetPriority+0x4c>)
 800216c:	0880      	lsrs	r0, r0, #2
 800216e:	0080      	lsls	r0, r0, #2
 8002170:	18c0      	adds	r0, r0, r3
 8002172:	00a4      	lsls	r4, r4, #2
 8002174:	5903      	ldr	r3, [r0, r4]
 8002176:	401a      	ands	r2, r3
 8002178:	4311      	orrs	r1, r2
 800217a:	5101      	str	r1, [r0, r4]
 800217c:	bd30      	pop	{r4, r5, pc}
 800217e:	200f      	movs	r0, #15
 8002180:	4003      	ands	r3, r0
 8002182:	3b08      	subs	r3, #8
 8002184:	4805      	ldr	r0, [pc, #20]	; (800219c <HAL_NVIC_SetPriority+0x50>)
 8002186:	089b      	lsrs	r3, r3, #2
 8002188:	009b      	lsls	r3, r3, #2
 800218a:	181b      	adds	r3, r3, r0
 800218c:	69d8      	ldr	r0, [r3, #28]
 800218e:	4002      	ands	r2, r0
 8002190:	4311      	orrs	r1, r2
 8002192:	61d9      	str	r1, [r3, #28]
 8002194:	e7f2      	b.n	800217c <HAL_NVIC_SetPriority+0x30>
 8002196:	46c0      	nop			; (mov r8, r8)
 8002198:	e000e100 	.word	0xe000e100
 800219c:	e000ed00 	.word	0xe000ed00

080021a0 <HAL_NVIC_EnableIRQ>:
 80021a0:	2800      	cmp	r0, #0
 80021a2:	db05      	blt.n	80021b0 <HAL_NVIC_EnableIRQ+0x10>
 80021a4:	231f      	movs	r3, #31
 80021a6:	4018      	ands	r0, r3
 80021a8:	3b1e      	subs	r3, #30
 80021aa:	4083      	lsls	r3, r0
 80021ac:	4a01      	ldr	r2, [pc, #4]	; (80021b4 <HAL_NVIC_EnableIRQ+0x14>)
 80021ae:	6013      	str	r3, [r2, #0]
 80021b0:	4770      	bx	lr
 80021b2:	46c0      	nop			; (mov r8, r8)
 80021b4:	e000e100 	.word	0xe000e100

080021b8 <HAL_SYSTICK_Config>:
 80021b8:	4a09      	ldr	r2, [pc, #36]	; (80021e0 <HAL_SYSTICK_Config+0x28>)
 80021ba:	1e43      	subs	r3, r0, #1
 80021bc:	2001      	movs	r0, #1
 80021be:	4293      	cmp	r3, r2
 80021c0:	d80d      	bhi.n	80021de <HAL_SYSTICK_Config+0x26>
 80021c2:	21c0      	movs	r1, #192	; 0xc0
 80021c4:	4a07      	ldr	r2, [pc, #28]	; (80021e4 <HAL_SYSTICK_Config+0x2c>)
 80021c6:	4808      	ldr	r0, [pc, #32]	; (80021e8 <HAL_SYSTICK_Config+0x30>)
 80021c8:	6053      	str	r3, [r2, #4]
 80021ca:	6a03      	ldr	r3, [r0, #32]
 80021cc:	0609      	lsls	r1, r1, #24
 80021ce:	021b      	lsls	r3, r3, #8
 80021d0:	0a1b      	lsrs	r3, r3, #8
 80021d2:	430b      	orrs	r3, r1
 80021d4:	6203      	str	r3, [r0, #32]
 80021d6:	2000      	movs	r0, #0
 80021d8:	2307      	movs	r3, #7
 80021da:	6090      	str	r0, [r2, #8]
 80021dc:	6013      	str	r3, [r2, #0]
 80021de:	4770      	bx	lr
 80021e0:	00ffffff 	.word	0x00ffffff
 80021e4:	e000e010 	.word	0xe000e010
 80021e8:	e000ed00 	.word	0xe000ed00

080021ec <CRC_Handle_8>:
 80021ec:	b5f7      	push	{r0, r1, r2, r4, r5, r6, r7, lr}
 80021ee:	000e      	movs	r6, r1
 80021f0:	0895      	lsrs	r5, r2, #2
 80021f2:	00ad      	lsls	r5, r5, #2
 80021f4:	186b      	adds	r3, r5, r1
 80021f6:	9301      	str	r3, [sp, #4]
 80021f8:	6803      	ldr	r3, [r0, #0]
 80021fa:	9c01      	ldr	r4, [sp, #4]
 80021fc:	42a6      	cmp	r6, r4
 80021fe:	d107      	bne.n	8002210 <CRC_Handle_8+0x24>
 8002200:	2403      	movs	r4, #3
 8002202:	4022      	ands	r2, r4
 8002204:	d019      	beq.n	800223a <CRC_Handle_8+0x4e>
 8002206:	2a01      	cmp	r2, #1
 8002208:	d10f      	bne.n	800222a <CRC_Handle_8+0x3e>
 800220a:	5d4a      	ldrb	r2, [r1, r5]
 800220c:	701a      	strb	r2, [r3, #0]
 800220e:	e014      	b.n	800223a <CRC_Handle_8+0x4e>
 8002210:	7834      	ldrb	r4, [r6, #0]
 8002212:	7877      	ldrb	r7, [r6, #1]
 8002214:	0624      	lsls	r4, r4, #24
 8002216:	043f      	lsls	r7, r7, #16
 8002218:	433c      	orrs	r4, r7
 800221a:	78f7      	ldrb	r7, [r6, #3]
 800221c:	433c      	orrs	r4, r7
 800221e:	78b7      	ldrb	r7, [r6, #2]
 8002220:	3604      	adds	r6, #4
 8002222:	023f      	lsls	r7, r7, #8
 8002224:	433c      	orrs	r4, r7
 8002226:	601c      	str	r4, [r3, #0]
 8002228:	e7e7      	b.n	80021fa <CRC_Handle_8+0xe>
 800222a:	186c      	adds	r4, r5, r1
 800222c:	5d49      	ldrb	r1, [r1, r5]
 800222e:	0209      	lsls	r1, r1, #8
 8002230:	2a02      	cmp	r2, #2
 8002232:	d105      	bne.n	8002240 <CRC_Handle_8+0x54>
 8002234:	7862      	ldrb	r2, [r4, #1]
 8002236:	430a      	orrs	r2, r1
 8002238:	801a      	strh	r2, [r3, #0]
 800223a:	6803      	ldr	r3, [r0, #0]
 800223c:	6818      	ldr	r0, [r3, #0]
 800223e:	bdfe      	pop	{r1, r2, r3, r4, r5, r6, r7, pc}
 8002240:	7862      	ldrb	r2, [r4, #1]
 8002242:	430a      	orrs	r2, r1
 8002244:	801a      	strh	r2, [r3, #0]
 8002246:	78a2      	ldrb	r2, [r4, #2]
 8002248:	e7e0      	b.n	800220c <CRC_Handle_8+0x20>

0800224a <CRC_Handle_16>:
 800224a:	b5f0      	push	{r4, r5, r6, r7, lr}
 800224c:	000d      	movs	r5, r1
 800224e:	2600      	movs	r6, #0
 8002250:	6800      	ldr	r0, [r0, #0]
 8002252:	0854      	lsrs	r4, r2, #1
 8002254:	42b4      	cmp	r4, r6
 8002256:	d106      	bne.n	8002266 <CRC_Handle_16+0x1c>
 8002258:	07d3      	lsls	r3, r2, #31
 800225a:	d502      	bpl.n	8002262 <CRC_Handle_16+0x18>
 800225c:	00a4      	lsls	r4, r4, #2
 800225e:	5a63      	ldrh	r3, [r4, r1]
 8002260:	8003      	strh	r3, [r0, #0]
 8002262:	6800      	ldr	r0, [r0, #0]
 8002264:	bdf0      	pop	{r4, r5, r6, r7, pc}
 8002266:	882b      	ldrh	r3, [r5, #0]
 8002268:	886f      	ldrh	r7, [r5, #2]
 800226a:	041b      	lsls	r3, r3, #16
 800226c:	433b      	orrs	r3, r7
 800226e:	6003      	str	r3, [r0, #0]
 8002270:	3601      	adds	r6, #1
 8002272:	3504      	adds	r5, #4
 8002274:	e7ee      	b.n	8002254 <CRC_Handle_16+0xa>
	...

08002278 <HAL_CRC_Init>:
 8002278:	b510      	push	{r4, lr}
 800227a:	1e04      	subs	r4, r0, #0
 800227c:	d101      	bne.n	8002282 <HAL_CRC_Init+0xa>
 800227e:	2001      	movs	r0, #1
 8002280:	bd10      	pop	{r4, pc}
 8002282:	7f43      	ldrb	r3, [r0, #29]
 8002284:	b2db      	uxtb	r3, r3
 8002286:	2b00      	cmp	r3, #0
 8002288:	d102      	bne.n	8002290 <HAL_CRC_Init+0x18>
 800228a:	7703      	strb	r3, [r0, #28]
 800228c:	f7ff faec 	bl	8001868 <HAL_CRC_MspInit>
 8002290:	2302      	movs	r3, #2
 8002292:	7763      	strb	r3, [r4, #29]
 8002294:	7923      	ldrb	r3, [r4, #4]
 8002296:	2b00      	cmp	r3, #0
 8002298:	d11c      	bne.n	80022d4 <HAL_CRC_Init+0x5c>
 800229a:	2118      	movs	r1, #24
 800229c:	6823      	ldr	r3, [r4, #0]
 800229e:	4a12      	ldr	r2, [pc, #72]	; (80022e8 <HAL_CRC_Init+0x70>)
 80022a0:	615a      	str	r2, [r3, #20]
 80022a2:	689a      	ldr	r2, [r3, #8]
 80022a4:	438a      	bics	r2, r1
 80022a6:	609a      	str	r2, [r3, #8]
 80022a8:	7962      	ldrb	r2, [r4, #5]
 80022aa:	6823      	ldr	r3, [r4, #0]
 80022ac:	2a00      	cmp	r2, #0
 80022ae:	d119      	bne.n	80022e4 <HAL_CRC_Init+0x6c>
 80022b0:	3a01      	subs	r2, #1
 80022b2:	2160      	movs	r1, #96	; 0x60
 80022b4:	611a      	str	r2, [r3, #16]
 80022b6:	689a      	ldr	r2, [r3, #8]
 80022b8:	2000      	movs	r0, #0
 80022ba:	438a      	bics	r2, r1
 80022bc:	6961      	ldr	r1, [r4, #20]
 80022be:	430a      	orrs	r2, r1
 80022c0:	2180      	movs	r1, #128	; 0x80
 80022c2:	609a      	str	r2, [r3, #8]
 80022c4:	689a      	ldr	r2, [r3, #8]
 80022c6:	438a      	bics	r2, r1
 80022c8:	69a1      	ldr	r1, [r4, #24]
 80022ca:	430a      	orrs	r2, r1
 80022cc:	609a      	str	r2, [r3, #8]
 80022ce:	2301      	movs	r3, #1
 80022d0:	7763      	strb	r3, [r4, #29]
 80022d2:	e7d5      	b.n	8002280 <HAL_CRC_Init+0x8>
 80022d4:	68e2      	ldr	r2, [r4, #12]
 80022d6:	68a1      	ldr	r1, [r4, #8]
 80022d8:	0020      	movs	r0, r4
 80022da:	f000 f82c 	bl	8002336 <HAL_CRCEx_Polynomial_Set>
 80022de:	2800      	cmp	r0, #0
 80022e0:	d0e2      	beq.n	80022a8 <HAL_CRC_Init+0x30>
 80022e2:	e7cc      	b.n	800227e <HAL_CRC_Init+0x6>
 80022e4:	6922      	ldr	r2, [r4, #16]
 80022e6:	e7e4      	b.n	80022b2 <HAL_CRC_Init+0x3a>
 80022e8:	04c11db7 	.word	0x04c11db7

080022ec <HAL_CRC_Calculate>:
 80022ec:	2302      	movs	r3, #2
 80022ee:	b570      	push	{r4, r5, r6, lr}
 80022f0:	7743      	strb	r3, [r0, #29]
 80022f2:	0004      	movs	r4, r0
 80022f4:	6803      	ldr	r3, [r0, #0]
 80022f6:	2001      	movs	r0, #1
 80022f8:	689d      	ldr	r5, [r3, #8]
 80022fa:	4328      	orrs	r0, r5
 80022fc:	6098      	str	r0, [r3, #8]
 80022fe:	6a20      	ldr	r0, [r4, #32]
 8002300:	2802      	cmp	r0, #2
 8002302:	d012      	beq.n	800232a <HAL_CRC_Calculate+0x3e>
 8002304:	2803      	cmp	r0, #3
 8002306:	d005      	beq.n	8002314 <HAL_CRC_Calculate+0x28>
 8002308:	2801      	cmp	r0, #1
 800230a:	d112      	bne.n	8002332 <HAL_CRC_Calculate+0x46>
 800230c:	0020      	movs	r0, r4
 800230e:	f7ff ff6d 	bl	80021ec <CRC_Handle_8>
 8002312:	e004      	b.n	800231e <HAL_CRC_Calculate+0x32>
 8002314:	0092      	lsls	r2, r2, #2
 8002316:	188a      	adds	r2, r1, r2
 8002318:	4291      	cmp	r1, r2
 800231a:	d103      	bne.n	8002324 <HAL_CRC_Calculate+0x38>
 800231c:	6818      	ldr	r0, [r3, #0]
 800231e:	2301      	movs	r3, #1
 8002320:	7763      	strb	r3, [r4, #29]
 8002322:	bd70      	pop	{r4, r5, r6, pc}
 8002324:	c901      	ldmia	r1!, {r0}
 8002326:	6018      	str	r0, [r3, #0]
 8002328:	e7f6      	b.n	8002318 <HAL_CRC_Calculate+0x2c>
 800232a:	0020      	movs	r0, r4
 800232c:	f7ff ff8d 	bl	800224a <CRC_Handle_16>
 8002330:	e7f5      	b.n	800231e <HAL_CRC_Calculate+0x32>
 8002332:	2000      	movs	r0, #0
 8002334:	e7f3      	b.n	800231e <HAL_CRC_Calculate+0x32>

08002336 <HAL_CRCEx_Polynomial_Set>:
 8002336:	b530      	push	{r4, r5, lr}
 8002338:	231f      	movs	r3, #31
 800233a:	0004      	movs	r4, r0
 800233c:	2001      	movs	r0, #1
 800233e:	3b01      	subs	r3, #1
 8002340:	d306      	bcc.n	8002350 <HAL_CRCEx_Polynomial_Set+0x1a>
 8002342:	000d      	movs	r5, r1
 8002344:	40dd      	lsrs	r5, r3
 8002346:	4205      	tst	r5, r0
 8002348:	d0f9      	beq.n	800233e <HAL_CRCEx_Polynomial_Set+0x8>
 800234a:	2a08      	cmp	r2, #8
 800234c:	d018      	beq.n	8002380 <HAL_CRCEx_Polynomial_Set+0x4a>
 800234e:	d803      	bhi.n	8002358 <HAL_CRCEx_Polynomial_Set+0x22>
 8002350:	2a00      	cmp	r2, #0
 8002352:	d00c      	beq.n	800236e <HAL_CRCEx_Polynomial_Set+0x38>
 8002354:	2001      	movs	r0, #1
 8002356:	e006      	b.n	8002366 <HAL_CRCEx_Polynomial_Set+0x30>
 8002358:	2a10      	cmp	r2, #16
 800235a:	d005      	beq.n	8002368 <HAL_CRCEx_Polynomial_Set+0x32>
 800235c:	2a18      	cmp	r2, #24
 800235e:	d1f9      	bne.n	8002354 <HAL_CRCEx_Polynomial_Set+0x1e>
 8002360:	2001      	movs	r0, #1
 8002362:	2b06      	cmp	r3, #6
 8002364:	d903      	bls.n	800236e <HAL_CRCEx_Polynomial_Set+0x38>
 8002366:	bd30      	pop	{r4, r5, pc}
 8002368:	2001      	movs	r0, #1
 800236a:	2b07      	cmp	r3, #7
 800236c:	d8fb      	bhi.n	8002366 <HAL_CRCEx_Polynomial_Set+0x30>
 800236e:	6820      	ldr	r0, [r4, #0]
 8002370:	6141      	str	r1, [r0, #20]
 8002372:	2118      	movs	r1, #24
 8002374:	6883      	ldr	r3, [r0, #8]
 8002376:	438b      	bics	r3, r1
 8002378:	431a      	orrs	r2, r3
 800237a:	6082      	str	r2, [r0, #8]
 800237c:	2000      	movs	r0, #0
 800237e:	e7f2      	b.n	8002366 <HAL_CRCEx_Polynomial_Set+0x30>
 8002380:	2001      	movs	r0, #1
 8002382:	2b0f      	cmp	r3, #15
 8002384:	d9f3      	bls.n	800236e <HAL_CRCEx_Polynomial_Set+0x38>
 8002386:	e7ee      	b.n	8002366 <HAL_CRCEx_Polynomial_Set+0x30>

08002388 <HAL_DAC_Init>:
 8002388:	b510      	push	{r4, lr}
 800238a:	0004      	movs	r4, r0
 800238c:	2001      	movs	r0, #1
 800238e:	2c00      	cmp	r4, #0
 8002390:	d00d      	beq.n	80023ae <HAL_DAC_Init+0x26>
 8002392:	7923      	ldrb	r3, [r4, #4]
 8002394:	b2db      	uxtb	r3, r3
 8002396:	2b00      	cmp	r3, #0
 8002398:	d103      	bne.n	80023a2 <HAL_DAC_Init+0x1a>
 800239a:	7163      	strb	r3, [r4, #5]
 800239c:	0020      	movs	r0, r4
 800239e:	f7ff fa77 	bl	8001890 <HAL_DAC_MspInit>
 80023a2:	2302      	movs	r3, #2
 80023a4:	2000      	movs	r0, #0
 80023a6:	7123      	strb	r3, [r4, #4]
 80023a8:	3b01      	subs	r3, #1
 80023aa:	6120      	str	r0, [r4, #16]
 80023ac:	7123      	strb	r3, [r4, #4]
 80023ae:	bd10      	pop	{r4, pc}

080023b0 <HAL_DAC_SetValue>:
 80023b0:	b513      	push	{r0, r1, r4, lr}
 80023b2:	2400      	movs	r4, #0
 80023b4:	6800      	ldr	r0, [r0, #0]
 80023b6:	9401      	str	r4, [sp, #4]
 80023b8:	9001      	str	r0, [sp, #4]
 80023ba:	42a1      	cmp	r1, r4
 80023bc:	d107      	bne.n	80023ce <HAL_DAC_SetValue+0x1e>
 80023be:	9901      	ldr	r1, [sp, #4]
 80023c0:	3108      	adds	r1, #8
 80023c2:	188a      	adds	r2, r1, r2
 80023c4:	9201      	str	r2, [sp, #4]
 80023c6:	9a01      	ldr	r2, [sp, #4]
 80023c8:	2000      	movs	r0, #0
 80023ca:	6013      	str	r3, [r2, #0]
 80023cc:	bd16      	pop	{r1, r2, r4, pc}
 80023ce:	9901      	ldr	r1, [sp, #4]
 80023d0:	3114      	adds	r1, #20
 80023d2:	e7f6      	b.n	80023c2 <HAL_DAC_SetValue+0x12>

080023d4 <HAL_DAC_ConfigChannel>:
 80023d4:	2302      	movs	r3, #2
 80023d6:	b530      	push	{r4, r5, lr}
 80023d8:	7945      	ldrb	r5, [r0, #5]
 80023da:	0004      	movs	r4, r0
 80023dc:	0018      	movs	r0, r3
 80023de:	2d01      	cmp	r5, #1
 80023e0:	d010      	beq.n	8002404 <HAL_DAC_ConfigChannel+0x30>
 80023e2:	4809      	ldr	r0, [pc, #36]	; (8002408 <HAL_DAC_ConfigChannel+0x34>)
 80023e4:	6825      	ldr	r5, [r4, #0]
 80023e6:	4090      	lsls	r0, r2
 80023e8:	7123      	strb	r3, [r4, #4]
 80023ea:	682b      	ldr	r3, [r5, #0]
 80023ec:	4383      	bics	r3, r0
 80023ee:	0018      	movs	r0, r3
 80023f0:	680b      	ldr	r3, [r1, #0]
 80023f2:	6849      	ldr	r1, [r1, #4]
 80023f4:	430b      	orrs	r3, r1
 80023f6:	4093      	lsls	r3, r2
 80023f8:	4303      	orrs	r3, r0
 80023fa:	602b      	str	r3, [r5, #0]
 80023fc:	2000      	movs	r0, #0
 80023fe:	2301      	movs	r3, #1
 8002400:	7160      	strb	r0, [r4, #5]
 8002402:	7123      	strb	r3, [r4, #4]
 8002404:	bd30      	pop	{r4, r5, pc}
 8002406:	46c0      	nop			; (mov r8, r8)
 8002408:	00000ffe 	.word	0x00000ffe

0800240c <HAL_DAC_Start>:
 800240c:	b570      	push	{r4, r5, r6, lr}
 800240e:	2402      	movs	r4, #2
 8002410:	7943      	ldrb	r3, [r0, #5]
 8002412:	0002      	movs	r2, r0
 8002414:	0020      	movs	r0, r4
 8002416:	2b01      	cmp	r3, #1
 8002418:	d016      	beq.n	8002448 <HAL_DAC_Start+0x3c>
 800241a:	3801      	subs	r0, #1
 800241c:	0005      	movs	r5, r0
 800241e:	408d      	lsls	r5, r1
 8002420:	6813      	ldr	r3, [r2, #0]
 8002422:	7114      	strb	r4, [r2, #4]
 8002424:	681e      	ldr	r6, [r3, #0]
 8002426:	7150      	strb	r0, [r2, #5]
 8002428:	4335      	orrs	r5, r6
 800242a:	601d      	str	r5, [r3, #0]
 800242c:	2900      	cmp	r1, #0
 800242e:	d10c      	bne.n	800244a <HAL_DAC_Start+0x3e>
 8002430:	6819      	ldr	r1, [r3, #0]
 8002432:	343a      	adds	r4, #58	; 0x3a
 8002434:	4021      	ands	r1, r4
 8002436:	42a1      	cmp	r1, r4
 8002438:	d102      	bne.n	8002440 <HAL_DAC_Start+0x34>
 800243a:	6859      	ldr	r1, [r3, #4]
 800243c:	4308      	orrs	r0, r1
 800243e:	6058      	str	r0, [r3, #4]
 8002440:	2301      	movs	r3, #1
 8002442:	2000      	movs	r0, #0
 8002444:	7113      	strb	r3, [r2, #4]
 8002446:	7150      	strb	r0, [r2, #5]
 8002448:	bd70      	pop	{r4, r5, r6, pc}
 800244a:	20f0      	movs	r0, #240	; 0xf0
 800244c:	6819      	ldr	r1, [r3, #0]
 800244e:	0380      	lsls	r0, r0, #14
 8002450:	4001      	ands	r1, r0
 8002452:	4281      	cmp	r1, r0
 8002454:	d1f4      	bne.n	8002440 <HAL_DAC_Start+0x34>
 8002456:	6859      	ldr	r1, [r3, #4]
 8002458:	430c      	orrs	r4, r1
 800245a:	605c      	str	r4, [r3, #4]
 800245c:	e7f0      	b.n	8002440 <HAL_DAC_Start+0x34>
	...

08002460 <HAL_DMA_Init>:
 8002460:	b570      	push	{r4, r5, r6, lr}
 8002462:	0004      	movs	r4, r0
 8002464:	2501      	movs	r5, #1
 8002466:	2800      	cmp	r0, #0
 8002468:	d024      	beq.n	80024b4 <HAL_DMA_Init+0x54>
 800246a:	2302      	movs	r3, #2
 800246c:	1c86      	adds	r6, r0, #2
 800246e:	6800      	ldr	r0, [r0, #0]
 8002470:	77f3      	strb	r3, [r6, #31]
 8002472:	6802      	ldr	r2, [r0, #0]
 8002474:	4b10      	ldr	r3, [pc, #64]	; (80024b8 <HAL_DMA_Init+0x58>)
 8002476:	68a1      	ldr	r1, [r4, #8]
 8002478:	401a      	ands	r2, r3
 800247a:	6863      	ldr	r3, [r4, #4]
 800247c:	430b      	orrs	r3, r1
 800247e:	68e1      	ldr	r1, [r4, #12]
 8002480:	430b      	orrs	r3, r1
 8002482:	6921      	ldr	r1, [r4, #16]
 8002484:	430b      	orrs	r3, r1
 8002486:	6961      	ldr	r1, [r4, #20]
 8002488:	430b      	orrs	r3, r1
 800248a:	69a1      	ldr	r1, [r4, #24]
 800248c:	430b      	orrs	r3, r1
 800248e:	69e1      	ldr	r1, [r4, #28]
 8002490:	430b      	orrs	r3, r1
 8002492:	4313      	orrs	r3, r2
 8002494:	6003      	str	r3, [r0, #0]
 8002496:	4b09      	ldr	r3, [pc, #36]	; (80024bc <HAL_DMA_Init+0x5c>)
 8002498:	2114      	movs	r1, #20
 800249a:	18c0      	adds	r0, r0, r3
 800249c:	f7fd fe52 	bl	8000144 <__udivsi3>
 80024a0:	4b07      	ldr	r3, [pc, #28]	; (80024c0 <HAL_DMA_Init+0x60>)
 80024a2:	0080      	lsls	r0, r0, #2
 80024a4:	63e3      	str	r3, [r4, #60]	; 0x3c
 80024a6:	2300      	movs	r3, #0
 80024a8:	6420      	str	r0, [r4, #64]	; 0x40
 80024aa:	63a3      	str	r3, [r4, #56]	; 0x38
 80024ac:	77f5      	strb	r5, [r6, #31]
 80024ae:	1964      	adds	r4, r4, r5
 80024b0:	001d      	movs	r5, r3
 80024b2:	77e3      	strb	r3, [r4, #31]
 80024b4:	0028      	movs	r0, r5
 80024b6:	bd70      	pop	{r4, r5, r6, pc}
 80024b8:	ffffc00f 	.word	0xffffc00f
 80024bc:	bffdfff8 	.word	0xbffdfff8
 80024c0:	40020000 	.word	0x40020000

080024c4 <HAL_DMA_Start_IT>:
 80024c4:	b5f0      	push	{r4, r5, r6, r7, lr}
 80024c6:	1c44      	adds	r4, r0, #1
 80024c8:	7fe6      	ldrb	r6, [r4, #31]
 80024ca:	0005      	movs	r5, r0
 80024cc:	2002      	movs	r0, #2
 80024ce:	2e01      	cmp	r6, #1
 80024d0:	d027      	beq.n	8002522 <HAL_DMA_Start_IT+0x5e>
 80024d2:	3801      	subs	r0, #1
 80024d4:	77e0      	strb	r0, [r4, #31]
 80024d6:	1ca8      	adds	r0, r5, #2
 80024d8:	7fc6      	ldrb	r6, [r0, #31]
 80024da:	4684      	mov	ip, r0
 80024dc:	b2f6      	uxtb	r6, r6
 80024de:	2002      	movs	r0, #2
 80024e0:	2700      	movs	r7, #0
 80024e2:	2e01      	cmp	r6, #1
 80024e4:	d128      	bne.n	8002538 <HAL_DMA_Start_IT+0x74>
 80024e6:	4664      	mov	r4, ip
 80024e8:	77e0      	strb	r0, [r4, #31]
 80024ea:	682c      	ldr	r4, [r5, #0]
 80024ec:	63af      	str	r7, [r5, #56]	; 0x38
 80024ee:	6820      	ldr	r0, [r4, #0]
 80024f0:	6c2f      	ldr	r7, [r5, #64]	; 0x40
 80024f2:	43b0      	bics	r0, r6
 80024f4:	40be      	lsls	r6, r7
 80024f6:	6020      	str	r0, [r4, #0]
 80024f8:	6be8      	ldr	r0, [r5, #60]	; 0x3c
 80024fa:	6046      	str	r6, [r0, #4]
 80024fc:	6063      	str	r3, [r4, #4]
 80024fe:	686b      	ldr	r3, [r5, #4]
 8002500:	6828      	ldr	r0, [r5, #0]
 8002502:	2b10      	cmp	r3, #16
 8002504:	d10e      	bne.n	8002524 <HAL_DMA_Start_IT+0x60>
 8002506:	60a2      	str	r2, [r4, #8]
 8002508:	60e1      	str	r1, [r4, #12]
 800250a:	6aeb      	ldr	r3, [r5, #44]	; 0x2c
 800250c:	6822      	ldr	r2, [r4, #0]
 800250e:	2b00      	cmp	r3, #0
 8002510:	d00b      	beq.n	800252a <HAL_DMA_Start_IT+0x66>
 8002512:	230e      	movs	r3, #14
 8002514:	4313      	orrs	r3, r2
 8002516:	6023      	str	r3, [r4, #0]
 8002518:	2301      	movs	r3, #1
 800251a:	6802      	ldr	r2, [r0, #0]
 800251c:	4313      	orrs	r3, r2
 800251e:	6003      	str	r3, [r0, #0]
 8002520:	2000      	movs	r0, #0
 8002522:	bdf0      	pop	{r4, r5, r6, r7, pc}
 8002524:	60a1      	str	r1, [r4, #8]
 8002526:	60e2      	str	r2, [r4, #12]
 8002528:	e7ef      	b.n	800250a <HAL_DMA_Start_IT+0x46>
 800252a:	230a      	movs	r3, #10
 800252c:	4313      	orrs	r3, r2
 800252e:	2204      	movs	r2, #4
 8002530:	6023      	str	r3, [r4, #0]
 8002532:	6823      	ldr	r3, [r4, #0]
 8002534:	4393      	bics	r3, r2
 8002536:	e7ee      	b.n	8002516 <HAL_DMA_Start_IT+0x52>
 8002538:	77e7      	strb	r7, [r4, #31]
 800253a:	e7f2      	b.n	8002522 <HAL_DMA_Start_IT+0x5e>

0800253c <HAL_DMA_Abort_IT>:
 800253c:	b570      	push	{r4, r5, r6, lr}
 800253e:	1c84      	adds	r4, r0, #2
 8002540:	7fe3      	ldrb	r3, [r4, #31]
 8002542:	2b02      	cmp	r3, #2
 8002544:	d004      	beq.n	8002550 <HAL_DMA_Abort_IT+0x14>
 8002546:	2304      	movs	r3, #4
 8002548:	6383      	str	r3, [r0, #56]	; 0x38
 800254a:	3b03      	subs	r3, #3
 800254c:	0018      	movs	r0, r3
 800254e:	bd70      	pop	{r4, r5, r6, pc}
 8002550:	210e      	movs	r1, #14
 8002552:	6803      	ldr	r3, [r0, #0]
 8002554:	6c05      	ldr	r5, [r0, #64]	; 0x40
 8002556:	681a      	ldr	r2, [r3, #0]
 8002558:	438a      	bics	r2, r1
 800255a:	601a      	str	r2, [r3, #0]
 800255c:	2201      	movs	r2, #1
 800255e:	6819      	ldr	r1, [r3, #0]
 8002560:	4391      	bics	r1, r2
 8002562:	6019      	str	r1, [r3, #0]
 8002564:	0011      	movs	r1, r2
 8002566:	40a9      	lsls	r1, r5
 8002568:	6bc3      	ldr	r3, [r0, #60]	; 0x3c
 800256a:	6059      	str	r1, [r3, #4]
 800256c:	77e2      	strb	r2, [r4, #31]
 800256e:	2400      	movs	r4, #0
 8002570:	1883      	adds	r3, r0, r2
 8002572:	6b42      	ldr	r2, [r0, #52]	; 0x34
 8002574:	77dc      	strb	r4, [r3, #31]
 8002576:	0013      	movs	r3, r2
 8002578:	42a2      	cmp	r2, r4
 800257a:	d0e7      	beq.n	800254c <HAL_DMA_Abort_IT+0x10>
 800257c:	4790      	blx	r2
 800257e:	0023      	movs	r3, r4
 8002580:	e7e4      	b.n	800254c <HAL_DMA_Abort_IT+0x10>

08002582 <HAL_DMA_IRQHandler>:
 8002582:	b5f8      	push	{r3, r4, r5, r6, r7, lr}
 8002584:	2704      	movs	r7, #4
 8002586:	003e      	movs	r6, r7
 8002588:	6c01      	ldr	r1, [r0, #64]	; 0x40
 800258a:	6bc2      	ldr	r2, [r0, #60]	; 0x3c
 800258c:	408e      	lsls	r6, r1
 800258e:	6815      	ldr	r5, [r2, #0]
 8002590:	6803      	ldr	r3, [r0, #0]
 8002592:	681c      	ldr	r4, [r3, #0]
 8002594:	4235      	tst	r5, r6
 8002596:	d00d      	beq.n	80025b4 <HAL_DMA_IRQHandler+0x32>
 8002598:	423c      	tst	r4, r7
 800259a:	d00b      	beq.n	80025b4 <HAL_DMA_IRQHandler+0x32>
 800259c:	6819      	ldr	r1, [r3, #0]
 800259e:	0689      	lsls	r1, r1, #26
 80025a0:	d402      	bmi.n	80025a8 <HAL_DMA_IRQHandler+0x26>
 80025a2:	6819      	ldr	r1, [r3, #0]
 80025a4:	43b9      	bics	r1, r7
 80025a6:	6019      	str	r1, [r3, #0]
 80025a8:	6ac3      	ldr	r3, [r0, #44]	; 0x2c
 80025aa:	6056      	str	r6, [r2, #4]
 80025ac:	2b00      	cmp	r3, #0
 80025ae:	d019      	beq.n	80025e4 <HAL_DMA_IRQHandler+0x62>
 80025b0:	4798      	blx	r3
 80025b2:	e017      	b.n	80025e4 <HAL_DMA_IRQHandler+0x62>
 80025b4:	2702      	movs	r7, #2
 80025b6:	003e      	movs	r6, r7
 80025b8:	408e      	lsls	r6, r1
 80025ba:	4235      	tst	r5, r6
 80025bc:	d013      	beq.n	80025e6 <HAL_DMA_IRQHandler+0x64>
 80025be:	423c      	tst	r4, r7
 80025c0:	d011      	beq.n	80025e6 <HAL_DMA_IRQHandler+0x64>
 80025c2:	6819      	ldr	r1, [r3, #0]
 80025c4:	0689      	lsls	r1, r1, #26
 80025c6:	d406      	bmi.n	80025d6 <HAL_DMA_IRQHandler+0x54>
 80025c8:	240a      	movs	r4, #10
 80025ca:	6819      	ldr	r1, [r3, #0]
 80025cc:	43a1      	bics	r1, r4
 80025ce:	6019      	str	r1, [r3, #0]
 80025d0:	2101      	movs	r1, #1
 80025d2:	19c3      	adds	r3, r0, r7
 80025d4:	77d9      	strb	r1, [r3, #31]
 80025d6:	6056      	str	r6, [r2, #4]
 80025d8:	2200      	movs	r2, #0
 80025da:	1c43      	adds	r3, r0, #1
 80025dc:	77da      	strb	r2, [r3, #31]
 80025de:	6a83      	ldr	r3, [r0, #40]	; 0x28
 80025e0:	4293      	cmp	r3, r2
 80025e2:	d1e5      	bne.n	80025b0 <HAL_DMA_IRQHandler+0x2e>
 80025e4:	bdf8      	pop	{r3, r4, r5, r6, r7, pc}
 80025e6:	2608      	movs	r6, #8
 80025e8:	0037      	movs	r7, r6
 80025ea:	408f      	lsls	r7, r1
 80025ec:	423d      	tst	r5, r7
 80025ee:	d0f9      	beq.n	80025e4 <HAL_DMA_IRQHandler+0x62>
 80025f0:	4234      	tst	r4, r6
 80025f2:	d0f7      	beq.n	80025e4 <HAL_DMA_IRQHandler+0x62>
 80025f4:	250e      	movs	r5, #14
 80025f6:	681c      	ldr	r4, [r3, #0]
 80025f8:	43ac      	bics	r4, r5
 80025fa:	601c      	str	r4, [r3, #0]
 80025fc:	2301      	movs	r3, #1
 80025fe:	001c      	movs	r4, r3
 8002600:	408c      	lsls	r4, r1
 8002602:	6054      	str	r4, [r2, #4]
 8002604:	1c82      	adds	r2, r0, #2
 8002606:	6383      	str	r3, [r0, #56]	; 0x38
 8002608:	77d3      	strb	r3, [r2, #31]
 800260a:	2200      	movs	r2, #0
 800260c:	18c3      	adds	r3, r0, r3
 800260e:	77da      	strb	r2, [r3, #31]
 8002610:	6b03      	ldr	r3, [r0, #48]	; 0x30
 8002612:	e7e5      	b.n	80025e0 <HAL_DMA_IRQHandler+0x5e>

08002614 <HAL_DMA_GetState>:
 8002614:	3002      	adds	r0, #2
 8002616:	7fc0      	ldrb	r0, [r0, #31]
 8002618:	b2c0      	uxtb	r0, r0
 800261a:	4770      	bx	lr

0800261c <HAL_GPIO_Init>:
 800261c:	b5f0      	push	{r4, r5, r6, r7, lr}
 800261e:	4a59      	ldr	r2, [pc, #356]	; (8002784 <HAL_GPIO_Init+0x168>)
 8002620:	680b      	ldr	r3, [r1, #0]
 8002622:	1882      	adds	r2, r0, r2
 8002624:	1e54      	subs	r4, r2, #1
 8002626:	41a2      	sbcs	r2, r4
 8002628:	b089      	sub	sp, #36	; 0x24
 800262a:	9304      	str	r3, [sp, #16]
 800262c:	2300      	movs	r3, #0
 800262e:	3204      	adds	r2, #4
 8002630:	9205      	str	r2, [sp, #20]
 8002632:	9a04      	ldr	r2, [sp, #16]
 8002634:	40da      	lsrs	r2, r3
 8002636:	d101      	bne.n	800263c <HAL_GPIO_Init+0x20>
 8002638:	b009      	add	sp, #36	; 0x24
 800263a:	bdf0      	pop	{r4, r5, r6, r7, pc}
 800263c:	2701      	movs	r7, #1
 800263e:	003a      	movs	r2, r7
 8002640:	409a      	lsls	r2, r3
 8002642:	9203      	str	r2, [sp, #12]
 8002644:	9c03      	ldr	r4, [sp, #12]
 8002646:	9a04      	ldr	r2, [sp, #16]
 8002648:	4022      	ands	r2, r4
 800264a:	9202      	str	r2, [sp, #8]
 800264c:	d100      	bne.n	8002650 <HAL_GPIO_Init+0x34>
 800264e:	e096      	b.n	800277e <HAL_GPIO_Init+0x162>
 8002650:	684a      	ldr	r2, [r1, #4]
 8002652:	005c      	lsls	r4, r3, #1
 8002654:	9201      	str	r2, [sp, #4]
 8002656:	2210      	movs	r2, #16
 8002658:	9e01      	ldr	r6, [sp, #4]
 800265a:	4396      	bics	r6, r2
 800265c:	3a0d      	subs	r2, #13
 800265e:	40a2      	lsls	r2, r4
 8002660:	43d2      	mvns	r2, r2
 8002662:	4694      	mov	ip, r2
 8002664:	1e72      	subs	r2, r6, #1
 8002666:	42ba      	cmp	r2, r7
 8002668:	d80f      	bhi.n	800268a <HAL_GPIO_Init+0x6e>
 800266a:	4662      	mov	r2, ip
 800266c:	6885      	ldr	r5, [r0, #8]
 800266e:	4015      	ands	r5, r2
 8002670:	68ca      	ldr	r2, [r1, #12]
 8002672:	40a2      	lsls	r2, r4
 8002674:	432a      	orrs	r2, r5
 8002676:	6082      	str	r2, [r0, #8]
 8002678:	6845      	ldr	r5, [r0, #4]
 800267a:	9a03      	ldr	r2, [sp, #12]
 800267c:	4395      	bics	r5, r2
 800267e:	9a01      	ldr	r2, [sp, #4]
 8002680:	0912      	lsrs	r2, r2, #4
 8002682:	403a      	ands	r2, r7
 8002684:	409a      	lsls	r2, r3
 8002686:	432a      	orrs	r2, r5
 8002688:	6042      	str	r2, [r0, #4]
 800268a:	4662      	mov	r2, ip
 800268c:	68c5      	ldr	r5, [r0, #12]
 800268e:	4015      	ands	r5, r2
 8002690:	688a      	ldr	r2, [r1, #8]
 8002692:	40a2      	lsls	r2, r4
 8002694:	432a      	orrs	r2, r5
 8002696:	60c2      	str	r2, [r0, #12]
 8002698:	2e02      	cmp	r6, #2
 800269a:	d10d      	bne.n	80026b8 <HAL_GPIO_Init+0x9c>
 800269c:	2507      	movs	r5, #7
 800269e:	270f      	movs	r7, #15
 80026a0:	401d      	ands	r5, r3
 80026a2:	00ad      	lsls	r5, r5, #2
 80026a4:	40af      	lsls	r7, r5
 80026a6:	08da      	lsrs	r2, r3, #3
 80026a8:	0092      	lsls	r2, r2, #2
 80026aa:	1882      	adds	r2, r0, r2
 80026ac:	6a16      	ldr	r6, [r2, #32]
 80026ae:	43be      	bics	r6, r7
 80026b0:	690f      	ldr	r7, [r1, #16]
 80026b2:	40af      	lsls	r7, r5
 80026b4:	433e      	orrs	r6, r7
 80026b6:	6216      	str	r6, [r2, #32]
 80026b8:	4662      	mov	r2, ip
 80026ba:	2603      	movs	r6, #3
 80026bc:	6805      	ldr	r5, [r0, #0]
 80026be:	402a      	ands	r2, r5
 80026c0:	0015      	movs	r5, r2
 80026c2:	9a01      	ldr	r2, [sp, #4]
 80026c4:	4032      	ands	r2, r6
 80026c6:	40a2      	lsls	r2, r4
 80026c8:	432a      	orrs	r2, r5
 80026ca:	6002      	str	r2, [r0, #0]
 80026cc:	9a01      	ldr	r2, [sp, #4]
 80026ce:	00d2      	lsls	r2, r2, #3
 80026d0:	d555      	bpl.n	800277e <HAL_GPIO_Init+0x162>
 80026d2:	2701      	movs	r7, #1
 80026d4:	4a2c      	ldr	r2, [pc, #176]	; (8002788 <HAL_GPIO_Init+0x16c>)
 80026d6:	001d      	movs	r5, r3
 80026d8:	6994      	ldr	r4, [r2, #24]
 80026da:	4035      	ands	r5, r6
 80026dc:	433c      	orrs	r4, r7
 80026de:	6194      	str	r4, [r2, #24]
 80026e0:	6992      	ldr	r2, [r2, #24]
 80026e2:	089c      	lsrs	r4, r3, #2
 80026e4:	403a      	ands	r2, r7
 80026e6:	9207      	str	r2, [sp, #28]
 80026e8:	9a07      	ldr	r2, [sp, #28]
 80026ea:	4a28      	ldr	r2, [pc, #160]	; (800278c <HAL_GPIO_Init+0x170>)
 80026ec:	00a4      	lsls	r4, r4, #2
 80026ee:	18a2      	adds	r2, r4, r2
 80026f0:	9203      	str	r2, [sp, #12]
 80026f2:	6892      	ldr	r2, [r2, #8]
 80026f4:	00ad      	lsls	r5, r5, #2
 80026f6:	4694      	mov	ip, r2
 80026f8:	220f      	movs	r2, #15
 80026fa:	4664      	mov	r4, ip
 80026fc:	40aa      	lsls	r2, r5
 80026fe:	4394      	bics	r4, r2
 8002700:	2290      	movs	r2, #144	; 0x90
 8002702:	05d2      	lsls	r2, r2, #23
 8002704:	4694      	mov	ip, r2
 8002706:	2200      	movs	r2, #0
 8002708:	4560      	cmp	r0, ip
 800270a:	d00d      	beq.n	8002728 <HAL_GPIO_Init+0x10c>
 800270c:	4a20      	ldr	r2, [pc, #128]	; (8002790 <HAL_GPIO_Init+0x174>)
 800270e:	4694      	mov	ip, r2
 8002710:	003a      	movs	r2, r7
 8002712:	4560      	cmp	r0, ip
 8002714:	d008      	beq.n	8002728 <HAL_GPIO_Init+0x10c>
 8002716:	4f1f      	ldr	r7, [pc, #124]	; (8002794 <HAL_GPIO_Init+0x178>)
 8002718:	1892      	adds	r2, r2, r2
 800271a:	42b8      	cmp	r0, r7
 800271c:	d004      	beq.n	8002728 <HAL_GPIO_Init+0x10c>
 800271e:	4f1e      	ldr	r7, [pc, #120]	; (8002798 <HAL_GPIO_Init+0x17c>)
 8002720:	0032      	movs	r2, r6
 8002722:	42b8      	cmp	r0, r7
 8002724:	d000      	beq.n	8002728 <HAL_GPIO_Init+0x10c>
 8002726:	9a05      	ldr	r2, [sp, #20]
 8002728:	40aa      	lsls	r2, r5
 800272a:	4322      	orrs	r2, r4
 800272c:	9c03      	ldr	r4, [sp, #12]
 800272e:	9d02      	ldr	r5, [sp, #8]
 8002730:	60a2      	str	r2, [r4, #8]
 8002732:	4a1a      	ldr	r2, [pc, #104]	; (800279c <HAL_GPIO_Init+0x180>)
 8002734:	9c02      	ldr	r4, [sp, #8]
 8002736:	6816      	ldr	r6, [r2, #0]
 8002738:	9f01      	ldr	r7, [sp, #4]
 800273a:	43e4      	mvns	r4, r4
 800273c:	4335      	orrs	r5, r6
 800273e:	03ff      	lsls	r7, r7, #15
 8002740:	d401      	bmi.n	8002746 <HAL_GPIO_Init+0x12a>
 8002742:	0035      	movs	r5, r6
 8002744:	4025      	ands	r5, r4
 8002746:	6015      	str	r5, [r2, #0]
 8002748:	6856      	ldr	r6, [r2, #4]
 800274a:	9d02      	ldr	r5, [sp, #8]
 800274c:	9f01      	ldr	r7, [sp, #4]
 800274e:	4335      	orrs	r5, r6
 8002750:	03bf      	lsls	r7, r7, #14
 8002752:	d401      	bmi.n	8002758 <HAL_GPIO_Init+0x13c>
 8002754:	0035      	movs	r5, r6
 8002756:	4025      	ands	r5, r4
 8002758:	6055      	str	r5, [r2, #4]
 800275a:	6896      	ldr	r6, [r2, #8]
 800275c:	9d02      	ldr	r5, [sp, #8]
 800275e:	9f01      	ldr	r7, [sp, #4]
 8002760:	4335      	orrs	r5, r6
 8002762:	02ff      	lsls	r7, r7, #11
 8002764:	d401      	bmi.n	800276a <HAL_GPIO_Init+0x14e>
 8002766:	0035      	movs	r5, r6
 8002768:	4025      	ands	r5, r4
 800276a:	6095      	str	r5, [r2, #8]
 800276c:	68d5      	ldr	r5, [r2, #12]
 800276e:	9e02      	ldr	r6, [sp, #8]
 8002770:	9f01      	ldr	r7, [sp, #4]
 8002772:	432e      	orrs	r6, r5
 8002774:	02bf      	lsls	r7, r7, #10
 8002776:	d401      	bmi.n	800277c <HAL_GPIO_Init+0x160>
 8002778:	4025      	ands	r5, r4
 800277a:	002e      	movs	r6, r5
 800277c:	60d6      	str	r6, [r2, #12]
 800277e:	3301      	adds	r3, #1
 8002780:	e757      	b.n	8002632 <HAL_GPIO_Init+0x16>
 8002782:	46c0      	nop			; (mov r8, r8)
 8002784:	b7fff000 	.word	0xb7fff000
 8002788:	40021000 	.word	0x40021000
 800278c:	40010000 	.word	0x40010000
 8002790:	48000400 	.word	0x48000400
 8002794:	48000800 	.word	0x48000800
 8002798:	48000c00 	.word	0x48000c00
 800279c:	40010400 	.word	0x40010400

080027a0 <HAL_GPIO_ReadPin>:
 80027a0:	6900      	ldr	r0, [r0, #16]
 80027a2:	4008      	ands	r0, r1
 80027a4:	1e41      	subs	r1, r0, #1
 80027a6:	4188      	sbcs	r0, r1
 80027a8:	b2c0      	uxtb	r0, r0
 80027aa:	4770      	bx	lr

080027ac <HAL_GPIO_WritePin>:
 80027ac:	2a00      	cmp	r2, #0
 80027ae:	d001      	beq.n	80027b4 <HAL_GPIO_WritePin+0x8>
 80027b0:	6181      	str	r1, [r0, #24]
 80027b2:	4770      	bx	lr
 80027b4:	6281      	str	r1, [r0, #40]	; 0x28
 80027b6:	e7fc      	b.n	80027b2 <HAL_GPIO_WritePin+0x6>

080027b8 <HAL_GPIO_TogglePin>:
 80027b8:	6942      	ldr	r2, [r0, #20]
 80027ba:	0013      	movs	r3, r2
 80027bc:	400b      	ands	r3, r1
 80027be:	041b      	lsls	r3, r3, #16
 80027c0:	4391      	bics	r1, r2
 80027c2:	4319      	orrs	r1, r3
 80027c4:	6181      	str	r1, [r0, #24]
 80027c6:	4770      	bx	lr

080027c8 <HAL_GPIO_EXTI_IRQHandler>:
 80027c8:	4b04      	ldr	r3, [pc, #16]	; (80027dc <HAL_GPIO_EXTI_IRQHandler+0x14>)
 80027ca:	b510      	push	{r4, lr}
 80027cc:	695a      	ldr	r2, [r3, #20]
 80027ce:	4210      	tst	r0, r2
 80027d0:	d002      	beq.n	80027d8 <HAL_GPIO_EXTI_IRQHandler+0x10>
 80027d2:	6158      	str	r0, [r3, #20]
 80027d4:	f7fe fa28 	bl	8000c28 <HAL_GPIO_EXTI_Callback>
 80027d8:	bd10      	pop	{r4, pc}
 80027da:	46c0      	nop			; (mov r8, r8)
 80027dc:	40010400 	.word	0x40010400

080027e0 <I2C_Flush_TXDR>:
 80027e0:	6803      	ldr	r3, [r0, #0]
 80027e2:	699a      	ldr	r2, [r3, #24]
 80027e4:	0792      	lsls	r2, r2, #30
 80027e6:	d501      	bpl.n	80027ec <I2C_Flush_TXDR+0xc>
 80027e8:	2200      	movs	r2, #0
 80027ea:	629a      	str	r2, [r3, #40]	; 0x28
 80027ec:	2201      	movs	r2, #1
 80027ee:	6999      	ldr	r1, [r3, #24]
 80027f0:	4211      	tst	r1, r2
 80027f2:	d102      	bne.n	80027fa <I2C_Flush_TXDR+0x1a>
 80027f4:	6999      	ldr	r1, [r3, #24]
 80027f6:	430a      	orrs	r2, r1
 80027f8:	619a      	str	r2, [r3, #24]
 80027fa:	4770      	bx	lr

080027fc <I2C_Disable_IRQ>:
 80027fc:	b510      	push	{r4, lr}
 80027fe:	2300      	movs	r3, #0
 8002800:	07ca      	lsls	r2, r1, #31
 8002802:	d508      	bpl.n	8002816 <I2C_Disable_IRQ+0x1a>
 8002804:	0003      	movs	r3, r0
 8002806:	3341      	adds	r3, #65	; 0x41
 8002808:	781a      	ldrb	r2, [r3, #0]
 800280a:	2328      	movs	r3, #40	; 0x28
 800280c:	401a      	ands	r2, r3
 800280e:	331a      	adds	r3, #26
 8002810:	2a28      	cmp	r2, #40	; 0x28
 8002812:	d000      	beq.n	8002816 <I2C_Disable_IRQ+0x1a>
 8002814:	33b0      	adds	r3, #176	; 0xb0
 8002816:	078a      	lsls	r2, r1, #30
 8002818:	d508      	bpl.n	800282c <I2C_Disable_IRQ+0x30>
 800281a:	0002      	movs	r2, r0
 800281c:	2428      	movs	r4, #40	; 0x28
 800281e:	3241      	adds	r2, #65	; 0x41
 8002820:	7812      	ldrb	r2, [r2, #0]
 8002822:	4022      	ands	r2, r4
 8002824:	42a2      	cmp	r2, r4
 8002826:	d10b      	bne.n	8002840 <I2C_Disable_IRQ+0x44>
 8002828:	2244      	movs	r2, #68	; 0x44
 800282a:	4313      	orrs	r3, r2
 800282c:	b209      	sxth	r1, r1
 800282e:	2900      	cmp	r1, #0
 8002830:	da01      	bge.n	8002836 <I2C_Disable_IRQ+0x3a>
 8002832:	22b8      	movs	r2, #184	; 0xb8
 8002834:	4313      	orrs	r3, r2
 8002836:	6801      	ldr	r1, [r0, #0]
 8002838:	680a      	ldr	r2, [r1, #0]
 800283a:	439a      	bics	r2, r3
 800283c:	600a      	str	r2, [r1, #0]
 800283e:	bd10      	pop	{r4, pc}
 8002840:	22f4      	movs	r2, #244	; 0xf4
 8002842:	e7f2      	b.n	800282a <I2C_Disable_IRQ+0x2e>

08002844 <I2C_IsAcknowledgeFailed>:
 8002844:	b5f8      	push	{r3, r4, r5, r6, r7, lr}
 8002846:	6803      	ldr	r3, [r0, #0]
 8002848:	0004      	movs	r4, r0
 800284a:	6998      	ldr	r0, [r3, #24]
 800284c:	2310      	movs	r3, #16
 800284e:	000e      	movs	r6, r1
 8002850:	0017      	movs	r7, r2
 8002852:	4018      	ands	r0, r3
 8002854:	2520      	movs	r5, #32
 8002856:	2800      	cmp	r0, #0
 8002858:	d118      	bne.n	800288c <I2C_IsAcknowledgeFailed+0x48>
 800285a:	bdf8      	pop	{r3, r4, r5, r6, r7, pc}
 800285c:	1c72      	adds	r2, r6, #1
 800285e:	d016      	beq.n	800288e <I2C_IsAcknowledgeFailed+0x4a>
 8002860:	f7ff f9ca 	bl	8001bf8 <HAL_GetTick>
 8002864:	1bc0      	subs	r0, r0, r7
 8002866:	42b0      	cmp	r0, r6
 8002868:	d801      	bhi.n	800286e <I2C_IsAcknowledgeFailed+0x2a>
 800286a:	2e00      	cmp	r6, #0
 800286c:	d10e      	bne.n	800288c <I2C_IsAcknowledgeFailed+0x48>
 800286e:	2220      	movs	r2, #32
 8002870:	6c63      	ldr	r3, [r4, #68]	; 0x44
 8002872:	4313      	orrs	r3, r2
 8002874:	6463      	str	r3, [r4, #68]	; 0x44
 8002876:	0023      	movs	r3, r4
 8002878:	3341      	adds	r3, #65	; 0x41
 800287a:	701a      	strb	r2, [r3, #0]
 800287c:	0022      	movs	r2, r4
 800287e:	2300      	movs	r3, #0
 8002880:	3242      	adds	r2, #66	; 0x42
 8002882:	3440      	adds	r4, #64	; 0x40
 8002884:	7013      	strb	r3, [r2, #0]
 8002886:	2001      	movs	r0, #1
 8002888:	7023      	strb	r3, [r4, #0]
 800288a:	e7e6      	b.n	800285a <I2C_IsAcknowledgeFailed+0x16>
 800288c:	6823      	ldr	r3, [r4, #0]
 800288e:	699a      	ldr	r2, [r3, #24]
 8002890:	422a      	tst	r2, r5
 8002892:	d0e3      	beq.n	800285c <I2C_IsAcknowledgeFailed+0x18>
 8002894:	2210      	movs	r2, #16
 8002896:	0020      	movs	r0, r4
 8002898:	61da      	str	r2, [r3, #28]
 800289a:	61dd      	str	r5, [r3, #28]
 800289c:	f7ff ffa0 	bl	80027e0 <I2C_Flush_TXDR>
 80028a0:	6822      	ldr	r2, [r4, #0]
 80028a2:	4906      	ldr	r1, [pc, #24]	; (80028bc <I2C_IsAcknowledgeFailed+0x78>)
 80028a4:	6853      	ldr	r3, [r2, #4]
 80028a6:	400b      	ands	r3, r1
 80028a8:	6053      	str	r3, [r2, #4]
 80028aa:	2304      	movs	r3, #4
 80028ac:	6c62      	ldr	r2, [r4, #68]	; 0x44
 80028ae:	4313      	orrs	r3, r2
 80028b0:	6463      	str	r3, [r4, #68]	; 0x44
 80028b2:	0023      	movs	r3, r4
 80028b4:	3341      	adds	r3, #65	; 0x41
 80028b6:	701d      	strb	r5, [r3, #0]
 80028b8:	e7e0      	b.n	800287c <I2C_IsAcknowledgeFailed+0x38>
 80028ba:	46c0      	nop			; (mov r8, r8)
 80028bc:	fe00e800 	.word	0xfe00e800

080028c0 <I2C_WaitOnRXNEFlagUntilTimeout>:
 80028c0:	b5f8      	push	{r3, r4, r5, r6, r7, lr}
 80028c2:	0004      	movs	r4, r0
 80028c4:	000d      	movs	r5, r1
 80028c6:	0017      	movs	r7, r2
 80028c8:	2604      	movs	r6, #4
 80028ca:	6823      	ldr	r3, [r4, #0]
 80028cc:	699b      	ldr	r3, [r3, #24]
 80028ce:	4233      	tst	r3, r6
 80028d0:	d111      	bne.n	80028f6 <I2C_WaitOnRXNEFlagUntilTimeout+0x36>
 80028d2:	003a      	movs	r2, r7
 80028d4:	0029      	movs	r1, r5
 80028d6:	0020      	movs	r0, r4
 80028d8:	f7ff ffb4 	bl	8002844 <I2C_IsAcknowledgeFailed>
 80028dc:	2800      	cmp	r0, #0
 80028de:	d11a      	bne.n	8002916 <I2C_WaitOnRXNEFlagUntilTimeout+0x56>
 80028e0:	2120      	movs	r1, #32
 80028e2:	6823      	ldr	r3, [r4, #0]
 80028e4:	699a      	ldr	r2, [r3, #24]
 80028e6:	420a      	tst	r2, r1
 80028e8:	d017      	beq.n	800291a <I2C_WaitOnRXNEFlagUntilTimeout+0x5a>
 80028ea:	699a      	ldr	r2, [r3, #24]
 80028ec:	4232      	tst	r2, r6
 80028ee:	d004      	beq.n	80028fa <I2C_WaitOnRXNEFlagUntilTimeout+0x3a>
 80028f0:	8d22      	ldrh	r2, [r4, #40]	; 0x28
 80028f2:	2a00      	cmp	r2, #0
 80028f4:	d001      	beq.n	80028fa <I2C_WaitOnRXNEFlagUntilTimeout+0x3a>
 80028f6:	2000      	movs	r0, #0
 80028f8:	bdf8      	pop	{r3, r4, r5, r6, r7, pc}
 80028fa:	2120      	movs	r1, #32
 80028fc:	61d9      	str	r1, [r3, #28]
 80028fe:	685a      	ldr	r2, [r3, #4]
 8002900:	480e      	ldr	r0, [pc, #56]	; (800293c <I2C_WaitOnRXNEFlagUntilTimeout+0x7c>)
 8002902:	4002      	ands	r2, r0
 8002904:	605a      	str	r2, [r3, #4]
 8002906:	0022      	movs	r2, r4
 8002908:	2300      	movs	r3, #0
 800290a:	3241      	adds	r2, #65	; 0x41
 800290c:	6463      	str	r3, [r4, #68]	; 0x44
 800290e:	7011      	strb	r1, [r2, #0]
 8002910:	3440      	adds	r4, #64	; 0x40
 8002912:	7053      	strb	r3, [r2, #1]
 8002914:	7023      	strb	r3, [r4, #0]
 8002916:	2001      	movs	r0, #1
 8002918:	e7ee      	b.n	80028f8 <I2C_WaitOnRXNEFlagUntilTimeout+0x38>
 800291a:	f7ff f96d 	bl	8001bf8 <HAL_GetTick>
 800291e:	1bc0      	subs	r0, r0, r7
 8002920:	42a8      	cmp	r0, r5
 8002922:	d801      	bhi.n	8002928 <I2C_WaitOnRXNEFlagUntilTimeout+0x68>
 8002924:	2d00      	cmp	r5, #0
 8002926:	d1d0      	bne.n	80028ca <I2C_WaitOnRXNEFlagUntilTimeout+0xa>
 8002928:	2220      	movs	r2, #32
 800292a:	6c63      	ldr	r3, [r4, #68]	; 0x44
 800292c:	4313      	orrs	r3, r2
 800292e:	6463      	str	r3, [r4, #68]	; 0x44
 8002930:	0023      	movs	r3, r4
 8002932:	3341      	adds	r3, #65	; 0x41
 8002934:	701a      	strb	r2, [r3, #0]
 8002936:	3440      	adds	r4, #64	; 0x40
 8002938:	2300      	movs	r3, #0
 800293a:	e7eb      	b.n	8002914 <I2C_WaitOnRXNEFlagUntilTimeout+0x54>
 800293c:	fe00e800 	.word	0xfe00e800

08002940 <I2C_WaitOnSTOPFlagUntilTimeout>:
 8002940:	b5f8      	push	{r3, r4, r5, r6, r7, lr}
 8002942:	0004      	movs	r4, r0
 8002944:	000d      	movs	r5, r1
 8002946:	0016      	movs	r6, r2
 8002948:	2720      	movs	r7, #32
 800294a:	6823      	ldr	r3, [r4, #0]
 800294c:	699b      	ldr	r3, [r3, #24]
 800294e:	423b      	tst	r3, r7
 8002950:	d001      	beq.n	8002956 <I2C_WaitOnSTOPFlagUntilTimeout+0x16>
 8002952:	2000      	movs	r0, #0
 8002954:	bdf8      	pop	{r3, r4, r5, r6, r7, pc}
 8002956:	0032      	movs	r2, r6
 8002958:	0029      	movs	r1, r5
 800295a:	0020      	movs	r0, r4
 800295c:	f7ff ff72 	bl	8002844 <I2C_IsAcknowledgeFailed>
 8002960:	2800      	cmp	r0, #0
 8002962:	d113      	bne.n	800298c <I2C_WaitOnSTOPFlagUntilTimeout+0x4c>
 8002964:	f7ff f948 	bl	8001bf8 <HAL_GetTick>
 8002968:	1b80      	subs	r0, r0, r6
 800296a:	42a8      	cmp	r0, r5
 800296c:	d801      	bhi.n	8002972 <I2C_WaitOnSTOPFlagUntilTimeout+0x32>
 800296e:	2d00      	cmp	r5, #0
 8002970:	d1eb      	bne.n	800294a <I2C_WaitOnSTOPFlagUntilTimeout+0xa>
 8002972:	2220      	movs	r2, #32
 8002974:	6c63      	ldr	r3, [r4, #68]	; 0x44
 8002976:	4313      	orrs	r3, r2
 8002978:	6463      	str	r3, [r4, #68]	; 0x44
 800297a:	0023      	movs	r3, r4
 800297c:	3341      	adds	r3, #65	; 0x41
 800297e:	701a      	strb	r2, [r3, #0]
 8002980:	0022      	movs	r2, r4
 8002982:	2300      	movs	r3, #0
 8002984:	3242      	adds	r2, #66	; 0x42
 8002986:	3440      	adds	r4, #64	; 0x40
 8002988:	7013      	strb	r3, [r2, #0]
 800298a:	7023      	strb	r3, [r4, #0]
 800298c:	2001      	movs	r0, #1
 800298e:	e7e1      	b.n	8002954 <I2C_WaitOnSTOPFlagUntilTimeout+0x14>

08002990 <I2C_WaitOnFlagUntilTimeout>:
 8002990:	b5f8      	push	{r3, r4, r5, r6, r7, lr}
 8002992:	0004      	movs	r4, r0
 8002994:	000e      	movs	r6, r1
 8002996:	0017      	movs	r7, r2
 8002998:	001d      	movs	r5, r3
 800299a:	6822      	ldr	r2, [r4, #0]
 800299c:	6993      	ldr	r3, [r2, #24]
 800299e:	4033      	ands	r3, r6
 80029a0:	1b9b      	subs	r3, r3, r6
 80029a2:	4259      	negs	r1, r3
 80029a4:	414b      	adcs	r3, r1
 80029a6:	42bb      	cmp	r3, r7
 80029a8:	d001      	beq.n	80029ae <I2C_WaitOnFlagUntilTimeout+0x1e>
 80029aa:	2000      	movs	r0, #0
 80029ac:	e017      	b.n	80029de <I2C_WaitOnFlagUntilTimeout+0x4e>
 80029ae:	1c6b      	adds	r3, r5, #1
 80029b0:	d0f4      	beq.n	800299c <I2C_WaitOnFlagUntilTimeout+0xc>
 80029b2:	f7ff f921 	bl	8001bf8 <HAL_GetTick>
 80029b6:	9b06      	ldr	r3, [sp, #24]
 80029b8:	1ac0      	subs	r0, r0, r3
 80029ba:	42a8      	cmp	r0, r5
 80029bc:	d801      	bhi.n	80029c2 <I2C_WaitOnFlagUntilTimeout+0x32>
 80029be:	2d00      	cmp	r5, #0
 80029c0:	d1eb      	bne.n	800299a <I2C_WaitOnFlagUntilTimeout+0xa>
 80029c2:	2220      	movs	r2, #32
 80029c4:	6c63      	ldr	r3, [r4, #68]	; 0x44
 80029c6:	2001      	movs	r0, #1
 80029c8:	4313      	orrs	r3, r2
 80029ca:	6463      	str	r3, [r4, #68]	; 0x44
 80029cc:	0023      	movs	r3, r4
 80029ce:	3341      	adds	r3, #65	; 0x41
 80029d0:	701a      	strb	r2, [r3, #0]
 80029d2:	0022      	movs	r2, r4
 80029d4:	2300      	movs	r3, #0
 80029d6:	3242      	adds	r2, #66	; 0x42
 80029d8:	3440      	adds	r4, #64	; 0x40
 80029da:	7013      	strb	r3, [r2, #0]
 80029dc:	7023      	strb	r3, [r4, #0]
 80029de:	bdf8      	pop	{r3, r4, r5, r6, r7, pc}

080029e0 <I2C_WaitOnTXISFlagUntilTimeout>:
 80029e0:	b5f8      	push	{r3, r4, r5, r6, r7, lr}
 80029e2:	0004      	movs	r4, r0
 80029e4:	000d      	movs	r5, r1
 80029e6:	0016      	movs	r6, r2
 80029e8:	2702      	movs	r7, #2
 80029ea:	6823      	ldr	r3, [r4, #0]
 80029ec:	699b      	ldr	r3, [r3, #24]
 80029ee:	423b      	tst	r3, r7
 80029f0:	d001      	beq.n	80029f6 <I2C_WaitOnTXISFlagUntilTimeout+0x16>
 80029f2:	2000      	movs	r0, #0
 80029f4:	bdf8      	pop	{r3, r4, r5, r6, r7, pc}
 80029f6:	0032      	movs	r2, r6
 80029f8:	0029      	movs	r1, r5
 80029fa:	0020      	movs	r0, r4
 80029fc:	f7ff ff22 	bl	8002844 <I2C_IsAcknowledgeFailed>
 8002a00:	2800      	cmp	r0, #0
 8002a02:	d115      	bne.n	8002a30 <I2C_WaitOnTXISFlagUntilTimeout+0x50>
 8002a04:	1c6b      	adds	r3, r5, #1
 8002a06:	d0f0      	beq.n	80029ea <I2C_WaitOnTXISFlagUntilTimeout+0xa>
 8002a08:	f7ff f8f6 	bl	8001bf8 <HAL_GetTick>
 8002a0c:	1b80      	subs	r0, r0, r6
 8002a0e:	42a8      	cmp	r0, r5
 8002a10:	d801      	bhi.n	8002a16 <I2C_WaitOnTXISFlagUntilTimeout+0x36>
 8002a12:	2d00      	cmp	r5, #0
 8002a14:	d1e9      	bne.n	80029ea <I2C_WaitOnTXISFlagUntilTimeout+0xa>
 8002a16:	2220      	movs	r2, #32
 8002a18:	6c63      	ldr	r3, [r4, #68]	; 0x44
 8002a1a:	4313      	orrs	r3, r2
 8002a1c:	6463      	str	r3, [r4, #68]	; 0x44
 8002a1e:	0023      	movs	r3, r4
 8002a20:	3341      	adds	r3, #65	; 0x41
 8002a22:	701a      	strb	r2, [r3, #0]
 8002a24:	0022      	movs	r2, r4
 8002a26:	2300      	movs	r3, #0
 8002a28:	3242      	adds	r2, #66	; 0x42
 8002a2a:	3440      	adds	r4, #64	; 0x40
 8002a2c:	7013      	strb	r3, [r2, #0]
 8002a2e:	7023      	strb	r3, [r4, #0]
 8002a30:	2001      	movs	r0, #1
 8002a32:	e7df      	b.n	80029f4 <I2C_WaitOnTXISFlagUntilTimeout+0x14>

08002a34 <HAL_I2C_Init>:
 8002a34:	b570      	push	{r4, r5, r6, lr}
 8002a36:	0004      	movs	r4, r0
 8002a38:	2001      	movs	r0, #1
 8002a3a:	2c00      	cmp	r4, #0
 8002a3c:	d03f      	beq.n	8002abe <HAL_I2C_Init+0x8a>
 8002a3e:	0025      	movs	r5, r4
 8002a40:	3541      	adds	r5, #65	; 0x41
 8002a42:	782b      	ldrb	r3, [r5, #0]
 8002a44:	b2db      	uxtb	r3, r3
 8002a46:	2b00      	cmp	r3, #0
 8002a48:	d105      	bne.n	8002a56 <HAL_I2C_Init+0x22>
 8002a4a:	0022      	movs	r2, r4
 8002a4c:	3240      	adds	r2, #64	; 0x40
 8002a4e:	7013      	strb	r3, [r2, #0]
 8002a50:	0020      	movs	r0, r4
 8002a52:	f7fe ff4b 	bl	80018ec <HAL_I2C_MspInit>
 8002a56:	2324      	movs	r3, #36	; 0x24
 8002a58:	2101      	movs	r1, #1
 8002a5a:	702b      	strb	r3, [r5, #0]
 8002a5c:	6823      	ldr	r3, [r4, #0]
 8002a5e:	68e0      	ldr	r0, [r4, #12]
 8002a60:	681a      	ldr	r2, [r3, #0]
 8002a62:	68a6      	ldr	r6, [r4, #8]
 8002a64:	438a      	bics	r2, r1
 8002a66:	601a      	str	r2, [r3, #0]
 8002a68:	6861      	ldr	r1, [r4, #4]
 8002a6a:	4a1a      	ldr	r2, [pc, #104]	; (8002ad4 <HAL_I2C_Init+0xa0>)
 8002a6c:	400a      	ands	r2, r1
 8002a6e:	611a      	str	r2, [r3, #16]
 8002a70:	6899      	ldr	r1, [r3, #8]
 8002a72:	4a19      	ldr	r2, [pc, #100]	; (8002ad8 <HAL_I2C_Init+0xa4>)
 8002a74:	4011      	ands	r1, r2
 8002a76:	6099      	str	r1, [r3, #8]
 8002a78:	2801      	cmp	r0, #1
 8002a7a:	d121      	bne.n	8002ac0 <HAL_I2C_Init+0x8c>
 8002a7c:	2180      	movs	r1, #128	; 0x80
 8002a7e:	0209      	lsls	r1, r1, #8
 8002a80:	4331      	orrs	r1, r6
 8002a82:	6099      	str	r1, [r3, #8]
 8002a84:	6858      	ldr	r0, [r3, #4]
 8002a86:	4915      	ldr	r1, [pc, #84]	; (8002adc <HAL_I2C_Init+0xa8>)
 8002a88:	4301      	orrs	r1, r0
 8002a8a:	6059      	str	r1, [r3, #4]
 8002a8c:	68d9      	ldr	r1, [r3, #12]
 8002a8e:	2000      	movs	r0, #0
 8002a90:	400a      	ands	r2, r1
 8002a92:	60da      	str	r2, [r3, #12]
 8002a94:	6961      	ldr	r1, [r4, #20]
 8002a96:	6922      	ldr	r2, [r4, #16]
 8002a98:	430a      	orrs	r2, r1
 8002a9a:	69a1      	ldr	r1, [r4, #24]
 8002a9c:	0209      	lsls	r1, r1, #8
 8002a9e:	430a      	orrs	r2, r1
 8002aa0:	60da      	str	r2, [r3, #12]
 8002aa2:	6a21      	ldr	r1, [r4, #32]
 8002aa4:	69e2      	ldr	r2, [r4, #28]
 8002aa6:	430a      	orrs	r2, r1
 8002aa8:	601a      	str	r2, [r3, #0]
 8002aaa:	2201      	movs	r2, #1
 8002aac:	6819      	ldr	r1, [r3, #0]
 8002aae:	430a      	orrs	r2, r1
 8002ab0:	601a      	str	r2, [r3, #0]
 8002ab2:	2320      	movs	r3, #32
 8002ab4:	6460      	str	r0, [r4, #68]	; 0x44
 8002ab6:	702b      	strb	r3, [r5, #0]
 8002ab8:	6320      	str	r0, [r4, #48]	; 0x30
 8002aba:	3442      	adds	r4, #66	; 0x42
 8002abc:	7020      	strb	r0, [r4, #0]
 8002abe:	bd70      	pop	{r4, r5, r6, pc}
 8002ac0:	2184      	movs	r1, #132	; 0x84
 8002ac2:	0209      	lsls	r1, r1, #8
 8002ac4:	4331      	orrs	r1, r6
 8002ac6:	6099      	str	r1, [r3, #8]
 8002ac8:	2802      	cmp	r0, #2
 8002aca:	d1db      	bne.n	8002a84 <HAL_I2C_Init+0x50>
 8002acc:	2180      	movs	r1, #128	; 0x80
 8002ace:	0109      	lsls	r1, r1, #4
 8002ad0:	6059      	str	r1, [r3, #4]
 8002ad2:	e7d7      	b.n	8002a84 <HAL_I2C_Init+0x50>
 8002ad4:	f0ffffff 	.word	0xf0ffffff
 8002ad8:	ffff7fff 	.word	0xffff7fff
 8002adc:	02008000 	.word	0x02008000

08002ae0 <HAL_I2C_Slave_Transmit>:
 8002ae0:	b5f0      	push	{r4, r5, r6, r7, lr}
 8002ae2:	001f      	movs	r7, r3
 8002ae4:	0003      	movs	r3, r0
 8002ae6:	b087      	sub	sp, #28
 8002ae8:	3341      	adds	r3, #65	; 0x41
 8002aea:	9104      	str	r1, [sp, #16]
 8002aec:	9205      	str	r2, [sp, #20]
 8002aee:	9303      	str	r3, [sp, #12]
 8002af0:	781d      	ldrb	r5, [r3, #0]
 8002af2:	0004      	movs	r4, r0
 8002af4:	b2ed      	uxtb	r5, r5
 8002af6:	2002      	movs	r0, #2
 8002af8:	2d20      	cmp	r5, #32
 8002afa:	d107      	bne.n	8002b0c <HAL_I2C_Slave_Transmit+0x2c>
 8002afc:	2900      	cmp	r1, #0
 8002afe:	d001      	beq.n	8002b04 <HAL_I2C_Slave_Transmit+0x24>
 8002b00:	2a00      	cmp	r2, #0
 8002b02:	d105      	bne.n	8002b10 <HAL_I2C_Slave_Transmit+0x30>
 8002b04:	2380      	movs	r3, #128	; 0x80
 8002b06:	009b      	lsls	r3, r3, #2
 8002b08:	6463      	str	r3, [r4, #68]	; 0x44
 8002b0a:	2001      	movs	r0, #1
 8002b0c:	b007      	add	sp, #28
 8002b0e:	bdf0      	pop	{r4, r5, r6, r7, pc}
 8002b10:	0023      	movs	r3, r4
 8002b12:	3340      	adds	r3, #64	; 0x40
 8002b14:	781a      	ldrb	r2, [r3, #0]
 8002b16:	2a01      	cmp	r2, #1
 8002b18:	d0f8      	beq.n	8002b0c <HAL_I2C_Slave_Transmit+0x2c>
 8002b1a:	2201      	movs	r2, #1
 8002b1c:	701a      	strb	r2, [r3, #0]
 8002b1e:	f7ff f86b 	bl	8001bf8 <HAL_GetTick>
 8002b22:	2321      	movs	r3, #33	; 0x21
 8002b24:	9a03      	ldr	r2, [sp, #12]
 8002b26:	0006      	movs	r6, r0
 8002b28:	7013      	strb	r3, [r2, #0]
 8002b2a:	0023      	movs	r3, r4
 8002b2c:	2200      	movs	r2, #0
 8002b2e:	3342      	adds	r3, #66	; 0x42
 8002b30:	701d      	strb	r5, [r3, #0]
 8002b32:	9b04      	ldr	r3, [sp, #16]
 8002b34:	6821      	ldr	r1, [r4, #0]
 8002b36:	6263      	str	r3, [r4, #36]	; 0x24
 8002b38:	9b05      	ldr	r3, [sp, #20]
 8002b3a:	6462      	str	r2, [r4, #68]	; 0x44
 8002b3c:	8563      	strh	r3, [r4, #42]	; 0x2a
 8002b3e:	684b      	ldr	r3, [r1, #4]
 8002b40:	4839      	ldr	r0, [pc, #228]	; (8002c28 <HAL_I2C_Slave_Transmit+0x148>)
 8002b42:	6362      	str	r2, [r4, #52]	; 0x34
 8002b44:	4003      	ands	r3, r0
 8002b46:	604b      	str	r3, [r1, #4]
 8002b48:	0020      	movs	r0, r4
 8002b4a:	003b      	movs	r3, r7
 8002b4c:	9600      	str	r6, [sp, #0]
 8002b4e:	2108      	movs	r1, #8
 8002b50:	f7ff ff1e 	bl	8002990 <I2C_WaitOnFlagUntilTimeout>
 8002b54:	6823      	ldr	r3, [r4, #0]
 8002b56:	1e02      	subs	r2, r0, #0
 8002b58:	d005      	beq.n	8002b66 <HAL_I2C_Slave_Transmit+0x86>
 8002b5a:	2280      	movs	r2, #128	; 0x80
 8002b5c:	6859      	ldr	r1, [r3, #4]
 8002b5e:	0212      	lsls	r2, r2, #8
 8002b60:	430a      	orrs	r2, r1
 8002b62:	605a      	str	r2, [r3, #4]
 8002b64:	e7d1      	b.n	8002b0a <HAL_I2C_Slave_Transmit+0x2a>
 8002b66:	2508      	movs	r5, #8
 8002b68:	61dd      	str	r5, [r3, #28]
 8002b6a:	68e3      	ldr	r3, [r4, #12]
 8002b6c:	2b02      	cmp	r3, #2
 8002b6e:	d109      	bne.n	8002b84 <HAL_I2C_Slave_Transmit+0xa4>
 8002b70:	003b      	movs	r3, r7
 8002b72:	9600      	str	r6, [sp, #0]
 8002b74:	0029      	movs	r1, r5
 8002b76:	0020      	movs	r0, r4
 8002b78:	f7ff ff0a 	bl	8002990 <I2C_WaitOnFlagUntilTimeout>
 8002b7c:	6823      	ldr	r3, [r4, #0]
 8002b7e:	2800      	cmp	r0, #0
 8002b80:	d1eb      	bne.n	8002b5a <HAL_I2C_Slave_Transmit+0x7a>
 8002b82:	61dd      	str	r5, [r3, #28]
 8002b84:	2180      	movs	r1, #128	; 0x80
 8002b86:	9600      	str	r6, [sp, #0]
 8002b88:	003b      	movs	r3, r7
 8002b8a:	2200      	movs	r2, #0
 8002b8c:	0249      	lsls	r1, r1, #9
 8002b8e:	0020      	movs	r0, r4
 8002b90:	f7ff fefe 	bl	8002990 <I2C_WaitOnFlagUntilTimeout>
 8002b94:	2800      	cmp	r0, #0
 8002b96:	d014      	beq.n	8002bc2 <HAL_I2C_Slave_Transmit+0xe2>
 8002b98:	6822      	ldr	r2, [r4, #0]
 8002b9a:	2380      	movs	r3, #128	; 0x80
 8002b9c:	6851      	ldr	r1, [r2, #4]
 8002b9e:	021b      	lsls	r3, r3, #8
 8002ba0:	430b      	orrs	r3, r1
 8002ba2:	6053      	str	r3, [r2, #4]
 8002ba4:	e7b1      	b.n	8002b0a <HAL_I2C_Slave_Transmit+0x2a>
 8002ba6:	f7ff ff1b 	bl	80029e0 <I2C_WaitOnTXISFlagUntilTimeout>
 8002baa:	6822      	ldr	r2, [r4, #0]
 8002bac:	2800      	cmp	r0, #0
 8002bae:	d1f4      	bne.n	8002b9a <HAL_I2C_Slave_Transmit+0xba>
 8002bb0:	6a63      	ldr	r3, [r4, #36]	; 0x24
 8002bb2:	7819      	ldrb	r1, [r3, #0]
 8002bb4:	3301      	adds	r3, #1
 8002bb6:	6291      	str	r1, [r2, #40]	; 0x28
 8002bb8:	6263      	str	r3, [r4, #36]	; 0x24
 8002bba:	8d63      	ldrh	r3, [r4, #42]	; 0x2a
 8002bbc:	3b01      	subs	r3, #1
 8002bbe:	b29b      	uxth	r3, r3
 8002bc0:	8563      	strh	r3, [r4, #42]	; 0x2a
 8002bc2:	8d65      	ldrh	r5, [r4, #42]	; 0x2a
 8002bc4:	0032      	movs	r2, r6
 8002bc6:	b2ad      	uxth	r5, r5
 8002bc8:	0039      	movs	r1, r7
 8002bca:	0020      	movs	r0, r4
 8002bcc:	2d00      	cmp	r5, #0
 8002bce:	d1ea      	bne.n	8002ba6 <HAL_I2C_Slave_Transmit+0xc6>
 8002bd0:	f7ff feb6 	bl	8002940 <I2C_WaitOnSTOPFlagUntilTimeout>
 8002bd4:	6823      	ldr	r3, [r4, #0]
 8002bd6:	2800      	cmp	r0, #0
 8002bd8:	d00a      	beq.n	8002bf0 <HAL_I2C_Slave_Transmit+0x110>
 8002bda:	2280      	movs	r2, #128	; 0x80
 8002bdc:	6859      	ldr	r1, [r3, #4]
 8002bde:	0212      	lsls	r2, r2, #8
 8002be0:	430a      	orrs	r2, r1
 8002be2:	605a      	str	r2, [r3, #4]
 8002be4:	6c62      	ldr	r2, [r4, #68]	; 0x44
 8002be6:	2001      	movs	r0, #1
 8002be8:	2a04      	cmp	r2, #4
 8002bea:	d000      	beq.n	8002bee <HAL_I2C_Slave_Transmit+0x10e>
 8002bec:	e78e      	b.n	8002b0c <HAL_I2C_Slave_Transmit+0x2c>
 8002bee:	6465      	str	r5, [r4, #68]	; 0x44
 8002bf0:	2580      	movs	r5, #128	; 0x80
 8002bf2:	2220      	movs	r2, #32
 8002bf4:	022d      	lsls	r5, r5, #8
 8002bf6:	61da      	str	r2, [r3, #28]
 8002bf8:	0029      	movs	r1, r5
 8002bfa:	003b      	movs	r3, r7
 8002bfc:	3a1f      	subs	r2, #31
 8002bfe:	9600      	str	r6, [sp, #0]
 8002c00:	0020      	movs	r0, r4
 8002c02:	f7ff fec5 	bl	8002990 <I2C_WaitOnFlagUntilTimeout>
 8002c06:	6823      	ldr	r3, [r4, #0]
 8002c08:	685a      	ldr	r2, [r3, #4]
 8002c0a:	4315      	orrs	r5, r2
 8002c0c:	605d      	str	r5, [r3, #4]
 8002c0e:	2800      	cmp	r0, #0
 8002c10:	d000      	beq.n	8002c14 <HAL_I2C_Slave_Transmit+0x134>
 8002c12:	e77a      	b.n	8002b0a <HAL_I2C_Slave_Transmit+0x2a>
 8002c14:	2220      	movs	r2, #32
 8002c16:	9b03      	ldr	r3, [sp, #12]
 8002c18:	701a      	strb	r2, [r3, #0]
 8002c1a:	0023      	movs	r3, r4
 8002c1c:	3440      	adds	r4, #64	; 0x40
 8002c1e:	3342      	adds	r3, #66	; 0x42
 8002c20:	7018      	strb	r0, [r3, #0]
 8002c22:	7020      	strb	r0, [r4, #0]
 8002c24:	e772      	b.n	8002b0c <HAL_I2C_Slave_Transmit+0x2c>
 8002c26:	46c0      	nop			; (mov r8, r8)
 8002c28:	ffff7fff 	.word	0xffff7fff

08002c2c <HAL_I2C_Slave_Receive>:
 8002c2c:	b5f0      	push	{r4, r5, r6, r7, lr}
 8002c2e:	001f      	movs	r7, r3
 8002c30:	0003      	movs	r3, r0
 8002c32:	b089      	sub	sp, #36	; 0x24
 8002c34:	3341      	adds	r3, #65	; 0x41
 8002c36:	9105      	str	r1, [sp, #20]
 8002c38:	9206      	str	r2, [sp, #24]
 8002c3a:	9304      	str	r3, [sp, #16]
 8002c3c:	781d      	ldrb	r5, [r3, #0]
 8002c3e:	0004      	movs	r4, r0
 8002c40:	b2ed      	uxtb	r5, r5
 8002c42:	2002      	movs	r0, #2
 8002c44:	2d20      	cmp	r5, #32
 8002c46:	d107      	bne.n	8002c58 <HAL_I2C_Slave_Receive+0x2c>
 8002c48:	2900      	cmp	r1, #0
 8002c4a:	d001      	beq.n	8002c50 <HAL_I2C_Slave_Receive+0x24>
 8002c4c:	2a00      	cmp	r2, #0
 8002c4e:	d105      	bne.n	8002c5c <HAL_I2C_Slave_Receive+0x30>
 8002c50:	2380      	movs	r3, #128	; 0x80
 8002c52:	009b      	lsls	r3, r3, #2
 8002c54:	6463      	str	r3, [r4, #68]	; 0x44
 8002c56:	2001      	movs	r0, #1
 8002c58:	b009      	add	sp, #36	; 0x24
 8002c5a:	bdf0      	pop	{r4, r5, r6, r7, pc}
 8002c5c:	0023      	movs	r3, r4
 8002c5e:	3340      	adds	r3, #64	; 0x40
 8002c60:	781a      	ldrb	r2, [r3, #0]
 8002c62:	2a01      	cmp	r2, #1
 8002c64:	d0f8      	beq.n	8002c58 <HAL_I2C_Slave_Receive+0x2c>
 8002c66:	2601      	movs	r6, #1
 8002c68:	701e      	strb	r6, [r3, #0]
 8002c6a:	f7fe ffc5 	bl	8001bf8 <HAL_GetTick>
 8002c6e:	2322      	movs	r3, #34	; 0x22
 8002c70:	9a04      	ldr	r2, [sp, #16]
 8002c72:	6821      	ldr	r1, [r4, #0]
 8002c74:	7013      	strb	r3, [r2, #0]
 8002c76:	0023      	movs	r3, r4
 8002c78:	2200      	movs	r2, #0
 8002c7a:	3342      	adds	r3, #66	; 0x42
 8002c7c:	701d      	strb	r5, [r3, #0]
 8002c7e:	9307      	str	r3, [sp, #28]
 8002c80:	9b05      	ldr	r3, [sp, #20]
 8002c82:	6462      	str	r2, [r4, #68]	; 0x44
 8002c84:	6263      	str	r3, [r4, #36]	; 0x24
 8002c86:	9b06      	ldr	r3, [sp, #24]
 8002c88:	9003      	str	r0, [sp, #12]
 8002c8a:	8563      	strh	r3, [r4, #42]	; 0x2a
 8002c8c:	684b      	ldr	r3, [r1, #4]
 8002c8e:	483a      	ldr	r0, [pc, #232]	; (8002d78 <HAL_I2C_Slave_Receive+0x14c>)
 8002c90:	6362      	str	r2, [r4, #52]	; 0x34
 8002c92:	4003      	ands	r3, r0
 8002c94:	604b      	str	r3, [r1, #4]
 8002c96:	9b03      	ldr	r3, [sp, #12]
 8002c98:	2108      	movs	r1, #8
 8002c9a:	9300      	str	r3, [sp, #0]
 8002c9c:	0020      	movs	r0, r4
 8002c9e:	003b      	movs	r3, r7
 8002ca0:	f7ff fe76 	bl	8002990 <I2C_WaitOnFlagUntilTimeout>
 8002ca4:	6823      	ldr	r3, [r4, #0]
 8002ca6:	2800      	cmp	r0, #0
 8002ca8:	d005      	beq.n	8002cb6 <HAL_I2C_Slave_Receive+0x8a>
 8002caa:	2280      	movs	r2, #128	; 0x80
 8002cac:	6859      	ldr	r1, [r3, #4]
 8002cae:	0212      	lsls	r2, r2, #8
 8002cb0:	430a      	orrs	r2, r1
 8002cb2:	605a      	str	r2, [r3, #4]
 8002cb4:	e7cf      	b.n	8002c56 <HAL_I2C_Slave_Receive+0x2a>
 8002cb6:	2208      	movs	r2, #8
 8002cb8:	2180      	movs	r1, #128	; 0x80
 8002cba:	61da      	str	r2, [r3, #28]
 8002cbc:	9b03      	ldr	r3, [sp, #12]
 8002cbe:	0032      	movs	r2, r6
 8002cc0:	9300      	str	r3, [sp, #0]
 8002cc2:	0249      	lsls	r1, r1, #9
 8002cc4:	003b      	movs	r3, r7
 8002cc6:	0020      	movs	r0, r4
 8002cc8:	f7ff fe62 	bl	8002990 <I2C_WaitOnFlagUntilTimeout>
 8002ccc:	2800      	cmp	r0, #0
 8002cce:	d029      	beq.n	8002d24 <HAL_I2C_Slave_Receive+0xf8>
 8002cd0:	2380      	movs	r3, #128	; 0x80
 8002cd2:	6822      	ldr	r2, [r4, #0]
 8002cd4:	021b      	lsls	r3, r3, #8
 8002cd6:	6851      	ldr	r1, [r2, #4]
 8002cd8:	430b      	orrs	r3, r1
 8002cda:	6053      	str	r3, [r2, #4]
 8002cdc:	e7bb      	b.n	8002c56 <HAL_I2C_Slave_Receive+0x2a>
 8002cde:	f7ff fdef 	bl	80028c0 <I2C_WaitOnRXNEFlagUntilTimeout>
 8002ce2:	6823      	ldr	r3, [r4, #0]
 8002ce4:	2800      	cmp	r0, #0
 8002ce6:	d013      	beq.n	8002d10 <HAL_I2C_Slave_Receive+0xe4>
 8002ce8:	2280      	movs	r2, #128	; 0x80
 8002cea:	6859      	ldr	r1, [r3, #4]
 8002cec:	0212      	lsls	r2, r2, #8
 8002cee:	430a      	orrs	r2, r1
 8002cf0:	605a      	str	r2, [r3, #4]
 8002cf2:	699a      	ldr	r2, [r3, #24]
 8002cf4:	2001      	movs	r0, #1
 8002cf6:	0752      	lsls	r2, r2, #29
 8002cf8:	d5ae      	bpl.n	8002c58 <HAL_I2C_Slave_Receive+0x2c>
 8002cfa:	6a5b      	ldr	r3, [r3, #36]	; 0x24
 8002cfc:	6a62      	ldr	r2, [r4, #36]	; 0x24
 8002cfe:	7013      	strb	r3, [r2, #0]
 8002d00:	6a63      	ldr	r3, [r4, #36]	; 0x24
 8002d02:	181b      	adds	r3, r3, r0
 8002d04:	6263      	str	r3, [r4, #36]	; 0x24
 8002d06:	8d63      	ldrh	r3, [r4, #42]	; 0x2a
 8002d08:	3b01      	subs	r3, #1
 8002d0a:	b29b      	uxth	r3, r3
 8002d0c:	8563      	strh	r3, [r4, #42]	; 0x2a
 8002d0e:	e7a3      	b.n	8002c58 <HAL_I2C_Slave_Receive+0x2c>
 8002d10:	6a5b      	ldr	r3, [r3, #36]	; 0x24
 8002d12:	6a62      	ldr	r2, [r4, #36]	; 0x24
 8002d14:	7013      	strb	r3, [r2, #0]
 8002d16:	6a63      	ldr	r3, [r4, #36]	; 0x24
 8002d18:	3301      	adds	r3, #1
 8002d1a:	6263      	str	r3, [r4, #36]	; 0x24
 8002d1c:	8d63      	ldrh	r3, [r4, #42]	; 0x2a
 8002d1e:	3b01      	subs	r3, #1
 8002d20:	b29b      	uxth	r3, r3
 8002d22:	8563      	strh	r3, [r4, #42]	; 0x2a
 8002d24:	8d63      	ldrh	r3, [r4, #42]	; 0x2a
 8002d26:	9a03      	ldr	r2, [sp, #12]
 8002d28:	0039      	movs	r1, r7
 8002d2a:	0020      	movs	r0, r4
 8002d2c:	2b00      	cmp	r3, #0
 8002d2e:	d1d6      	bne.n	8002cde <HAL_I2C_Slave_Receive+0xb2>
 8002d30:	f7ff fe06 	bl	8002940 <I2C_WaitOnSTOPFlagUntilTimeout>
 8002d34:	2580      	movs	r5, #128	; 0x80
 8002d36:	6823      	ldr	r3, [r4, #0]
 8002d38:	022d      	lsls	r5, r5, #8
 8002d3a:	2800      	cmp	r0, #0
 8002d3c:	d003      	beq.n	8002d46 <HAL_I2C_Slave_Receive+0x11a>
 8002d3e:	685a      	ldr	r2, [r3, #4]
 8002d40:	4315      	orrs	r5, r2
 8002d42:	605d      	str	r5, [r3, #4]
 8002d44:	e787      	b.n	8002c56 <HAL_I2C_Slave_Receive+0x2a>
 8002d46:	2620      	movs	r6, #32
 8002d48:	61de      	str	r6, [r3, #28]
 8002d4a:	9b03      	ldr	r3, [sp, #12]
 8002d4c:	2201      	movs	r2, #1
 8002d4e:	9300      	str	r3, [sp, #0]
 8002d50:	0029      	movs	r1, r5
 8002d52:	003b      	movs	r3, r7
 8002d54:	0020      	movs	r0, r4
 8002d56:	f7ff fe1b 	bl	8002990 <I2C_WaitOnFlagUntilTimeout>
 8002d5a:	6823      	ldr	r3, [r4, #0]
 8002d5c:	685a      	ldr	r2, [r3, #4]
 8002d5e:	4315      	orrs	r5, r2
 8002d60:	605d      	str	r5, [r3, #4]
 8002d62:	2800      	cmp	r0, #0
 8002d64:	d000      	beq.n	8002d68 <HAL_I2C_Slave_Receive+0x13c>
 8002d66:	e776      	b.n	8002c56 <HAL_I2C_Slave_Receive+0x2a>
 8002d68:	9b04      	ldr	r3, [sp, #16]
 8002d6a:	3440      	adds	r4, #64	; 0x40
 8002d6c:	701e      	strb	r6, [r3, #0]
 8002d6e:	9b07      	ldr	r3, [sp, #28]
 8002d70:	7018      	strb	r0, [r3, #0]
 8002d72:	7020      	strb	r0, [r4, #0]
 8002d74:	e770      	b.n	8002c58 <HAL_I2C_Slave_Receive+0x2c>
 8002d76:	46c0      	nop			; (mov r8, r8)
 8002d78:	ffff7fff 	.word	0xffff7fff

08002d7c <HAL_I2C_EV_IRQHandler>:
 8002d7c:	6803      	ldr	r3, [r0, #0]
 8002d7e:	b510      	push	{r4, lr}
 8002d80:	6999      	ldr	r1, [r3, #24]
 8002d82:	681a      	ldr	r2, [r3, #0]
 8002d84:	6b43      	ldr	r3, [r0, #52]	; 0x34
 8002d86:	2b00      	cmp	r3, #0
 8002d88:	d000      	beq.n	8002d8c <HAL_I2C_EV_IRQHandler+0x10>
 8002d8a:	4798      	blx	r3
 8002d8c:	bd10      	pop	{r4, pc}

08002d8e <HAL_I2C_SlaveTxCpltCallback>:
 8002d8e:	4770      	bx	lr

08002d90 <HAL_I2C_SlaveRxCpltCallback>:
 8002d90:	4770      	bx	lr
	...

08002d94 <I2C_ITSlaveSeqCplt>:
 8002d94:	0001      	movs	r1, r0
 8002d96:	6803      	ldr	r3, [r0, #0]
 8002d98:	b510      	push	{r4, lr}
 8002d9a:	0004      	movs	r4, r0
 8002d9c:	2000      	movs	r0, #0
 8002d9e:	681a      	ldr	r2, [r3, #0]
 8002da0:	3142      	adds	r1, #66	; 0x42
 8002da2:	7008      	strb	r0, [r1, #0]
 8002da4:	2101      	movs	r1, #1
 8002da6:	0450      	lsls	r0, r2, #17
 8002da8:	d518      	bpl.n	8002ddc <I2C_ITSlaveSeqCplt+0x48>
 8002daa:	681a      	ldr	r2, [r3, #0]
 8002dac:	4918      	ldr	r1, [pc, #96]	; (8002e10 <I2C_ITSlaveSeqCplt+0x7c>)
 8002dae:	400a      	ands	r2, r1
 8002db0:	601a      	str	r2, [r3, #0]
 8002db2:	0023      	movs	r3, r4
 8002db4:	3341      	adds	r3, #65	; 0x41
 8002db6:	781a      	ldrb	r2, [r3, #0]
 8002db8:	2a29      	cmp	r2, #41	; 0x29
 8002dba:	d115      	bne.n	8002de8 <I2C_ITSlaveSeqCplt+0x54>
 8002dbc:	3a01      	subs	r2, #1
 8002dbe:	701a      	strb	r2, [r3, #0]
 8002dc0:	2321      	movs	r3, #33	; 0x21
 8002dc2:	0020      	movs	r0, r4
 8002dc4:	6323      	str	r3, [r4, #48]	; 0x30
 8002dc6:	2101      	movs	r1, #1
 8002dc8:	f7ff fd18 	bl	80027fc <I2C_Disable_IRQ>
 8002dcc:	0023      	movs	r3, r4
 8002dce:	2200      	movs	r2, #0
 8002dd0:	3340      	adds	r3, #64	; 0x40
 8002dd2:	701a      	strb	r2, [r3, #0]
 8002dd4:	0020      	movs	r0, r4
 8002dd6:	f7ff ffda 	bl	8002d8e <HAL_I2C_SlaveTxCpltCallback>
 8002dda:	bd10      	pop	{r4, pc}
 8002ddc:	0bd2      	lsrs	r2, r2, #15
 8002dde:	420a      	tst	r2, r1
 8002de0:	d0e7      	beq.n	8002db2 <I2C_ITSlaveSeqCplt+0x1e>
 8002de2:	681a      	ldr	r2, [r3, #0]
 8002de4:	490b      	ldr	r1, [pc, #44]	; (8002e14 <I2C_ITSlaveSeqCplt+0x80>)
 8002de6:	e7e2      	b.n	8002dae <I2C_ITSlaveSeqCplt+0x1a>
 8002de8:	781a      	ldrb	r2, [r3, #0]
 8002dea:	2a2a      	cmp	r2, #42	; 0x2a
 8002dec:	d1f5      	bne.n	8002dda <I2C_ITSlaveSeqCplt+0x46>
 8002dee:	3a02      	subs	r2, #2
 8002df0:	701a      	strb	r2, [r3, #0]
 8002df2:	2322      	movs	r3, #34	; 0x22
 8002df4:	0020      	movs	r0, r4
 8002df6:	6323      	str	r3, [r4, #48]	; 0x30
 8002df8:	2102      	movs	r1, #2
 8002dfa:	f7ff fcff 	bl	80027fc <I2C_Disable_IRQ>
 8002dfe:	0023      	movs	r3, r4
 8002e00:	2200      	movs	r2, #0
 8002e02:	3340      	adds	r3, #64	; 0x40
 8002e04:	701a      	strb	r2, [r3, #0]
 8002e06:	0020      	movs	r0, r4
 8002e08:	f7ff ffc2 	bl	8002d90 <HAL_I2C_SlaveRxCpltCallback>
 8002e0c:	e7e5      	b.n	8002dda <I2C_ITSlaveSeqCplt+0x46>
 8002e0e:	46c0      	nop			; (mov r8, r8)
 8002e10:	ffffbfff 	.word	0xffffbfff
 8002e14:	ffff7fff 	.word	0xffff7fff

08002e18 <HAL_I2C_AddrCallback>:
 8002e18:	4770      	bx	lr

08002e1a <I2C_ITAddrCplt.isra.9>:
 8002e1a:	0003      	movs	r3, r0
 8002e1c:	b5f7      	push	{r0, r1, r2, r4, r5, r6, r7, lr}
 8002e1e:	2128      	movs	r1, #40	; 0x28
 8002e20:	3341      	adds	r3, #65	; 0x41
 8002e22:	781a      	ldrb	r2, [r3, #0]
 8002e24:	0004      	movs	r4, r0
 8002e26:	6803      	ldr	r3, [r0, #0]
 8002e28:	400a      	ands	r2, r1
 8002e2a:	428a      	cmp	r2, r1
 8002e2c:	d139      	bne.n	8002ea2 <I2C_ITAddrCplt.isra.9+0x88>
 8002e2e:	27fe      	movs	r7, #254	; 0xfe
 8002e30:	699d      	ldr	r5, [r3, #24]
 8002e32:	699e      	ldr	r6, [r3, #24]
 8002e34:	689a      	ldr	r2, [r3, #8]
 8002e36:	68d9      	ldr	r1, [r3, #12]
 8002e38:	03ed      	lsls	r5, r5, #15
 8002e3a:	9101      	str	r1, [sp, #4]
 8002e3c:	68c1      	ldr	r1, [r0, #12]
 8002e3e:	0c36      	lsrs	r6, r6, #16
 8002e40:	0fed      	lsrs	r5, r5, #31
 8002e42:	403e      	ands	r6, r7
 8002e44:	2902      	cmp	r1, #2
 8002e46:	d122      	bne.n	8002e8e <I2C_ITAddrCplt.isra.9+0x74>
 8002e48:	0592      	lsls	r2, r2, #22
 8002e4a:	0d92      	lsrs	r2, r2, #22
 8002e4c:	09d1      	lsrs	r1, r2, #7
 8002e4e:	404e      	eors	r6, r1
 8002e50:	2106      	movs	r1, #6
 8002e52:	400e      	ands	r6, r1
 8002e54:	d110      	bne.n	8002e78 <I2C_ITAddrCplt.isra.9+0x5e>
 8002e56:	6c81      	ldr	r1, [r0, #72]	; 0x48
 8002e58:	3101      	adds	r1, #1
 8002e5a:	6481      	str	r1, [r0, #72]	; 0x48
 8002e5c:	6c81      	ldr	r1, [r0, #72]	; 0x48
 8002e5e:	2902      	cmp	r1, #2
 8002e60:	d109      	bne.n	8002e76 <I2C_ITAddrCplt.isra.9+0x5c>
 8002e62:	3106      	adds	r1, #6
 8002e64:	6486      	str	r6, [r0, #72]	; 0x48
 8002e66:	61d9      	str	r1, [r3, #28]
 8002e68:	0003      	movs	r3, r0
 8002e6a:	3340      	adds	r3, #64	; 0x40
 8002e6c:	701e      	strb	r6, [r3, #0]
 8002e6e:	0029      	movs	r1, r5
 8002e70:	0020      	movs	r0, r4
 8002e72:	f7ff ffd1 	bl	8002e18 <HAL_I2C_AddrCallback>
 8002e76:	bdf7      	pop	{r0, r1, r2, r4, r5, r6, r7, pc}
 8002e78:	2180      	movs	r1, #128	; 0x80
 8002e7a:	0209      	lsls	r1, r1, #8
 8002e7c:	f7ff fcbe 	bl	80027fc <I2C_Disable_IRQ>
 8002e80:	0023      	movs	r3, r4
 8002e82:	2200      	movs	r2, #0
 8002e84:	3340      	adds	r3, #64	; 0x40
 8002e86:	701a      	strb	r2, [r3, #0]
 8002e88:	9a01      	ldr	r2, [sp, #4]
 8002e8a:	403a      	ands	r2, r7
 8002e8c:	e7ef      	b.n	8002e6e <I2C_ITAddrCplt.isra.9+0x54>
 8002e8e:	2180      	movs	r1, #128	; 0x80
 8002e90:	0209      	lsls	r1, r1, #8
 8002e92:	f7ff fcb3 	bl	80027fc <I2C_Disable_IRQ>
 8002e96:	0023      	movs	r3, r4
 8002e98:	2200      	movs	r2, #0
 8002e9a:	3340      	adds	r3, #64	; 0x40
 8002e9c:	701a      	strb	r2, [r3, #0]
 8002e9e:	0032      	movs	r2, r6
 8002ea0:	e7e5      	b.n	8002e6e <I2C_ITAddrCplt.isra.9+0x54>
 8002ea2:	2208      	movs	r2, #8
 8002ea4:	61da      	str	r2, [r3, #28]
 8002ea6:	2300      	movs	r3, #0
 8002ea8:	3440      	adds	r4, #64	; 0x40
 8002eaa:	7023      	strb	r3, [r4, #0]
 8002eac:	e7e3      	b.n	8002e76 <I2C_ITAddrCplt.isra.9+0x5c>

08002eae <HAL_I2C_ListenCpltCallback>:
 8002eae:	4770      	bx	lr

08002eb0 <I2C_ITListenCplt>:
 8002eb0:	4b18      	ldr	r3, [pc, #96]	; (8002f14 <I2C_ITListenCplt+0x64>)
 8002eb2:	b510      	push	{r4, lr}
 8002eb4:	62c3      	str	r3, [r0, #44]	; 0x2c
 8002eb6:	2300      	movs	r3, #0
 8002eb8:	0002      	movs	r2, r0
 8002eba:	6303      	str	r3, [r0, #48]	; 0x30
 8002ebc:	0004      	movs	r4, r0
 8002ebe:	2020      	movs	r0, #32
 8002ec0:	3241      	adds	r2, #65	; 0x41
 8002ec2:	7010      	strb	r0, [r2, #0]
 8002ec4:	7053      	strb	r3, [r2, #1]
 8002ec6:	6363      	str	r3, [r4, #52]	; 0x34
 8002ec8:	074b      	lsls	r3, r1, #29
 8002eca:	d513      	bpl.n	8002ef4 <I2C_ITListenCplt+0x44>
 8002ecc:	6823      	ldr	r3, [r4, #0]
 8002ece:	6a62      	ldr	r2, [r4, #36]	; 0x24
 8002ed0:	6a5b      	ldr	r3, [r3, #36]	; 0x24
 8002ed2:	7013      	strb	r3, [r2, #0]
 8002ed4:	6a63      	ldr	r3, [r4, #36]	; 0x24
 8002ed6:	3301      	adds	r3, #1
 8002ed8:	6263      	str	r3, [r4, #36]	; 0x24
 8002eda:	8d23      	ldrh	r3, [r4, #40]	; 0x28
 8002edc:	2b00      	cmp	r3, #0
 8002ede:	d009      	beq.n	8002ef4 <I2C_ITListenCplt+0x44>
 8002ee0:	3b01      	subs	r3, #1
 8002ee2:	8523      	strh	r3, [r4, #40]	; 0x28
 8002ee4:	8d63      	ldrh	r3, [r4, #42]	; 0x2a
 8002ee6:	3b01      	subs	r3, #1
 8002ee8:	b29b      	uxth	r3, r3
 8002eea:	8563      	strh	r3, [r4, #42]	; 0x2a
 8002eec:	2304      	movs	r3, #4
 8002eee:	6c62      	ldr	r2, [r4, #68]	; 0x44
 8002ef0:	4313      	orrs	r3, r2
 8002ef2:	6463      	str	r3, [r4, #68]	; 0x44
 8002ef4:	4908      	ldr	r1, [pc, #32]	; (8002f18 <I2C_ITListenCplt+0x68>)
 8002ef6:	0020      	movs	r0, r4
 8002ef8:	f7ff fc80 	bl	80027fc <I2C_Disable_IRQ>
 8002efc:	2210      	movs	r2, #16
 8002efe:	6823      	ldr	r3, [r4, #0]
 8002f00:	0020      	movs	r0, r4
 8002f02:	61da      	str	r2, [r3, #28]
 8002f04:	0023      	movs	r3, r4
 8002f06:	2200      	movs	r2, #0
 8002f08:	3340      	adds	r3, #64	; 0x40
 8002f0a:	701a      	strb	r2, [r3, #0]
 8002f0c:	f7ff ffcf 	bl	8002eae <HAL_I2C_ListenCpltCallback>
 8002f10:	bd10      	pop	{r4, pc}
 8002f12:	46c0      	nop			; (mov r8, r8)
 8002f14:	ffff0000 	.word	0xffff0000
 8002f18:	00008003 	.word	0x00008003

08002f1c <HAL_I2C_ErrorCallback>:
 8002f1c:	4770      	bx	lr

08002f1e <HAL_I2C_AbortCpltCallback>:
 8002f1e:	4770      	bx	lr

08002f20 <I2C_TreatErrorCallback>:
 8002f20:	0001      	movs	r1, r0
 8002f22:	0002      	movs	r2, r0
 8002f24:	b510      	push	{r4, lr}
 8002f26:	3141      	adds	r1, #65	; 0x41
 8002f28:	780c      	ldrb	r4, [r1, #0]
 8002f2a:	2300      	movs	r3, #0
 8002f2c:	3240      	adds	r2, #64	; 0x40
 8002f2e:	2c60      	cmp	r4, #96	; 0x60
 8002f30:	d106      	bne.n	8002f40 <I2C_TreatErrorCallback+0x20>
 8002f32:	3c40      	subs	r4, #64	; 0x40
 8002f34:	700c      	strb	r4, [r1, #0]
 8002f36:	6303      	str	r3, [r0, #48]	; 0x30
 8002f38:	7013      	strb	r3, [r2, #0]
 8002f3a:	f7ff fff0 	bl	8002f1e <HAL_I2C_AbortCpltCallback>
 8002f3e:	bd10      	pop	{r4, pc}
 8002f40:	6303      	str	r3, [r0, #48]	; 0x30
 8002f42:	7013      	strb	r3, [r2, #0]
 8002f44:	f7ff ffea 	bl	8002f1c <HAL_I2C_ErrorCallback>
 8002f48:	e7f9      	b.n	8002f3e <I2C_TreatErrorCallback+0x1e>
	...

08002f4c <I2C_ITError>:
 8002f4c:	b570      	push	{r4, r5, r6, lr}
 8002f4e:	0005      	movs	r5, r0
 8002f50:	2200      	movs	r2, #0
 8002f52:	0004      	movs	r4, r0
 8002f54:	3541      	adds	r5, #65	; 0x41
 8002f56:	3042      	adds	r0, #66	; 0x42
 8002f58:	782b      	ldrb	r3, [r5, #0]
 8002f5a:	7002      	strb	r2, [r0, #0]
 8002f5c:	4831      	ldr	r0, [pc, #196]	; (8003024 <I2C_ITError+0xd8>)
 8002f5e:	3b28      	subs	r3, #40	; 0x28
 8002f60:	62e0      	str	r0, [r4, #44]	; 0x2c
 8002f62:	8562      	strh	r2, [r4, #42]	; 0x2a
 8002f64:	6c62      	ldr	r2, [r4, #68]	; 0x44
 8002f66:	4311      	orrs	r1, r2
 8002f68:	6461      	str	r1, [r4, #68]	; 0x44
 8002f6a:	2b02      	cmp	r3, #2
 8002f6c:	d82b      	bhi.n	8002fc6 <I2C_ITError+0x7a>
 8002f6e:	2103      	movs	r1, #3
 8002f70:	0020      	movs	r0, r4
 8002f72:	f7ff fc43 	bl	80027fc <I2C_Disable_IRQ>
 8002f76:	2328      	movs	r3, #40	; 0x28
 8002f78:	702b      	strb	r3, [r5, #0]
 8002f7a:	4b2b      	ldr	r3, [pc, #172]	; (8003028 <I2C_ITError+0xdc>)
 8002f7c:	6ba0      	ldr	r0, [r4, #56]	; 0x38
 8002f7e:	6363      	str	r3, [r4, #52]	; 0x34
 8002f80:	6b23      	ldr	r3, [r4, #48]	; 0x30
 8002f82:	2800      	cmp	r0, #0
 8002f84:	d02e      	beq.n	8002fe4 <I2C_ITError+0x98>
 8002f86:	001a      	movs	r2, r3
 8002f88:	2110      	movs	r1, #16
 8002f8a:	3a11      	subs	r2, #17
 8002f8c:	438a      	bics	r2, r1
 8002f8e:	d129      	bne.n	8002fe4 <I2C_ITError+0x98>
 8002f90:	6823      	ldr	r3, [r4, #0]
 8002f92:	681a      	ldr	r2, [r3, #0]
 8002f94:	0452      	lsls	r2, r2, #17
 8002f96:	d503      	bpl.n	8002fa0 <I2C_ITError+0x54>
 8002f98:	681a      	ldr	r2, [r3, #0]
 8002f9a:	4924      	ldr	r1, [pc, #144]	; (800302c <I2C_ITError+0xe0>)
 8002f9c:	400a      	ands	r2, r1
 8002f9e:	601a      	str	r2, [r3, #0]
 8002fa0:	f7ff fb38 	bl	8002614 <HAL_DMA_GetState>
 8002fa4:	2801      	cmp	r0, #1
 8002fa6:	d019      	beq.n	8002fdc <I2C_ITError+0x90>
 8002fa8:	6ba0      	ldr	r0, [r4, #56]	; 0x38
 8002faa:	4b21      	ldr	r3, [pc, #132]	; (8003030 <I2C_ITError+0xe4>)
 8002fac:	2200      	movs	r2, #0
 8002fae:	6343      	str	r3, [r0, #52]	; 0x34
 8002fb0:	0023      	movs	r3, r4
 8002fb2:	3340      	adds	r3, #64	; 0x40
 8002fb4:	701a      	strb	r2, [r3, #0]
 8002fb6:	f7ff fac1 	bl	800253c <HAL_DMA_Abort_IT>
 8002fba:	2800      	cmp	r0, #0
 8002fbc:	d011      	beq.n	8002fe2 <I2C_ITError+0x96>
 8002fbe:	6ba0      	ldr	r0, [r4, #56]	; 0x38
 8002fc0:	6b43      	ldr	r3, [r0, #52]	; 0x34
 8002fc2:	4798      	blx	r3
 8002fc4:	e00d      	b.n	8002fe2 <I2C_ITError+0x96>
 8002fc6:	491b      	ldr	r1, [pc, #108]	; (8003034 <I2C_ITError+0xe8>)
 8002fc8:	0020      	movs	r0, r4
 8002fca:	f7ff fc17 	bl	80027fc <I2C_Disable_IRQ>
 8002fce:	782b      	ldrb	r3, [r5, #0]
 8002fd0:	2b60      	cmp	r3, #96	; 0x60
 8002fd2:	d001      	beq.n	8002fd8 <I2C_ITError+0x8c>
 8002fd4:	2320      	movs	r3, #32
 8002fd6:	702b      	strb	r3, [r5, #0]
 8002fd8:	2300      	movs	r3, #0
 8002fda:	e7cf      	b.n	8002f7c <I2C_ITError+0x30>
 8002fdc:	0020      	movs	r0, r4
 8002fde:	f7ff ff9f 	bl	8002f20 <I2C_TreatErrorCallback>
 8002fe2:	bd70      	pop	{r4, r5, r6, pc}
 8002fe4:	6be0      	ldr	r0, [r4, #60]	; 0x3c
 8002fe6:	2800      	cmp	r0, #0
 8002fe8:	d0f8      	beq.n	8002fdc <I2C_ITError+0x90>
 8002fea:	2210      	movs	r2, #16
 8002fec:	3b12      	subs	r3, #18
 8002fee:	4393      	bics	r3, r2
 8002ff0:	d1f4      	bne.n	8002fdc <I2C_ITError+0x90>
 8002ff2:	6823      	ldr	r3, [r4, #0]
 8002ff4:	681a      	ldr	r2, [r3, #0]
 8002ff6:	0412      	lsls	r2, r2, #16
 8002ff8:	d503      	bpl.n	8003002 <I2C_ITError+0xb6>
 8002ffa:	681a      	ldr	r2, [r3, #0]
 8002ffc:	490e      	ldr	r1, [pc, #56]	; (8003038 <I2C_ITError+0xec>)
 8002ffe:	400a      	ands	r2, r1
 8003000:	601a      	str	r2, [r3, #0]
 8003002:	f7ff fb07 	bl	8002614 <HAL_DMA_GetState>
 8003006:	2801      	cmp	r0, #1
 8003008:	d0e8      	beq.n	8002fdc <I2C_ITError+0x90>
 800300a:	6be0      	ldr	r0, [r4, #60]	; 0x3c
 800300c:	4b08      	ldr	r3, [pc, #32]	; (8003030 <I2C_ITError+0xe4>)
 800300e:	2200      	movs	r2, #0
 8003010:	6343      	str	r3, [r0, #52]	; 0x34
 8003012:	0023      	movs	r3, r4
 8003014:	3340      	adds	r3, #64	; 0x40
 8003016:	701a      	strb	r2, [r3, #0]
 8003018:	f7ff fa90 	bl	800253c <HAL_DMA_Abort_IT>
 800301c:	2800      	cmp	r0, #0
 800301e:	d0e0      	beq.n	8002fe2 <I2C_ITError+0x96>
 8003020:	6be0      	ldr	r0, [r4, #60]	; 0x3c
 8003022:	e7cd      	b.n	8002fc0 <I2C_ITError+0x74>
 8003024:	ffff0000 	.word	0xffff0000
 8003028:	08003175 	.word	0x08003175
 800302c:	ffffbfff 	.word	0xffffbfff
 8003030:	08003307 	.word	0x08003307
 8003034:	00008003 	.word	0x00008003
 8003038:	ffff7fff 	.word	0xffff7fff

0800303c <I2C_ITSlaveCplt>:
 800303c:	b5f7      	push	{r0, r1, r2, r4, r5, r6, r7, lr}
 800303e:	6803      	ldr	r3, [r0, #0]
 8003040:	0006      	movs	r6, r0
 8003042:	681a      	ldr	r2, [r3, #0]
 8003044:	3641      	adds	r6, #65	; 0x41
 8003046:	9201      	str	r2, [sp, #4]
 8003048:	2220      	movs	r2, #32
 800304a:	7835      	ldrb	r5, [r6, #0]
 800304c:	61da      	str	r2, [r3, #28]
 800304e:	2308      	movs	r3, #8
 8003050:	0004      	movs	r4, r0
 8003052:	000f      	movs	r7, r1
 8003054:	439d      	bics	r5, r3
 8003056:	2d21      	cmp	r5, #33	; 0x21
 8003058:	d150      	bne.n	80030fc <I2C_ITSlaveCplt+0xc0>
 800305a:	4940      	ldr	r1, [pc, #256]	; (800315c <I2C_ITSlaveCplt+0x120>)
 800305c:	0020      	movs	r0, r4
 800305e:	f7ff fbcd 	bl	80027fc <I2C_Disable_IRQ>
 8003062:	6325      	str	r5, [r4, #48]	; 0x30
 8003064:	2280      	movs	r2, #128	; 0x80
 8003066:	6823      	ldr	r3, [r4, #0]
 8003068:	0212      	lsls	r2, r2, #8
 800306a:	6859      	ldr	r1, [r3, #4]
 800306c:	0020      	movs	r0, r4
 800306e:	430a      	orrs	r2, r1
 8003070:	605a      	str	r2, [r3, #4]
 8003072:	685a      	ldr	r2, [r3, #4]
 8003074:	493a      	ldr	r1, [pc, #232]	; (8003160 <I2C_ITSlaveCplt+0x124>)
 8003076:	400a      	ands	r2, r1
 8003078:	605a      	str	r2, [r3, #4]
 800307a:	f7ff fbb1 	bl	80027e0 <I2C_Flush_TXDR>
 800307e:	9b01      	ldr	r3, [sp, #4]
 8003080:	2201      	movs	r2, #1
 8003082:	045b      	lsls	r3, r3, #17
 8003084:	d53e      	bpl.n	8003104 <I2C_ITSlaveCplt+0xc8>
 8003086:	6822      	ldr	r2, [r4, #0]
 8003088:	4936      	ldr	r1, [pc, #216]	; (8003164 <I2C_ITSlaveCplt+0x128>)
 800308a:	6813      	ldr	r3, [r2, #0]
 800308c:	400b      	ands	r3, r1
 800308e:	6013      	str	r3, [r2, #0]
 8003090:	6ba3      	ldr	r3, [r4, #56]	; 0x38
 8003092:	2b00      	cmp	r3, #0
 8003094:	d003      	beq.n	800309e <I2C_ITSlaveCplt+0x62>
 8003096:	681b      	ldr	r3, [r3, #0]
 8003098:	685b      	ldr	r3, [r3, #4]
 800309a:	b29b      	uxth	r3, r3
 800309c:	8563      	strh	r3, [r4, #42]	; 0x2a
 800309e:	077b      	lsls	r3, r7, #29
 80030a0:	d511      	bpl.n	80030c6 <I2C_ITSlaveCplt+0x8a>
 80030a2:	2304      	movs	r3, #4
 80030a4:	439f      	bics	r7, r3
 80030a6:	6823      	ldr	r3, [r4, #0]
 80030a8:	6a62      	ldr	r2, [r4, #36]	; 0x24
 80030aa:	6a5b      	ldr	r3, [r3, #36]	; 0x24
 80030ac:	7013      	strb	r3, [r2, #0]
 80030ae:	6a63      	ldr	r3, [r4, #36]	; 0x24
 80030b0:	3301      	adds	r3, #1
 80030b2:	6263      	str	r3, [r4, #36]	; 0x24
 80030b4:	8d23      	ldrh	r3, [r4, #40]	; 0x28
 80030b6:	2b00      	cmp	r3, #0
 80030b8:	d005      	beq.n	80030c6 <I2C_ITSlaveCplt+0x8a>
 80030ba:	3b01      	subs	r3, #1
 80030bc:	8523      	strh	r3, [r4, #40]	; 0x28
 80030be:	8d63      	ldrh	r3, [r4, #42]	; 0x2a
 80030c0:	3b01      	subs	r3, #1
 80030c2:	b29b      	uxth	r3, r3
 80030c4:	8563      	strh	r3, [r4, #42]	; 0x2a
 80030c6:	8d63      	ldrh	r3, [r4, #42]	; 0x2a
 80030c8:	2b00      	cmp	r3, #0
 80030ca:	d003      	beq.n	80030d4 <I2C_ITSlaveCplt+0x98>
 80030cc:	2304      	movs	r3, #4
 80030ce:	6c62      	ldr	r2, [r4, #68]	; 0x44
 80030d0:	4313      	orrs	r3, r2
 80030d2:	6463      	str	r3, [r4, #68]	; 0x44
 80030d4:	0023      	movs	r3, r4
 80030d6:	2200      	movs	r2, #0
 80030d8:	3342      	adds	r3, #66	; 0x42
 80030da:	701a      	strb	r2, [r3, #0]
 80030dc:	6c65      	ldr	r5, [r4, #68]	; 0x44
 80030de:	6362      	str	r2, [r4, #52]	; 0x34
 80030e0:	4295      	cmp	r5, r2
 80030e2:	d01a      	beq.n	800311a <I2C_ITSlaveCplt+0xde>
 80030e4:	6c61      	ldr	r1, [r4, #68]	; 0x44
 80030e6:	0020      	movs	r0, r4
 80030e8:	f7ff ff30 	bl	8002f4c <I2C_ITError>
 80030ec:	7833      	ldrb	r3, [r6, #0]
 80030ee:	2b28      	cmp	r3, #40	; 0x28
 80030f0:	d103      	bne.n	80030fa <I2C_ITSlaveCplt+0xbe>
 80030f2:	0039      	movs	r1, r7
 80030f4:	0020      	movs	r0, r4
 80030f6:	f7ff fedb 	bl	8002eb0 <I2C_ITListenCplt>
 80030fa:	bdf7      	pop	{r0, r1, r2, r4, r5, r6, r7, pc}
 80030fc:	2d22      	cmp	r5, #34	; 0x22
 80030fe:	d1b1      	bne.n	8003064 <I2C_ITSlaveCplt+0x28>
 8003100:	4919      	ldr	r1, [pc, #100]	; (8003168 <I2C_ITSlaveCplt+0x12c>)
 8003102:	e7ab      	b.n	800305c <I2C_ITSlaveCplt+0x20>
 8003104:	9b01      	ldr	r3, [sp, #4]
 8003106:	0bdb      	lsrs	r3, r3, #15
 8003108:	4213      	tst	r3, r2
 800310a:	d0c8      	beq.n	800309e <I2C_ITSlaveCplt+0x62>
 800310c:	6822      	ldr	r2, [r4, #0]
 800310e:	4917      	ldr	r1, [pc, #92]	; (800316c <I2C_ITSlaveCplt+0x130>)
 8003110:	6813      	ldr	r3, [r2, #0]
 8003112:	400b      	ands	r3, r1
 8003114:	6013      	str	r3, [r2, #0]
 8003116:	6be3      	ldr	r3, [r4, #60]	; 0x3c
 8003118:	e7bb      	b.n	8003092 <I2C_ITSlaveCplt+0x56>
 800311a:	0027      	movs	r7, r4
 800311c:	6ae3      	ldr	r3, [r4, #44]	; 0x2c
 800311e:	4a14      	ldr	r2, [pc, #80]	; (8003170 <I2C_ITSlaveCplt+0x134>)
 8003120:	3740      	adds	r7, #64	; 0x40
 8003122:	4293      	cmp	r3, r2
 8003124:	d00c      	beq.n	8003140 <I2C_ITSlaveCplt+0x104>
 8003126:	0020      	movs	r0, r4
 8003128:	f7ff fe34 	bl	8002d94 <I2C_ITSlaveSeqCplt>
 800312c:	2320      	movs	r3, #32
 800312e:	4a10      	ldr	r2, [pc, #64]	; (8003170 <I2C_ITSlaveCplt+0x134>)
 8003130:	0020      	movs	r0, r4
 8003132:	62e2      	str	r2, [r4, #44]	; 0x2c
 8003134:	7033      	strb	r3, [r6, #0]
 8003136:	6325      	str	r5, [r4, #48]	; 0x30
 8003138:	703d      	strb	r5, [r7, #0]
 800313a:	f7ff feb8 	bl	8002eae <HAL_I2C_ListenCpltCallback>
 800313e:	e7dc      	b.n	80030fa <I2C_ITSlaveCplt+0xbe>
 8003140:	2320      	movs	r3, #32
 8003142:	7832      	ldrb	r2, [r6, #0]
 8003144:	0020      	movs	r0, r4
 8003146:	7033      	strb	r3, [r6, #0]
 8003148:	6325      	str	r5, [r4, #48]	; 0x30
 800314a:	703d      	strb	r5, [r7, #0]
 800314c:	2a22      	cmp	r2, #34	; 0x22
 800314e:	d102      	bne.n	8003156 <I2C_ITSlaveCplt+0x11a>
 8003150:	f7ff fe1e 	bl	8002d90 <HAL_I2C_SlaveRxCpltCallback>
 8003154:	e7d1      	b.n	80030fa <I2C_ITSlaveCplt+0xbe>
 8003156:	f7ff fe1a 	bl	8002d8e <HAL_I2C_SlaveTxCpltCallback>
 800315a:	e7ce      	b.n	80030fa <I2C_ITSlaveCplt+0xbe>
 800315c:	00008001 	.word	0x00008001
 8003160:	fe00e800 	.word	0xfe00e800
 8003164:	ffffbfff 	.word	0xffffbfff
 8003168:	00008002 	.word	0x00008002
 800316c:	ffff7fff 	.word	0xffff7fff
 8003170:	ffff0000 	.word	0xffff0000

08003174 <I2C_Slave_ISR_IT>:
 8003174:	0003      	movs	r3, r0
 8003176:	b5f7      	push	{r0, r1, r2, r4, r5, r6, r7, lr}
 8003178:	3340      	adds	r3, #64	; 0x40
 800317a:	9301      	str	r3, [sp, #4]
 800317c:	781b      	ldrb	r3, [r3, #0]
 800317e:	0004      	movs	r4, r0
 8003180:	6ac7      	ldr	r7, [r0, #44]	; 0x2c
 8003182:	000e      	movs	r6, r1
 8003184:	0015      	movs	r5, r2
 8003186:	2002      	movs	r0, #2
 8003188:	2b01      	cmp	r3, #1
 800318a:	d024      	beq.n	80031d6 <I2C_Slave_ISR_IT+0x62>
 800318c:	2301      	movs	r3, #1
 800318e:	9a01      	ldr	r2, [sp, #4]
 8003190:	7013      	strb	r3, [r2, #0]
 8003192:	094a      	lsrs	r2, r1, #5
 8003194:	421a      	tst	r2, r3
 8003196:	d005      	beq.n	80031a4 <I2C_Slave_ISR_IT+0x30>
 8003198:	096a      	lsrs	r2, r5, #5
 800319a:	421a      	tst	r2, r3
 800319c:	d002      	beq.n	80031a4 <I2C_Slave_ISR_IT+0x30>
 800319e:	0020      	movs	r0, r4
 80031a0:	f7ff ff4c 	bl	800303c <I2C_ITSlaveCplt>
 80031a4:	2301      	movs	r3, #1
 80031a6:	06f2      	lsls	r2, r6, #27
 80031a8:	d535      	bpl.n	8003216 <I2C_Slave_ISR_IT+0xa2>
 80031aa:	092a      	lsrs	r2, r5, #4
 80031ac:	421a      	tst	r2, r3
 80031ae:	d032      	beq.n	8003216 <I2C_Slave_ISR_IT+0xa2>
 80031b0:	8d63      	ldrh	r3, [r4, #42]	; 0x2a
 80031b2:	2b00      	cmp	r3, #0
 80031b4:	d120      	bne.n	80031f8 <I2C_Slave_ISR_IT+0x84>
 80031b6:	0023      	movs	r3, r4
 80031b8:	3341      	adds	r3, #65	; 0x41
 80031ba:	781a      	ldrb	r2, [r3, #0]
 80031bc:	2a28      	cmp	r2, #40	; 0x28
 80031be:	d10b      	bne.n	80031d8 <I2C_Slave_ISR_IT+0x64>
 80031c0:	2280      	movs	r2, #128	; 0x80
 80031c2:	0492      	lsls	r2, r2, #18
 80031c4:	4297      	cmp	r7, r2
 80031c6:	d107      	bne.n	80031d8 <I2C_Slave_ISR_IT+0x64>
 80031c8:	0031      	movs	r1, r6
 80031ca:	0020      	movs	r0, r4
 80031cc:	f7ff fe70 	bl	8002eb0 <I2C_ITListenCplt>
 80031d0:	2000      	movs	r0, #0
 80031d2:	9b01      	ldr	r3, [sp, #4]
 80031d4:	7018      	strb	r0, [r3, #0]
 80031d6:	bdfe      	pop	{r1, r2, r3, r4, r5, r6, r7, pc}
 80031d8:	2210      	movs	r2, #16
 80031da:	7819      	ldrb	r1, [r3, #0]
 80031dc:	6823      	ldr	r3, [r4, #0]
 80031de:	61da      	str	r2, [r3, #28]
 80031e0:	2929      	cmp	r1, #41	; 0x29
 80031e2:	d1f5      	bne.n	80031d0 <I2C_Slave_ISR_IT+0x5c>
 80031e4:	492d      	ldr	r1, [pc, #180]	; (800329c <I2C_Slave_ISR_IT+0x128>)
 80031e6:	428f      	cmp	r7, r1
 80031e8:	d0f2      	beq.n	80031d0 <I2C_Slave_ISR_IT+0x5c>
 80031ea:	0020      	movs	r0, r4
 80031ec:	f7ff faf8 	bl	80027e0 <I2C_Flush_TXDR>
 80031f0:	0020      	movs	r0, r4
 80031f2:	f7ff fdcf 	bl	8002d94 <I2C_ITSlaveSeqCplt>
 80031f6:	e7eb      	b.n	80031d0 <I2C_Slave_ISR_IT+0x5c>
 80031f8:	2210      	movs	r2, #16
 80031fa:	6823      	ldr	r3, [r4, #0]
 80031fc:	61da      	str	r2, [r3, #28]
 80031fe:	2304      	movs	r3, #4
 8003200:	6c62      	ldr	r2, [r4, #68]	; 0x44
 8003202:	4313      	orrs	r3, r2
 8003204:	6463      	str	r3, [r4, #68]	; 0x44
 8003206:	4b26      	ldr	r3, [pc, #152]	; (80032a0 <I2C_Slave_ISR_IT+0x12c>)
 8003208:	421f      	tst	r7, r3
 800320a:	d1e1      	bne.n	80031d0 <I2C_Slave_ISR_IT+0x5c>
 800320c:	6c61      	ldr	r1, [r4, #68]	; 0x44
 800320e:	0020      	movs	r0, r4
 8003210:	f7ff fe9c 	bl	8002f4c <I2C_ITError>
 8003214:	e7dc      	b.n	80031d0 <I2C_Slave_ISR_IT+0x5c>
 8003216:	2301      	movs	r3, #1
 8003218:	0772      	lsls	r2, r6, #29
 800321a:	d51a      	bpl.n	8003252 <I2C_Slave_ISR_IT+0xde>
 800321c:	08aa      	lsrs	r2, r5, #2
 800321e:	421a      	tst	r2, r3
 8003220:	d017      	beq.n	8003252 <I2C_Slave_ISR_IT+0xde>
 8003222:	8d63      	ldrh	r3, [r4, #42]	; 0x2a
 8003224:	2b00      	cmp	r3, #0
 8003226:	d00d      	beq.n	8003244 <I2C_Slave_ISR_IT+0xd0>
 8003228:	6823      	ldr	r3, [r4, #0]
 800322a:	6a62      	ldr	r2, [r4, #36]	; 0x24
 800322c:	6a5b      	ldr	r3, [r3, #36]	; 0x24
 800322e:	7013      	strb	r3, [r2, #0]
 8003230:	6a63      	ldr	r3, [r4, #36]	; 0x24
 8003232:	3301      	adds	r3, #1
 8003234:	6263      	str	r3, [r4, #36]	; 0x24
 8003236:	8d23      	ldrh	r3, [r4, #40]	; 0x28
 8003238:	3b01      	subs	r3, #1
 800323a:	8523      	strh	r3, [r4, #40]	; 0x28
 800323c:	8d63      	ldrh	r3, [r4, #42]	; 0x2a
 800323e:	3b01      	subs	r3, #1
 8003240:	b29b      	uxth	r3, r3
 8003242:	8563      	strh	r3, [r4, #42]	; 0x2a
 8003244:	8d63      	ldrh	r3, [r4, #42]	; 0x2a
 8003246:	2b00      	cmp	r3, #0
 8003248:	d1c2      	bne.n	80031d0 <I2C_Slave_ISR_IT+0x5c>
 800324a:	4b14      	ldr	r3, [pc, #80]	; (800329c <I2C_Slave_ISR_IT+0x128>)
 800324c:	429f      	cmp	r7, r3
 800324e:	d0bf      	beq.n	80031d0 <I2C_Slave_ISR_IT+0x5c>
 8003250:	e7ce      	b.n	80031f0 <I2C_Slave_ISR_IT+0x7c>
 8003252:	2301      	movs	r3, #1
 8003254:	0732      	lsls	r2, r6, #28
 8003256:	d506      	bpl.n	8003266 <I2C_Slave_ISR_IT+0xf2>
 8003258:	08ea      	lsrs	r2, r5, #3
 800325a:	421a      	tst	r2, r3
 800325c:	d003      	beq.n	8003266 <I2C_Slave_ISR_IT+0xf2>
 800325e:	0020      	movs	r0, r4
 8003260:	f7ff fddb 	bl	8002e1a <I2C_ITAddrCplt.isra.9>
 8003264:	e7b4      	b.n	80031d0 <I2C_Slave_ISR_IT+0x5c>
 8003266:	2301      	movs	r3, #1
 8003268:	07b2      	lsls	r2, r6, #30
 800326a:	d5b1      	bpl.n	80031d0 <I2C_Slave_ISR_IT+0x5c>
 800326c:	40dd      	lsrs	r5, r3
 800326e:	421d      	tst	r5, r3
 8003270:	d0ae      	beq.n	80031d0 <I2C_Slave_ISR_IT+0x5c>
 8003272:	8d63      	ldrh	r3, [r4, #42]	; 0x2a
 8003274:	2b00      	cmp	r3, #0
 8003276:	d00d      	beq.n	8003294 <I2C_Slave_ISR_IT+0x120>
 8003278:	6a63      	ldr	r3, [r4, #36]	; 0x24
 800327a:	6822      	ldr	r2, [r4, #0]
 800327c:	7819      	ldrb	r1, [r3, #0]
 800327e:	3301      	adds	r3, #1
 8003280:	6291      	str	r1, [r2, #40]	; 0x28
 8003282:	6263      	str	r3, [r4, #36]	; 0x24
 8003284:	8d63      	ldrh	r3, [r4, #42]	; 0x2a
 8003286:	3b01      	subs	r3, #1
 8003288:	b29b      	uxth	r3, r3
 800328a:	8563      	strh	r3, [r4, #42]	; 0x2a
 800328c:	8d23      	ldrh	r3, [r4, #40]	; 0x28
 800328e:	3b01      	subs	r3, #1
 8003290:	8523      	strh	r3, [r4, #40]	; 0x28
 8003292:	e79d      	b.n	80031d0 <I2C_Slave_ISR_IT+0x5c>
 8003294:	4b02      	ldr	r3, [pc, #8]	; (80032a0 <I2C_Slave_ISR_IT+0x12c>)
 8003296:	421f      	tst	r7, r3
 8003298:	d0aa      	beq.n	80031f0 <I2C_Slave_ISR_IT+0x7c>
 800329a:	e799      	b.n	80031d0 <I2C_Slave_ISR_IT+0x5c>
 800329c:	ffff0000 	.word	0xffff0000
 80032a0:	feffffff 	.word	0xfeffffff

080032a4 <HAL_I2C_ER_IRQHandler>:
 80032a4:	6803      	ldr	r3, [r0, #0]
 80032a6:	b570      	push	{r4, r5, r6, lr}
 80032a8:	699c      	ldr	r4, [r3, #24]
 80032aa:	2101      	movs	r1, #1
 80032ac:	681a      	ldr	r2, [r3, #0]
 80032ae:	05e5      	lsls	r5, r4, #23
 80032b0:	d508      	bpl.n	80032c4 <HAL_I2C_ER_IRQHandler+0x20>
 80032b2:	09d5      	lsrs	r5, r2, #7
 80032b4:	420d      	tst	r5, r1
 80032b6:	d005      	beq.n	80032c4 <HAL_I2C_ER_IRQHandler+0x20>
 80032b8:	6c45      	ldr	r5, [r0, #68]	; 0x44
 80032ba:	4329      	orrs	r1, r5
 80032bc:	6441      	str	r1, [r0, #68]	; 0x44
 80032be:	2180      	movs	r1, #128	; 0x80
 80032c0:	0049      	lsls	r1, r1, #1
 80032c2:	61d9      	str	r1, [r3, #28]
 80032c4:	2101      	movs	r1, #1
 80032c6:	0565      	lsls	r5, r4, #21
 80032c8:	d509      	bpl.n	80032de <HAL_I2C_ER_IRQHandler+0x3a>
 80032ca:	09d5      	lsrs	r5, r2, #7
 80032cc:	420d      	tst	r5, r1
 80032ce:	d006      	beq.n	80032de <HAL_I2C_ER_IRQHandler+0x3a>
 80032d0:	6c45      	ldr	r5, [r0, #68]	; 0x44
 80032d2:	3107      	adds	r1, #7
 80032d4:	4329      	orrs	r1, r5
 80032d6:	6441      	str	r1, [r0, #68]	; 0x44
 80032d8:	2180      	movs	r1, #128	; 0x80
 80032da:	00c9      	lsls	r1, r1, #3
 80032dc:	61d9      	str	r1, [r3, #28]
 80032de:	2101      	movs	r1, #1
 80032e0:	05a4      	lsls	r4, r4, #22
 80032e2:	d509      	bpl.n	80032f8 <HAL_I2C_ER_IRQHandler+0x54>
 80032e4:	09d2      	lsrs	r2, r2, #7
 80032e6:	420a      	tst	r2, r1
 80032e8:	d006      	beq.n	80032f8 <HAL_I2C_ER_IRQHandler+0x54>
 80032ea:	2202      	movs	r2, #2
 80032ec:	6c41      	ldr	r1, [r0, #68]	; 0x44
 80032ee:	430a      	orrs	r2, r1
 80032f0:	6442      	str	r2, [r0, #68]	; 0x44
 80032f2:	2280      	movs	r2, #128	; 0x80
 80032f4:	0092      	lsls	r2, r2, #2
 80032f6:	61da      	str	r2, [r3, #28]
 80032f8:	230b      	movs	r3, #11
 80032fa:	6c41      	ldr	r1, [r0, #68]	; 0x44
 80032fc:	4219      	tst	r1, r3
 80032fe:	d001      	beq.n	8003304 <HAL_I2C_ER_IRQHandler+0x60>
 8003300:	f7ff fe24 	bl	8002f4c <I2C_ITError>
 8003304:	bd70      	pop	{r4, r5, r6, pc}

08003306 <I2C_DMAAbort>:
 8003306:	6a40      	ldr	r0, [r0, #36]	; 0x24
 8003308:	b510      	push	{r4, lr}
 800330a:	6b83      	ldr	r3, [r0, #56]	; 0x38
 800330c:	2b00      	cmp	r3, #0
 800330e:	d001      	beq.n	8003314 <I2C_DMAAbort+0xe>
 8003310:	2200      	movs	r2, #0
 8003312:	635a      	str	r2, [r3, #52]	; 0x34
 8003314:	6bc3      	ldr	r3, [r0, #60]	; 0x3c
 8003316:	2b00      	cmp	r3, #0
 8003318:	d001      	beq.n	800331e <I2C_DMAAbort+0x18>
 800331a:	2200      	movs	r2, #0
 800331c:	635a      	str	r2, [r3, #52]	; 0x34
 800331e:	f7ff fdff 	bl	8002f20 <I2C_TreatErrorCallback>
 8003322:	bd10      	pop	{r4, pc}

08003324 <HAL_I2CEx_ConfigAnalogFilter>:
 8003324:	b5f0      	push	{r4, r5, r6, r7, lr}
 8003326:	0004      	movs	r4, r0
 8003328:	3441      	adds	r4, #65	; 0x41
 800332a:	7822      	ldrb	r2, [r4, #0]
 800332c:	0003      	movs	r3, r0
 800332e:	b2d2      	uxtb	r2, r2
 8003330:	2002      	movs	r0, #2
 8003332:	2a20      	cmp	r2, #32
 8003334:	d118      	bne.n	8003368 <HAL_I2CEx_ConfigAnalogFilter+0x44>
 8003336:	001d      	movs	r5, r3
 8003338:	3540      	adds	r5, #64	; 0x40
 800333a:	782e      	ldrb	r6, [r5, #0]
 800333c:	2e01      	cmp	r6, #1
 800333e:	d013      	beq.n	8003368 <HAL_I2CEx_ConfigAnalogFilter+0x44>
 8003340:	681b      	ldr	r3, [r3, #0]
 8003342:	3022      	adds	r0, #34	; 0x22
 8003344:	7020      	strb	r0, [r4, #0]
 8003346:	681e      	ldr	r6, [r3, #0]
 8003348:	3823      	subs	r0, #35	; 0x23
 800334a:	4386      	bics	r6, r0
 800334c:	601e      	str	r6, [r3, #0]
 800334e:	681e      	ldr	r6, [r3, #0]
 8003350:	4f06      	ldr	r7, [pc, #24]	; (800336c <HAL_I2CEx_ConfigAnalogFilter+0x48>)
 8003352:	403e      	ands	r6, r7
 8003354:	601e      	str	r6, [r3, #0]
 8003356:	681e      	ldr	r6, [r3, #0]
 8003358:	4331      	orrs	r1, r6
 800335a:	6019      	str	r1, [r3, #0]
 800335c:	6819      	ldr	r1, [r3, #0]
 800335e:	4308      	orrs	r0, r1
 8003360:	6018      	str	r0, [r3, #0]
 8003362:	2000      	movs	r0, #0
 8003364:	7022      	strb	r2, [r4, #0]
 8003366:	7028      	strb	r0, [r5, #0]
 8003368:	bdf0      	pop	{r4, r5, r6, r7, pc}
 800336a:	46c0      	nop			; (mov r8, r8)
 800336c:	ffffefff 	.word	0xffffefff

08003370 <HAL_I2CEx_ConfigDigitalFilter>:
 8003370:	b5f0      	push	{r4, r5, r6, r7, lr}
 8003372:	0005      	movs	r5, r0
 8003374:	3541      	adds	r5, #65	; 0x41
 8003376:	782a      	ldrb	r2, [r5, #0]
 8003378:	0003      	movs	r3, r0
 800337a:	b2d2      	uxtb	r2, r2
 800337c:	2002      	movs	r0, #2
 800337e:	2a20      	cmp	r2, #32
 8003380:	d117      	bne.n	80033b2 <HAL_I2CEx_ConfigDigitalFilter+0x42>
 8003382:	001c      	movs	r4, r3
 8003384:	3440      	adds	r4, #64	; 0x40
 8003386:	7826      	ldrb	r6, [r4, #0]
 8003388:	2e01      	cmp	r6, #1
 800338a:	d012      	beq.n	80033b2 <HAL_I2CEx_ConfigDigitalFilter+0x42>
 800338c:	681b      	ldr	r3, [r3, #0]
 800338e:	3022      	adds	r0, #34	; 0x22
 8003390:	7028      	strb	r0, [r5, #0]
 8003392:	681e      	ldr	r6, [r3, #0]
 8003394:	3823      	subs	r0, #35	; 0x23
 8003396:	4386      	bics	r6, r0
 8003398:	601e      	str	r6, [r3, #0]
 800339a:	681e      	ldr	r6, [r3, #0]
 800339c:	4f05      	ldr	r7, [pc, #20]	; (80033b4 <HAL_I2CEx_ConfigDigitalFilter+0x44>)
 800339e:	0209      	lsls	r1, r1, #8
 80033a0:	403e      	ands	r6, r7
 80033a2:	4331      	orrs	r1, r6
 80033a4:	6019      	str	r1, [r3, #0]
 80033a6:	6819      	ldr	r1, [r3, #0]
 80033a8:	4308      	orrs	r0, r1
 80033aa:	6018      	str	r0, [r3, #0]
 80033ac:	2000      	movs	r0, #0
 80033ae:	702a      	strb	r2, [r5, #0]
 80033b0:	7020      	strb	r0, [r4, #0]
 80033b2:	bdf0      	pop	{r4, r5, r6, r7, pc}
 80033b4:	fffff0ff 	.word	0xfffff0ff

080033b8 <HAL_PCD_Init>:
 80033b8:	b5f0      	push	{r4, r5, r6, r7, lr}
 80033ba:	0004      	movs	r4, r0
 80033bc:	b087      	sub	sp, #28
 80033be:	2501      	movs	r5, #1
 80033c0:	2800      	cmp	r0, #0
 80033c2:	d032      	beq.n	800342a <HAL_PCD_Init+0x72>
 80033c4:	4d31      	ldr	r5, [pc, #196]	; (800348c <HAL_PCD_Init+0xd4>)
 80033c6:	5d43      	ldrb	r3, [r0, r5]
 80033c8:	b2db      	uxtb	r3, r3
 80033ca:	2b00      	cmp	r3, #0
 80033cc:	d104      	bne.n	80033d8 <HAL_PCD_Init+0x20>
 80033ce:	22aa      	movs	r2, #170	; 0xaa
 80033d0:	0092      	lsls	r2, r2, #2
 80033d2:	5483      	strb	r3, [r0, r2]
 80033d4:	f003 fc40 	bl	8006c58 <HAL_PCD_MspInit>
 80033d8:	2303      	movs	r3, #3
 80033da:	6820      	ldr	r0, [r4, #0]
 80033dc:	5563      	strb	r3, [r4, r5]
 80033de:	f002 f883 	bl	80054e8 <USB_DisableGlobalInt>
 80033e2:	2300      	movs	r3, #0
 80033e4:	2701      	movs	r7, #1
 80033e6:	0019      	movs	r1, r3
 80033e8:	6860      	ldr	r0, [r4, #4]
 80033ea:	4283      	cmp	r3, r0
 80033ec:	d320      	bcc.n	8003430 <HAL_PCD_Init+0x78>
 80033ee:	2200      	movs	r2, #0
 80033f0:	2628      	movs	r6, #40	; 0x28
 80033f2:	0011      	movs	r1, r2
 80033f4:	4290      	cmp	r0, r2
 80033f6:	d834      	bhi.n	8003462 <HAL_PCD_Init+0xaa>
 80033f8:	0023      	movs	r3, r4
 80033fa:	466a      	mov	r2, sp
 80033fc:	3310      	adds	r3, #16
 80033fe:	cb43      	ldmia	r3!, {r0, r1, r6}
 8003400:	c243      	stmia	r2!, {r0, r1, r6}
 8003402:	cb03      	ldmia	r3!, {r0, r1}
 8003404:	c203      	stmia	r2!, {r0, r1}
 8003406:	68a2      	ldr	r2, [r4, #8]
 8003408:	68e3      	ldr	r3, [r4, #12]
 800340a:	6861      	ldr	r1, [r4, #4]
 800340c:	6820      	ldr	r0, [r4, #0]
 800340e:	f002 f875 	bl	80054fc <USB_DevInit>
 8003412:	2300      	movs	r3, #0
 8003414:	1d62      	adds	r2, r4, #5
 8003416:	77d3      	strb	r3, [r2, #31]
 8003418:	2201      	movs	r2, #1
 800341a:	5562      	strb	r2, [r4, r5]
 800341c:	001d      	movs	r5, r3
 800341e:	69e3      	ldr	r3, [r4, #28]
 8003420:	4293      	cmp	r3, r2
 8003422:	d102      	bne.n	800342a <HAL_PCD_Init+0x72>
 8003424:	0020      	movs	r0, r4
 8003426:	f000 fdb2 	bl	8003f8e <HAL_PCDEx_ActivateLPM>
 800342a:	0028      	movs	r0, r5
 800342c:	b007      	add	sp, #28
 800342e:	bdf0      	pop	{r4, r5, r6, r7, pc}
 8003430:	2629      	movs	r6, #41	; 0x29
 8003432:	2228      	movs	r2, #40	; 0x28
 8003434:	46b4      	mov	ip, r6
 8003436:	435a      	muls	r2, r3
 8003438:	18a2      	adds	r2, r4, r2
 800343a:	4494      	add	ip, r2
 800343c:	4666      	mov	r6, ip
 800343e:	7037      	strb	r7, [r6, #0]
 8003440:	2628      	movs	r6, #40	; 0x28
 8003442:	46b4      	mov	ip, r6
 8003444:	4494      	add	ip, r2
 8003446:	4666      	mov	r6, ip
 8003448:	7033      	strb	r3, [r6, #0]
 800344a:	262b      	movs	r6, #43	; 0x2b
 800344c:	46b4      	mov	ip, r6
 800344e:	4494      	add	ip, r2
 8003450:	4666      	mov	r6, ip
 8003452:	86d3      	strh	r3, [r2, #54]	; 0x36
 8003454:	3301      	adds	r3, #1
 8003456:	7031      	strb	r1, [r6, #0]
 8003458:	b2db      	uxtb	r3, r3
 800345a:	6391      	str	r1, [r2, #56]	; 0x38
 800345c:	63d1      	str	r1, [r2, #60]	; 0x3c
 800345e:	6411      	str	r1, [r2, #64]	; 0x40
 8003460:	e7c3      	b.n	80033ea <HAL_PCD_Init+0x32>
 8003462:	0033      	movs	r3, r6
 8003464:	4353      	muls	r3, r2
 8003466:	18e3      	adds	r3, r4, r3
 8003468:	001f      	movs	r7, r3
 800346a:	376a      	adds	r7, #106	; 0x6a
 800346c:	37ff      	adds	r7, #255	; 0xff
 800346e:	7039      	strb	r1, [r7, #0]
 8003470:	3f01      	subs	r7, #1
 8003472:	703a      	strb	r2, [r7, #0]
 8003474:	70f9      	strb	r1, [r7, #3]
 8003476:	3381      	adds	r3, #129	; 0x81
 8003478:	3f6c      	subs	r7, #108	; 0x6c
 800347a:	67f9      	str	r1, [r7, #124]	; 0x7c
 800347c:	33ff      	adds	r3, #255	; 0xff
 800347e:	3780      	adds	r7, #128	; 0x80
 8003480:	3201      	adds	r2, #1
 8003482:	6039      	str	r1, [r7, #0]
 8003484:	b2d2      	uxtb	r2, r2
 8003486:	6019      	str	r1, [r3, #0]
 8003488:	e7b4      	b.n	80033f4 <HAL_PCD_Init+0x3c>
 800348a:	46c0      	nop			; (mov r8, r8)
 800348c:	000002a9 	.word	0x000002a9

08003490 <HAL_PCD_Start>:
 8003490:	b570      	push	{r4, r5, r6, lr}
 8003492:	25aa      	movs	r5, #170	; 0xaa
 8003494:	00ad      	lsls	r5, r5, #2
 8003496:	5d43      	ldrb	r3, [r0, r5]
 8003498:	0004      	movs	r4, r0
 800349a:	2002      	movs	r0, #2
 800349c:	2b01      	cmp	r3, #1
 800349e:	d009      	beq.n	80034b4 <HAL_PCD_Start+0x24>
 80034a0:	2301      	movs	r3, #1
 80034a2:	6820      	ldr	r0, [r4, #0]
 80034a4:	5563      	strb	r3, [r4, r5]
 80034a6:	f002 f815 	bl	80054d4 <USB_EnableGlobalInt>
 80034aa:	6820      	ldr	r0, [r4, #0]
 80034ac:	f002 fa61 	bl	8005972 <USB_DevConnect>
 80034b0:	2000      	movs	r0, #0
 80034b2:	5560      	strb	r0, [r4, r5]
 80034b4:	bd70      	pop	{r4, r5, r6, pc}

080034b6 <HAL_PCD_SetAddress>:
 80034b6:	b570      	push	{r4, r5, r6, lr}
 80034b8:	25aa      	movs	r5, #170	; 0xaa
 80034ba:	00ad      	lsls	r5, r5, #2
 80034bc:	5d43      	ldrb	r3, [r0, r5]
 80034be:	0004      	movs	r4, r0
 80034c0:	2002      	movs	r0, #2
 80034c2:	2b01      	cmp	r3, #1
 80034c4:	d008      	beq.n	80034d8 <HAL_PCD_SetAddress+0x22>
 80034c6:	2301      	movs	r3, #1
 80034c8:	5563      	strb	r3, [r4, r5]
 80034ca:	1d63      	adds	r3, r4, #5
 80034cc:	77d9      	strb	r1, [r3, #31]
 80034ce:	6820      	ldr	r0, [r4, #0]
 80034d0:	f002 fa48 	bl	8005964 <USB_SetDevAddress>
 80034d4:	2000      	movs	r0, #0
 80034d6:	5560      	strb	r0, [r4, r5]
 80034d8:	bd70      	pop	{r4, r5, r6, pc}
	...

080034dc <HAL_PCD_IRQHandler>:
 80034dc:	b5f0      	push	{r4, r5, r6, r7, lr}
 80034de:	0004      	movs	r4, r0
 80034e0:	b085      	sub	sp, #20
 80034e2:	6800      	ldr	r0, [r0, #0]
 80034e4:	f002 fa4d 	bl	8005982 <USB_ReadInterrupts>
 80034e8:	0403      	lsls	r3, r0, #16
 80034ea:	d500      	bpl.n	80034ee <HAL_PCD_IRQHandler+0x12>
 80034ec:	e0d8      	b.n	80036a0 <HAL_PCD_IRQHandler+0x1c4>
 80034ee:	6820      	ldr	r0, [r4, #0]
 80034f0:	f002 fa47 	bl	8005982 <USB_ReadInterrupts>
 80034f4:	0543      	lsls	r3, r0, #21
 80034f6:	d50c      	bpl.n	8003512 <HAL_PCD_IRQHandler+0x36>
 80034f8:	6823      	ldr	r3, [r4, #0]
 80034fa:	49af      	ldr	r1, [pc, #700]	; (80037b8 <HAL_PCD_IRQHandler+0x2dc>)
 80034fc:	3306      	adds	r3, #6
 80034fe:	8fda      	ldrh	r2, [r3, #62]	; 0x3e
 8003500:	0020      	movs	r0, r4
 8003502:	400a      	ands	r2, r1
 8003504:	87da      	strh	r2, [r3, #62]	; 0x3e
 8003506:	f003 fbeb 	bl	8006ce0 <HAL_PCD_ResetCallback>
 800350a:	2100      	movs	r1, #0
 800350c:	0020      	movs	r0, r4
 800350e:	f7ff ffd2 	bl	80034b6 <HAL_PCD_SetAddress>
 8003512:	6820      	ldr	r0, [r4, #0]
 8003514:	f002 fa35 	bl	8005982 <USB_ReadInterrupts>
 8003518:	0443      	lsls	r3, r0, #17
 800351a:	d505      	bpl.n	8003528 <HAL_PCD_IRQHandler+0x4c>
 800351c:	6823      	ldr	r3, [r4, #0]
 800351e:	49a7      	ldr	r1, [pc, #668]	; (80037bc <HAL_PCD_IRQHandler+0x2e0>)
 8003520:	3306      	adds	r3, #6
 8003522:	8fda      	ldrh	r2, [r3, #62]	; 0x3e
 8003524:	400a      	ands	r2, r1
 8003526:	87da      	strh	r2, [r3, #62]	; 0x3e
 8003528:	6820      	ldr	r0, [r4, #0]
 800352a:	f002 fa2a 	bl	8005982 <USB_ReadInterrupts>
 800352e:	0483      	lsls	r3, r0, #18
 8003530:	d505      	bpl.n	800353e <HAL_PCD_IRQHandler+0x62>
 8003532:	6823      	ldr	r3, [r4, #0]
 8003534:	49a2      	ldr	r1, [pc, #648]	; (80037c0 <HAL_PCD_IRQHandler+0x2e4>)
 8003536:	3306      	adds	r3, #6
 8003538:	8fda      	ldrh	r2, [r3, #62]	; 0x3e
 800353a:	400a      	ands	r2, r1
 800353c:	87da      	strh	r2, [r3, #62]	; 0x3e
 800353e:	6820      	ldr	r0, [r4, #0]
 8003540:	f002 fa1f 	bl	8005982 <USB_ReadInterrupts>
 8003544:	04c3      	lsls	r3, r0, #19
 8003546:	d51c      	bpl.n	8003582 <HAL_PCD_IRQHandler+0xa6>
 8003548:	2104      	movs	r1, #4
 800354a:	6823      	ldr	r3, [r4, #0]
 800354c:	3302      	adds	r3, #2
 800354e:	8fda      	ldrh	r2, [r3, #62]	; 0x3e
 8003550:	438a      	bics	r2, r1
 8003552:	87da      	strh	r2, [r3, #62]	; 0x3e
 8003554:	8fda      	ldrh	r2, [r3, #62]	; 0x3e
 8003556:	1849      	adds	r1, r1, r1
 8003558:	438a      	bics	r2, r1
 800355a:	87da      	strh	r2, [r3, #62]	; 0x3e
 800355c:	23b8      	movs	r3, #184	; 0xb8
 800355e:	009b      	lsls	r3, r3, #2
 8003560:	5ce2      	ldrb	r2, [r4, r3]
 8003562:	2a01      	cmp	r2, #1
 8003564:	d104      	bne.n	8003570 <HAL_PCD_IRQHandler+0x94>
 8003566:	2100      	movs	r1, #0
 8003568:	0020      	movs	r0, r4
 800356a:	54e1      	strb	r1, [r4, r3]
 800356c:	f000 fd23 	bl	8003fb6 <HAL_PCDEx_LPM_Callback>
 8003570:	0020      	movs	r0, r4
 8003572:	f003 fbd9 	bl	8006d28 <HAL_PCD_ResumeCallback>
 8003576:	6823      	ldr	r3, [r4, #0]
 8003578:	4992      	ldr	r1, [pc, #584]	; (80037c4 <HAL_PCD_IRQHandler+0x2e8>)
 800357a:	3306      	adds	r3, #6
 800357c:	8fda      	ldrh	r2, [r3, #62]	; 0x3e
 800357e:	400a      	ands	r2, r1
 8003580:	87da      	strh	r2, [r3, #62]	; 0x3e
 8003582:	6820      	ldr	r0, [r4, #0]
 8003584:	f002 f9fd 	bl	8005982 <USB_ReadInterrupts>
 8003588:	0503      	lsls	r3, r0, #20
 800358a:	d511      	bpl.n	80035b0 <HAL_PCD_IRQHandler+0xd4>
 800358c:	2108      	movs	r1, #8
 800358e:	6823      	ldr	r3, [r4, #0]
 8003590:	1c9a      	adds	r2, r3, #2
 8003592:	8fd0      	ldrh	r0, [r2, #62]	; 0x3e
 8003594:	3306      	adds	r3, #6
 8003596:	4301      	orrs	r1, r0
 8003598:	87d1      	strh	r1, [r2, #62]	; 0x3e
 800359a:	8fd9      	ldrh	r1, [r3, #62]	; 0x3e
 800359c:	488a      	ldr	r0, [pc, #552]	; (80037c8 <HAL_PCD_IRQHandler+0x2ec>)
 800359e:	4001      	ands	r1, r0
 80035a0:	87d9      	strh	r1, [r3, #62]	; 0x3e
 80035a2:	2304      	movs	r3, #4
 80035a4:	8fd1      	ldrh	r1, [r2, #62]	; 0x3e
 80035a6:	0020      	movs	r0, r4
 80035a8:	430b      	orrs	r3, r1
 80035aa:	87d3      	strh	r3, [r2, #62]	; 0x3e
 80035ac:	f003 fbaa 	bl	8006d04 <HAL_PCD_SuspendCallback>
 80035b0:	6820      	ldr	r0, [r4, #0]
 80035b2:	f002 f9e6 	bl	8005982 <USB_ReadInterrupts>
 80035b6:	2580      	movs	r5, #128	; 0x80
 80035b8:	4228      	tst	r0, r5
 80035ba:	d021      	beq.n	8003600 <HAL_PCD_IRQHandler+0x124>
 80035bc:	20b8      	movs	r0, #184	; 0xb8
 80035be:	6823      	ldr	r3, [r4, #0]
 80035c0:	0080      	lsls	r0, r0, #2
 80035c2:	1d99      	adds	r1, r3, #6
 80035c4:	8fca      	ldrh	r2, [r1, #62]	; 0x3e
 80035c6:	43aa      	bics	r2, r5
 80035c8:	87ca      	strh	r2, [r1, #62]	; 0x3e
 80035ca:	5c22      	ldrb	r2, [r4, r0]
 80035cc:	2a00      	cmp	r2, #0
 80035ce:	d001      	beq.n	80035d4 <HAL_PCD_IRQHandler+0xf8>
 80035d0:	f000 fbba 	bl	8003d48 <HAL_PCD_IRQHandler+0x86c>
 80035d4:	1c99      	adds	r1, r3, #2
 80035d6:	8fcd      	ldrh	r5, [r1, #62]	; 0x3e
 80035d8:	3204      	adds	r2, #4
 80035da:	432a      	orrs	r2, r5
 80035dc:	87ca      	strh	r2, [r1, #62]	; 0x3e
 80035de:	2208      	movs	r2, #8
 80035e0:	8fcd      	ldrh	r5, [r1, #62]	; 0x3e
 80035e2:	3354      	adds	r3, #84	; 0x54
 80035e4:	432a      	orrs	r2, r5
 80035e6:	87ca      	strh	r2, [r1, #62]	; 0x3e
 80035e8:	2101      	movs	r1, #1
 80035ea:	223c      	movs	r2, #60	; 0x3c
 80035ec:	5421      	strb	r1, [r4, r0]
 80035ee:	881b      	ldrh	r3, [r3, #0]
 80035f0:	0020      	movs	r0, r4
 80035f2:	089b      	lsrs	r3, r3, #2
 80035f4:	4013      	ands	r3, r2
 80035f6:	22b9      	movs	r2, #185	; 0xb9
 80035f8:	0092      	lsls	r2, r2, #2
 80035fa:	50a3      	str	r3, [r4, r2]
 80035fc:	f000 fcdb 	bl	8003fb6 <HAL_PCDEx_LPM_Callback>
 8003600:	6820      	ldr	r0, [r4, #0]
 8003602:	f002 f9be 	bl	8005982 <USB_ReadInterrupts>
 8003606:	0583      	lsls	r3, r0, #22
 8003608:	d508      	bpl.n	800361c <HAL_PCD_IRQHandler+0x140>
 800360a:	6823      	ldr	r3, [r4, #0]
 800360c:	496f      	ldr	r1, [pc, #444]	; (80037cc <HAL_PCD_IRQHandler+0x2f0>)
 800360e:	3306      	adds	r3, #6
 8003610:	8fda      	ldrh	r2, [r3, #62]	; 0x3e
 8003612:	0020      	movs	r0, r4
 8003614:	400a      	ands	r2, r1
 8003616:	87da      	strh	r2, [r3, #62]	; 0x3e
 8003618:	f003 fb5b 	bl	8006cd2 <HAL_PCD_SOFCallback>
 800361c:	6820      	ldr	r0, [r4, #0]
 800361e:	f002 f9b0 	bl	8005982 <USB_ReadInterrupts>
 8003622:	05c3      	lsls	r3, r0, #23
 8003624:	d505      	bpl.n	8003632 <HAL_PCD_IRQHandler+0x156>
 8003626:	6823      	ldr	r3, [r4, #0]
 8003628:	4969      	ldr	r1, [pc, #420]	; (80037d0 <HAL_PCD_IRQHandler+0x2f4>)
 800362a:	3306      	adds	r3, #6
 800362c:	8fda      	ldrh	r2, [r3, #62]	; 0x3e
 800362e:	400a      	ands	r2, r1
 8003630:	87da      	strh	r2, [r3, #62]	; 0x3e
 8003632:	b005      	add	sp, #20
 8003634:	bdf0      	pop	{r4, r5, r6, r7, pc}
 8003636:	230f      	movs	r3, #15
 8003638:	8fd1      	ldrh	r1, [r2, #62]	; 0x3e
 800363a:	b289      	uxth	r1, r1
 800363c:	400b      	ands	r3, r1
 800363e:	9300      	str	r3, [sp, #0]
 8003640:	d000      	beq.n	8003644 <HAL_PCD_IRQHandler+0x168>
 8003642:	e0d7      	b.n	80037f4 <HAL_PCD_IRQHandler+0x318>
 8003644:	3310      	adds	r3, #16
 8003646:	4019      	ands	r1, r3
 8003648:	8803      	ldrh	r3, [r0, #0]
 800364a:	2900      	cmp	r1, #0
 800364c:	d12f      	bne.n	80036ae <HAL_PCD_IRQHandler+0x1d2>
 800364e:	4a61      	ldr	r2, [pc, #388]	; (80037d4 <HAL_PCD_IRQHandler+0x2f8>)
 8003650:	4013      	ands	r3, r2
 8003652:	2280      	movs	r2, #128	; 0x80
 8003654:	0212      	lsls	r2, r2, #8
 8003656:	4313      	orrs	r3, r2
 8003658:	8003      	strh	r3, [r0, #0]
 800365a:	0003      	movs	r3, r0
 800365c:	3350      	adds	r3, #80	; 0x50
 800365e:	881a      	ldrh	r2, [r3, #0]
 8003660:	0023      	movs	r3, r4
 8003662:	3328      	adds	r3, #40	; 0x28
 8003664:	781b      	ldrb	r3, [r3, #0]
 8003666:	00db      	lsls	r3, r3, #3
 8003668:	18c0      	adds	r0, r0, r3
 800366a:	4b5b      	ldr	r3, [pc, #364]	; (80037d8 <HAL_PCD_IRQHandler+0x2fc>)
 800366c:	1880      	adds	r0, r0, r2
 800366e:	18c0      	adds	r0, r0, r3
 8003670:	8803      	ldrh	r3, [r0, #0]
 8003672:	6be2      	ldr	r2, [r4, #60]	; 0x3c
 8003674:	059b      	lsls	r3, r3, #22
 8003676:	0d9b      	lsrs	r3, r3, #22
 8003678:	6463      	str	r3, [r4, #68]	; 0x44
 800367a:	18d3      	adds	r3, r2, r3
 800367c:	63e3      	str	r3, [r4, #60]	; 0x3c
 800367e:	0020      	movs	r0, r4
 8003680:	f003 fb1c 	bl	8006cbc <HAL_PCD_DataInStageCallback>
 8003684:	1d63      	adds	r3, r4, #5
 8003686:	7fda      	ldrb	r2, [r3, #31]
 8003688:	2a00      	cmp	r2, #0
 800368a:	d009      	beq.n	80036a0 <HAL_PCD_IRQHandler+0x1c4>
 800368c:	6c20      	ldr	r0, [r4, #64]	; 0x40
 800368e:	2800      	cmp	r0, #0
 8003690:	d106      	bne.n	80036a0 <HAL_PCD_IRQHandler+0x1c4>
 8003692:	2280      	movs	r2, #128	; 0x80
 8003694:	7fd9      	ldrb	r1, [r3, #31]
 8003696:	4311      	orrs	r1, r2
 8003698:	6822      	ldr	r2, [r4, #0]
 800369a:	324c      	adds	r2, #76	; 0x4c
 800369c:	8011      	strh	r1, [r2, #0]
 800369e:	77d8      	strb	r0, [r3, #31]
 80036a0:	6820      	ldr	r0, [r4, #0]
 80036a2:	1d82      	adds	r2, r0, #6
 80036a4:	8fd3      	ldrh	r3, [r2, #62]	; 0x3e
 80036a6:	b21b      	sxth	r3, r3
 80036a8:	2b00      	cmp	r3, #0
 80036aa:	dbc4      	blt.n	8003636 <HAL_PCD_IRQHandler+0x15a>
 80036ac:	e71f      	b.n	80034ee <HAL_PCD_IRQHandler+0x12>
 80036ae:	2680      	movs	r6, #128	; 0x80
 80036b0:	b29b      	uxth	r3, r3
 80036b2:	0136      	lsls	r6, r6, #4
 80036b4:	401e      	ands	r6, r3
 80036b6:	d022      	beq.n	80036fe <HAL_PCD_IRQHandler+0x222>
 80036b8:	0003      	movs	r3, r0
 80036ba:	3350      	adds	r3, #80	; 0x50
 80036bc:	881a      	ldrh	r2, [r3, #0]
 80036be:	23b4      	movs	r3, #180	; 0xb4
 80036c0:	005b      	lsls	r3, r3, #1
 80036c2:	5ce3      	ldrb	r3, [r4, r3]
 80036c4:	21ac      	movs	r1, #172	; 0xac
 80036c6:	00db      	lsls	r3, r3, #3
 80036c8:	18c3      	adds	r3, r0, r3
 80036ca:	189b      	adds	r3, r3, r2
 80036cc:	4a43      	ldr	r2, [pc, #268]	; (80037dc <HAL_PCD_IRQHandler+0x300>)
 80036ce:	0089      	lsls	r1, r1, #2
 80036d0:	189b      	adds	r3, r3, r2
 80036d2:	0022      	movs	r2, r4
 80036d4:	881b      	ldrh	r3, [r3, #0]
 80036d6:	3269      	adds	r2, #105	; 0x69
 80036d8:	059b      	lsls	r3, r3, #22
 80036da:	0d9b      	lsrs	r3, r3, #22
 80036dc:	32ff      	adds	r2, #255	; 0xff
 80036de:	61d3      	str	r3, [r2, #28]
 80036e0:	1861      	adds	r1, r4, r1
 80036e2:	88d2      	ldrh	r2, [r2, #6]
 80036e4:	f002 fc32 	bl	8005f4c <USB_ReadPMA>
 80036e8:	6822      	ldr	r2, [r4, #0]
 80036ea:	493d      	ldr	r1, [pc, #244]	; (80037e0 <HAL_PCD_IRQHandler+0x304>)
 80036ec:	8813      	ldrh	r3, [r2, #0]
 80036ee:	0020      	movs	r0, r4
 80036f0:	400b      	ands	r3, r1
 80036f2:	2180      	movs	r1, #128	; 0x80
 80036f4:	430b      	orrs	r3, r1
 80036f6:	8013      	strh	r3, [r2, #0]
 80036f8:	f003 faca 	bl	8006c90 <HAL_PCD_SetupStageCallback>
 80036fc:	e7d0      	b.n	80036a0 <HAL_PCD_IRQHandler+0x1c4>
 80036fe:	b21b      	sxth	r3, r3
 8003700:	2b00      	cmp	r3, #0
 8003702:	dacd      	bge.n	80036a0 <HAL_PCD_IRQHandler+0x1c4>
 8003704:	8803      	ldrh	r3, [r0, #0]
 8003706:	4a36      	ldr	r2, [pc, #216]	; (80037e0 <HAL_PCD_IRQHandler+0x304>)
 8003708:	0025      	movs	r5, r4
 800370a:	4013      	ands	r3, r2
 800370c:	2280      	movs	r2, #128	; 0x80
 800370e:	4313      	orrs	r3, r2
 8003710:	8003      	strh	r3, [r0, #0]
 8003712:	0003      	movs	r3, r0
 8003714:	3350      	adds	r3, #80	; 0x50
 8003716:	881a      	ldrh	r2, [r3, #0]
 8003718:	23b4      	movs	r3, #180	; 0xb4
 800371a:	005b      	lsls	r3, r3, #1
 800371c:	5ce3      	ldrb	r3, [r4, r3]
 800371e:	3569      	adds	r5, #105	; 0x69
 8003720:	00db      	lsls	r3, r3, #3
 8003722:	18c3      	adds	r3, r0, r3
 8003724:	189b      	adds	r3, r3, r2
 8003726:	4a2d      	ldr	r2, [pc, #180]	; (80037dc <HAL_PCD_IRQHandler+0x300>)
 8003728:	35ff      	adds	r5, #255	; 0xff
 800372a:	189b      	adds	r3, r3, r2
 800372c:	881b      	ldrh	r3, [r3, #0]
 800372e:	059b      	lsls	r3, r3, #22
 8003730:	0d9b      	lsrs	r3, r3, #22
 8003732:	61eb      	str	r3, [r5, #28]
 8003734:	d00d      	beq.n	8003752 <HAL_PCD_IRQHandler+0x276>
 8003736:	6969      	ldr	r1, [r5, #20]
 8003738:	2900      	cmp	r1, #0
 800373a:	d00a      	beq.n	8003752 <HAL_PCD_IRQHandler+0x276>
 800373c:	88ea      	ldrh	r2, [r5, #6]
 800373e:	f002 fc05 	bl	8005f4c <USB_ReadPMA>
 8003742:	696b      	ldr	r3, [r5, #20]
 8003744:	69ea      	ldr	r2, [r5, #28]
 8003746:	0031      	movs	r1, r6
 8003748:	189b      	adds	r3, r3, r2
 800374a:	616b      	str	r3, [r5, #20]
 800374c:	0020      	movs	r0, r4
 800374e:	f003 faa8 	bl	8006ca2 <HAL_PCD_DataOutStageCallback>
 8003752:	6821      	ldr	r1, [r4, #0]
 8003754:	4a21      	ldr	r2, [pc, #132]	; (80037dc <HAL_PCD_IRQHandler+0x300>)
 8003756:	000b      	movs	r3, r1
 8003758:	3350      	adds	r3, #80	; 0x50
 800375a:	881b      	ldrh	r3, [r3, #0]
 800375c:	188a      	adds	r2, r1, r2
 800375e:	18d2      	adds	r2, r2, r3
 8003760:	692b      	ldr	r3, [r5, #16]
 8003762:	2b00      	cmp	r3, #0
 8003764:	d109      	bne.n	800377a <HAL_PCD_IRQHandler+0x29e>
 8003766:	8813      	ldrh	r3, [r2, #0]
 8003768:	481e      	ldr	r0, [pc, #120]	; (80037e4 <HAL_PCD_IRQHandler+0x308>)
 800376a:	4003      	ands	r3, r0
 800376c:	2080      	movs	r0, #128	; 0x80
 800376e:	8013      	strh	r3, [r2, #0]
 8003770:	8813      	ldrh	r3, [r2, #0]
 8003772:	0200      	lsls	r0, r0, #8
 8003774:	4303      	orrs	r3, r0
 8003776:	8013      	strh	r3, [r2, #0]
 8003778:	e008      	b.n	800378c <HAL_PCD_IRQHandler+0x2b0>
 800377a:	2b3e      	cmp	r3, #62	; 0x3e
 800377c:	d810      	bhi.n	80037a0 <HAL_PCD_IRQHandler+0x2c4>
 800377e:	2501      	movs	r5, #1
 8003780:	0858      	lsrs	r0, r3, #1
 8003782:	402b      	ands	r3, r5
 8003784:	18c0      	adds	r0, r0, r3
 8003786:	0280      	lsls	r0, r0, #10
 8003788:	b280      	uxth	r0, r0
 800378a:	8010      	strh	r0, [r2, #0]
 800378c:	880b      	ldrh	r3, [r1, #0]
 800378e:	4a16      	ldr	r2, [pc, #88]	; (80037e8 <HAL_PCD_IRQHandler+0x30c>)
 8003790:	401a      	ands	r2, r3
 8003792:	23c0      	movs	r3, #192	; 0xc0
 8003794:	019b      	lsls	r3, r3, #6
 8003796:	4053      	eors	r3, r2
 8003798:	4a14      	ldr	r2, [pc, #80]	; (80037ec <HAL_PCD_IRQHandler+0x310>)
 800379a:	4313      	orrs	r3, r2
 800379c:	800b      	strh	r3, [r1, #0]
 800379e:	e77f      	b.n	80036a0 <HAL_PCD_IRQHandler+0x1c4>
 80037a0:	251f      	movs	r5, #31
 80037a2:	0958      	lsrs	r0, r3, #5
 80037a4:	402b      	ands	r3, r5
 80037a6:	425d      	negs	r5, r3
 80037a8:	416b      	adcs	r3, r5
 80037aa:	1ac0      	subs	r0, r0, r3
 80037ac:	4b10      	ldr	r3, [pc, #64]	; (80037f0 <HAL_PCD_IRQHandler+0x314>)
 80037ae:	0280      	lsls	r0, r0, #10
 80037b0:	4303      	orrs	r3, r0
 80037b2:	b29b      	uxth	r3, r3
 80037b4:	e7df      	b.n	8003776 <HAL_PCD_IRQHandler+0x29a>
 80037b6:	46c0      	nop			; (mov r8, r8)
 80037b8:	fffffbff 	.word	0xfffffbff
 80037bc:	ffffbfff 	.word	0xffffbfff
 80037c0:	ffffdfff 	.word	0xffffdfff
 80037c4:	ffffefff 	.word	0xffffefff
 80037c8:	fffff7ff 	.word	0xfffff7ff
 80037cc:	fffffdff 	.word	0xfffffdff
 80037d0:	fffffeff 	.word	0xfffffeff
 80037d4:	ffff8f0f 	.word	0xffff8f0f
 80037d8:	00000402 	.word	0x00000402
 80037dc:	00000406 	.word	0x00000406
 80037e0:	00000f8f 	.word	0x00000f8f
 80037e4:	ffff83ff 	.word	0xffff83ff
 80037e8:	ffffbf8f 	.word	0xffffbf8f
 80037ec:	00008080 	.word	0x00008080
 80037f0:	ffff8000 	.word	0xffff8000
 80037f4:	9b00      	ldr	r3, [sp, #0]
 80037f6:	009b      	lsls	r3, r3, #2
 80037f8:	18c2      	adds	r2, r0, r3
 80037fa:	8816      	ldrh	r6, [r2, #0]
 80037fc:	9301      	str	r3, [sp, #4]
 80037fe:	b2b3      	uxth	r3, r6
 8003800:	9302      	str	r3, [sp, #8]
 8003802:	466b      	mov	r3, sp
 8003804:	2108      	movs	r1, #8
 8003806:	5e5b      	ldrsh	r3, [r3, r1]
 8003808:	2b00      	cmp	r3, #0
 800380a:	db00      	blt.n	800380e <HAL_PCD_IRQHandler+0x332>
 800380c:	e0f2      	b.n	80039f4 <HAL_PCD_IRQHandler+0x518>
 800380e:	8813      	ldrh	r3, [r2, #0]
 8003810:	49c3      	ldr	r1, [pc, #780]	; (8003b20 <HAL_PCD_IRQHandler+0x644>)
 8003812:	400b      	ands	r3, r1
 8003814:	2180      	movs	r1, #128	; 0x80
 8003816:	430b      	orrs	r3, r1
 8003818:	8013      	strh	r3, [r2, #0]
 800381a:	2328      	movs	r3, #40	; 0x28
 800381c:	9a00      	ldr	r2, [sp, #0]
 800381e:	4353      	muls	r3, r2
 8003820:	18e3      	adds	r3, r4, r3
 8003822:	001a      	movs	r2, r3
 8003824:	001d      	movs	r5, r3
 8003826:	3275      	adds	r2, #117	; 0x75
 8003828:	32ff      	adds	r2, #255	; 0xff
 800382a:	7812      	ldrb	r2, [r2, #0]
 800382c:	3569      	adds	r5, #105	; 0x69
 800382e:	35ff      	adds	r5, #255	; 0xff
 8003830:	2a00      	cmp	r2, #0
 8003832:	d119      	bne.n	8003868 <HAL_PCD_IRQHandler+0x38c>
 8003834:	0002      	movs	r2, r0
 8003836:	3250      	adds	r2, #80	; 0x50
 8003838:	8811      	ldrh	r1, [r2, #0]
 800383a:	782a      	ldrb	r2, [r5, #0]
 800383c:	00d2      	lsls	r2, r2, #3
 800383e:	1852      	adds	r2, r2, r1
 8003840:	49b8      	ldr	r1, [pc, #736]	; (8003b24 <HAL_PCD_IRQHandler+0x648>)
 8003842:	1812      	adds	r2, r2, r0
 8003844:	1852      	adds	r2, r2, r1
 8003846:	8815      	ldrh	r5, [r2, #0]
 8003848:	05ad      	lsls	r5, r5, #22
 800384a:	0dad      	lsrs	r5, r5, #22
 800384c:	d100      	bne.n	8003850 <HAL_PCD_IRQHandler+0x374>
 800384e:	e0b0      	b.n	80039b2 <HAL_PCD_IRQHandler+0x4d6>
 8003850:	001a      	movs	r2, r3
 8003852:	326f      	adds	r2, #111	; 0x6f
 8003854:	337d      	adds	r3, #125	; 0x7d
 8003856:	33ff      	adds	r3, #255	; 0xff
 8003858:	0019      	movs	r1, r3
 800385a:	32ff      	adds	r2, #255	; 0xff
 800385c:	8812      	ldrh	r2, [r2, #0]
 800385e:	002b      	movs	r3, r5
 8003860:	6809      	ldr	r1, [r1, #0]
 8003862:	f002 fb73 	bl	8005f4c <USB_ReadPMA>
 8003866:	e0a4      	b.n	80039b2 <HAL_PCD_IRQHandler+0x4d6>
 8003868:	0019      	movs	r1, r3
 800386a:	316c      	adds	r1, #108	; 0x6c
 800386c:	31ff      	adds	r1, #255	; 0xff
 800386e:	7809      	ldrb	r1, [r1, #0]
 8003870:	782a      	ldrb	r2, [r5, #0]
 8003872:	2902      	cmp	r1, #2
 8003874:	d000      	beq.n	8003878 <HAL_PCD_IRQHandler+0x39c>
 8003876:	e082      	b.n	800397e <HAL_PCD_IRQHandler+0x4a2>
 8003878:	2680      	movs	r6, #128	; 0x80
 800387a:	9d02      	ldr	r5, [sp, #8]
 800387c:	01f6      	lsls	r6, r6, #7
 800387e:	402e      	ands	r6, r5
 8003880:	0005      	movs	r5, r0
 8003882:	3550      	adds	r5, #80	; 0x50
 8003884:	882d      	ldrh	r5, [r5, #0]
 8003886:	3381      	adds	r3, #129	; 0x81
 8003888:	00d7      	lsls	r7, r2, #3
 800388a:	33ff      	adds	r3, #255	; 0xff
 800388c:	1945      	adds	r5, r0, r5
 800388e:	6819      	ldr	r1, [r3, #0]
 8003890:	19ed      	adds	r5, r5, r7
 8003892:	2e00      	cmp	r6, #0
 8003894:	d039      	beq.n	800390a <HAL_PCD_IRQHandler+0x42e>
 8003896:	4ea4      	ldr	r6, [pc, #656]	; (8003b28 <HAL_PCD_IRQHandler+0x64c>)
 8003898:	19ad      	adds	r5, r5, r6
 800389a:	882d      	ldrh	r5, [r5, #0]
 800389c:	05ad      	lsls	r5, r5, #22
 800389e:	0dad      	lsrs	r5, r5, #22
 80038a0:	428d      	cmp	r5, r1
 80038a2:	d830      	bhi.n	8003906 <HAL_PCD_IRQHandler+0x42a>
 80038a4:	1b49      	subs	r1, r1, r5
 80038a6:	6019      	str	r1, [r3, #0]
 80038a8:	2328      	movs	r3, #40	; 0x28
 80038aa:	9900      	ldr	r1, [sp, #0]
 80038ac:	434b      	muls	r3, r1
 80038ae:	18e3      	adds	r3, r4, r3
 80038b0:	3381      	adds	r3, #129	; 0x81
 80038b2:	33ff      	adds	r3, #255	; 0xff
 80038b4:	681b      	ldr	r3, [r3, #0]
 80038b6:	2b00      	cmp	r3, #0
 80038b8:	d10a      	bne.n	80038d0 <HAL_PCD_IRQHandler+0x3f4>
 80038ba:	0092      	lsls	r2, r2, #2
 80038bc:	1882      	adds	r2, r0, r2
 80038be:	8813      	ldrh	r3, [r2, #0]
 80038c0:	499a      	ldr	r1, [pc, #616]	; (8003b2c <HAL_PCD_IRQHandler+0x650>)
 80038c2:	4019      	ands	r1, r3
 80038c4:	2380      	movs	r3, #128	; 0x80
 80038c6:	019b      	lsls	r3, r3, #6
 80038c8:	404b      	eors	r3, r1
 80038ca:	4999      	ldr	r1, [pc, #612]	; (8003b30 <HAL_PCD_IRQHandler+0x654>)
 80038cc:	430b      	orrs	r3, r1
 80038ce:	8013      	strh	r3, [r2, #0]
 80038d0:	9b02      	ldr	r3, [sp, #8]
 80038d2:	065b      	lsls	r3, r3, #25
 80038d4:	d50e      	bpl.n	80038f4 <HAL_PCD_IRQHandler+0x418>
 80038d6:	2328      	movs	r3, #40	; 0x28
 80038d8:	9a00      	ldr	r2, [sp, #0]
 80038da:	4996      	ldr	r1, [pc, #600]	; (8003b34 <HAL_PCD_IRQHandler+0x658>)
 80038dc:	4353      	muls	r3, r2
 80038de:	18e3      	adds	r3, r4, r3
 80038e0:	3369      	adds	r3, #105	; 0x69
 80038e2:	33ff      	adds	r3, #255	; 0xff
 80038e4:	781b      	ldrb	r3, [r3, #0]
 80038e6:	009b      	lsls	r3, r3, #2
 80038e8:	18c3      	adds	r3, r0, r3
 80038ea:	881a      	ldrh	r2, [r3, #0]
 80038ec:	400a      	ands	r2, r1
 80038ee:	4992      	ldr	r1, [pc, #584]	; (8003b38 <HAL_PCD_IRQHandler+0x65c>)
 80038f0:	430a      	orrs	r2, r1
 80038f2:	801a      	strh	r2, [r3, #0]
 80038f4:	2d00      	cmp	r5, #0
 80038f6:	d05c      	beq.n	80039b2 <HAL_PCD_IRQHandler+0x4d6>
 80038f8:	2328      	movs	r3, #40	; 0x28
 80038fa:	9a00      	ldr	r2, [sp, #0]
 80038fc:	4353      	muls	r3, r2
 80038fe:	18e3      	adds	r3, r4, r3
 8003900:	001a      	movs	r2, r3
 8003902:	3271      	adds	r2, #113	; 0x71
 8003904:	e7a6      	b.n	8003854 <HAL_PCD_IRQHandler+0x378>
 8003906:	2100      	movs	r1, #0
 8003908:	e7cd      	b.n	80038a6 <HAL_PCD_IRQHandler+0x3ca>
 800390a:	4f86      	ldr	r7, [pc, #536]	; (8003b24 <HAL_PCD_IRQHandler+0x648>)
 800390c:	19ed      	adds	r5, r5, r7
 800390e:	882d      	ldrh	r5, [r5, #0]
 8003910:	05ad      	lsls	r5, r5, #22
 8003912:	0dad      	lsrs	r5, r5, #22
 8003914:	428d      	cmp	r5, r1
 8003916:	d830      	bhi.n	800397a <HAL_PCD_IRQHandler+0x49e>
 8003918:	1b49      	subs	r1, r1, r5
 800391a:	6019      	str	r1, [r3, #0]
 800391c:	2328      	movs	r3, #40	; 0x28
 800391e:	9900      	ldr	r1, [sp, #0]
 8003920:	434b      	muls	r3, r1
 8003922:	18e3      	adds	r3, r4, r3
 8003924:	3381      	adds	r3, #129	; 0x81
 8003926:	33ff      	adds	r3, #255	; 0xff
 8003928:	681b      	ldr	r3, [r3, #0]
 800392a:	2b00      	cmp	r3, #0
 800392c:	d10a      	bne.n	8003944 <HAL_PCD_IRQHandler+0x468>
 800392e:	0092      	lsls	r2, r2, #2
 8003930:	1882      	adds	r2, r0, r2
 8003932:	8813      	ldrh	r3, [r2, #0]
 8003934:	497d      	ldr	r1, [pc, #500]	; (8003b2c <HAL_PCD_IRQHandler+0x650>)
 8003936:	4019      	ands	r1, r3
 8003938:	2380      	movs	r3, #128	; 0x80
 800393a:	019b      	lsls	r3, r3, #6
 800393c:	404b      	eors	r3, r1
 800393e:	497c      	ldr	r1, [pc, #496]	; (8003b30 <HAL_PCD_IRQHandler+0x654>)
 8003940:	430b      	orrs	r3, r1
 8003942:	8013      	strh	r3, [r2, #0]
 8003944:	9b02      	ldr	r3, [sp, #8]
 8003946:	065b      	lsls	r3, r3, #25
 8003948:	d40e      	bmi.n	8003968 <HAL_PCD_IRQHandler+0x48c>
 800394a:	2328      	movs	r3, #40	; 0x28
 800394c:	9a00      	ldr	r2, [sp, #0]
 800394e:	4979      	ldr	r1, [pc, #484]	; (8003b34 <HAL_PCD_IRQHandler+0x658>)
 8003950:	4353      	muls	r3, r2
 8003952:	18e3      	adds	r3, r4, r3
 8003954:	3369      	adds	r3, #105	; 0x69
 8003956:	33ff      	adds	r3, #255	; 0xff
 8003958:	781b      	ldrb	r3, [r3, #0]
 800395a:	009b      	lsls	r3, r3, #2
 800395c:	18c3      	adds	r3, r0, r3
 800395e:	881a      	ldrh	r2, [r3, #0]
 8003960:	400a      	ands	r2, r1
 8003962:	4975      	ldr	r1, [pc, #468]	; (8003b38 <HAL_PCD_IRQHandler+0x65c>)
 8003964:	430a      	orrs	r2, r1
 8003966:	801a      	strh	r2, [r3, #0]
 8003968:	2d00      	cmp	r5, #0
 800396a:	d022      	beq.n	80039b2 <HAL_PCD_IRQHandler+0x4d6>
 800396c:	2328      	movs	r3, #40	; 0x28
 800396e:	9a00      	ldr	r2, [sp, #0]
 8003970:	4353      	muls	r3, r2
 8003972:	18e3      	adds	r3, r4, r3
 8003974:	001a      	movs	r2, r3
 8003976:	3273      	adds	r2, #115	; 0x73
 8003978:	e76c      	b.n	8003854 <HAL_PCD_IRQHandler+0x378>
 800397a:	601e      	str	r6, [r3, #0]
 800397c:	e7ce      	b.n	800391c <HAL_PCD_IRQHandler+0x440>
 800397e:	0092      	lsls	r2, r2, #2
 8003980:	1882      	adds	r2, r0, r2
 8003982:	8816      	ldrh	r6, [r2, #0]
 8003984:	496b      	ldr	r1, [pc, #428]	; (8003b34 <HAL_PCD_IRQHandler+0x658>)
 8003986:	4031      	ands	r1, r6
 8003988:	4e6b      	ldr	r6, [pc, #428]	; (8003b38 <HAL_PCD_IRQHandler+0x65c>)
 800398a:	4331      	orrs	r1, r6
 800398c:	8011      	strh	r1, [r2, #0]
 800398e:	782a      	ldrb	r2, [r5, #0]
 8003990:	0091      	lsls	r1, r2, #2
 8003992:	1841      	adds	r1, r0, r1
 8003994:	880d      	ldrh	r5, [r1, #0]
 8003996:	0001      	movs	r1, r0
 8003998:	3150      	adds	r1, #80	; 0x50
 800399a:	8809      	ldrh	r1, [r1, #0]
 800399c:	00d2      	lsls	r2, r2, #3
 800399e:	1852      	adds	r2, r2, r1
 80039a0:	1812      	adds	r2, r2, r0
 80039a2:	046d      	lsls	r5, r5, #17
 80039a4:	d564      	bpl.n	8003a70 <HAL_PCD_IRQHandler+0x594>
 80039a6:	4960      	ldr	r1, [pc, #384]	; (8003b28 <HAL_PCD_IRQHandler+0x64c>)
 80039a8:	1852      	adds	r2, r2, r1
 80039aa:	8815      	ldrh	r5, [r2, #0]
 80039ac:	05ad      	lsls	r5, r5, #22
 80039ae:	0dad      	lsrs	r5, r5, #22
 80039b0:	d1a6      	bne.n	8003900 <HAL_PCD_IRQHandler+0x424>
 80039b2:	2328      	movs	r3, #40	; 0x28
 80039b4:	9900      	ldr	r1, [sp, #0]
 80039b6:	4359      	muls	r1, r3
 80039b8:	1862      	adds	r2, r4, r1
 80039ba:	0016      	movs	r6, r2
 80039bc:	3685      	adds	r6, #133	; 0x85
 80039be:	36ff      	adds	r6, #255	; 0xff
 80039c0:	6830      	ldr	r0, [r6, #0]
 80039c2:	3e08      	subs	r6, #8
 80039c4:	1940      	adds	r0, r0, r5
 80039c6:	60b0      	str	r0, [r6, #8]
 80039c8:	6830      	ldr	r0, [r6, #0]
 80039ca:	1940      	adds	r0, r0, r5
 80039cc:	6030      	str	r0, [r6, #0]
 80039ce:	0010      	movs	r0, r2
 80039d0:	3081      	adds	r0, #129	; 0x81
 80039d2:	30ff      	adds	r0, #255	; 0xff
 80039d4:	6800      	ldr	r0, [r0, #0]
 80039d6:	2800      	cmp	r0, #0
 80039d8:	d003      	beq.n	80039e2 <HAL_PCD_IRQHandler+0x506>
 80039da:	32fc      	adds	r2, #252	; 0xfc
 80039dc:	6fd2      	ldr	r2, [r2, #124]	; 0x7c
 80039de:	4295      	cmp	r5, r2
 80039e0:	d24d      	bcs.n	8003a7e <HAL_PCD_IRQHandler+0x5a2>
 80039e2:	9a00      	ldr	r2, [sp, #0]
 80039e4:	0020      	movs	r0, r4
 80039e6:	4353      	muls	r3, r2
 80039e8:	18e3      	adds	r3, r4, r3
 80039ea:	3369      	adds	r3, #105	; 0x69
 80039ec:	33ff      	adds	r3, #255	; 0xff
 80039ee:	7819      	ldrb	r1, [r3, #0]
 80039f0:	f003 f957 	bl	8006ca2 <HAL_PCD_DataOutStageCallback>
 80039f4:	2280      	movs	r2, #128	; 0x80
 80039f6:	9b02      	ldr	r3, [sp, #8]
 80039f8:	4213      	tst	r3, r2
 80039fa:	d100      	bne.n	80039fe <HAL_PCD_IRQHandler+0x522>
 80039fc:	e650      	b.n	80036a0 <HAL_PCD_IRQHandler+0x1c4>
 80039fe:	2528      	movs	r5, #40	; 0x28
 8003a00:	9b01      	ldr	r3, [sp, #4]
 8003a02:	6820      	ldr	r0, [r4, #0]
 8003a04:	494d      	ldr	r1, [pc, #308]	; (8003b3c <HAL_PCD_IRQHandler+0x660>)
 8003a06:	18c2      	adds	r2, r0, r3
 8003a08:	8813      	ldrh	r3, [r2, #0]
 8003a0a:	4f4d      	ldr	r7, [pc, #308]	; (8003b40 <HAL_PCD_IRQHandler+0x664>)
 8003a0c:	400b      	ands	r3, r1
 8003a0e:	433b      	orrs	r3, r7
 8003a10:	b29b      	uxth	r3, r3
 8003a12:	8013      	strh	r3, [r2, #0]
 8003a14:	9b00      	ldr	r3, [sp, #0]
 8003a16:	9703      	str	r7, [sp, #12]
 8003a18:	435d      	muls	r5, r3
 8003a1a:	1963      	adds	r3, r4, r5
 8003a1c:	9301      	str	r3, [sp, #4]
 8003a1e:	332b      	adds	r3, #43	; 0x2b
 8003a20:	9a01      	ldr	r2, [sp, #4]
 8003a22:	781b      	ldrb	r3, [r3, #0]
 8003a24:	3228      	adds	r2, #40	; 0x28
 8003a26:	2b02      	cmp	r3, #2
 8003a28:	d102      	bne.n	8003a30 <HAL_PCD_IRQHandler+0x554>
 8003a2a:	9b02      	ldr	r3, [sp, #8]
 8003a2c:	05db      	lsls	r3, r3, #23
 8003a2e:	d43c      	bmi.n	8003aaa <HAL_PCD_IRQHandler+0x5ce>
 8003a30:	0003      	movs	r3, r0
 8003a32:	2128      	movs	r1, #40	; 0x28
 8003a34:	3350      	adds	r3, #80	; 0x50
 8003a36:	881f      	ldrh	r7, [r3, #0]
 8003a38:	9d00      	ldr	r5, [sp, #0]
 8003a3a:	7813      	ldrb	r3, [r2, #0]
 8003a3c:	434d      	muls	r5, r1
 8003a3e:	00db      	lsls	r3, r3, #3
 8003a40:	19db      	adds	r3, r3, r7
 8003a42:	4f39      	ldr	r7, [pc, #228]	; (8003b28 <HAL_PCD_IRQHandler+0x64c>)
 8003a44:	18c3      	adds	r3, r0, r3
 8003a46:	19db      	adds	r3, r3, r7
 8003a48:	1965      	adds	r5, r4, r5
 8003a4a:	881b      	ldrh	r3, [r3, #0]
 8003a4c:	6c2e      	ldr	r6, [r5, #64]	; 0x40
 8003a4e:	059b      	lsls	r3, r3, #22
 8003a50:	0d9b      	lsrs	r3, r3, #22
 8003a52:	429e      	cmp	r6, r3
 8003a54:	d91a      	bls.n	8003a8c <HAL_PCD_IRQHandler+0x5b0>
 8003a56:	1af6      	subs	r6, r6, r3
 8003a58:	642e      	str	r6, [r5, #64]	; 0x40
 8003a5a:	9d00      	ldr	r5, [sp, #0]
 8003a5c:	434d      	muls	r5, r1
 8003a5e:	1965      	adds	r5, r4, r5
 8003a60:	6c2e      	ldr	r6, [r5, #64]	; 0x40
 8003a62:	2e00      	cmp	r6, #0
 8003a64:	d114      	bne.n	8003a90 <HAL_PCD_IRQHandler+0x5b4>
 8003a66:	7811      	ldrb	r1, [r2, #0]
 8003a68:	0020      	movs	r0, r4
 8003a6a:	f003 f927 	bl	8006cbc <HAL_PCD_DataInStageCallback>
 8003a6e:	e617      	b.n	80036a0 <HAL_PCD_IRQHandler+0x1c4>
 8003a70:	492c      	ldr	r1, [pc, #176]	; (8003b24 <HAL_PCD_IRQHandler+0x648>)
 8003a72:	1852      	adds	r2, r2, r1
 8003a74:	8815      	ldrh	r5, [r2, #0]
 8003a76:	05ad      	lsls	r5, r5, #22
 8003a78:	0dad      	lsrs	r5, r5, #22
 8003a7a:	d09a      	beq.n	80039b2 <HAL_PCD_IRQHandler+0x4d6>
 8003a7c:	e77a      	b.n	8003974 <HAL_PCD_IRQHandler+0x498>
 8003a7e:	3169      	adds	r1, #105	; 0x69
 8003a80:	31ff      	adds	r1, #255	; 0xff
 8003a82:	1861      	adds	r1, r4, r1
 8003a84:	6820      	ldr	r0, [r4, #0]
 8003a86:	f001 ff95 	bl	80059b4 <USB_EPStartXfer>
 8003a8a:	e7b3      	b.n	80039f4 <HAL_PCD_IRQHandler+0x518>
 8003a8c:	2600      	movs	r6, #0
 8003a8e:	e7e3      	b.n	8003a58 <HAL_PCD_IRQHandler+0x57c>
 8003a90:	6bea      	ldr	r2, [r5, #60]	; 0x3c
 8003a92:	18d2      	adds	r2, r2, r3
 8003a94:	63ea      	str	r2, [r5, #60]	; 0x3c
 8003a96:	6c6a      	ldr	r2, [r5, #68]	; 0x44
 8003a98:	18d3      	adds	r3, r2, r3
 8003a9a:	646b      	str	r3, [r5, #68]	; 0x44
 8003a9c:	9b00      	ldr	r3, [sp, #0]
 8003a9e:	3301      	adds	r3, #1
 8003aa0:	4359      	muls	r1, r3
 8003aa2:	1861      	adds	r1, r4, r1
 8003aa4:	f001 ff86 	bl	80059b4 <USB_EPStartXfer>
 8003aa8:	e5fa      	b.n	80036a0 <HAL_PCD_IRQHandler+0x1c4>
 8003aaa:	7811      	ldrb	r1, [r2, #0]
 8003aac:	2240      	movs	r2, #64	; 0x40
 8003aae:	9e02      	ldr	r6, [sp, #8]
 8003ab0:	9b01      	ldr	r3, [sp, #4]
 8003ab2:	4032      	ands	r2, r6
 8003ab4:	0006      	movs	r6, r0
 8003ab6:	00cf      	lsls	r7, r1, #3
 8003ab8:	6c1b      	ldr	r3, [r3, #64]	; 0x40
 8003aba:	3650      	adds	r6, #80	; 0x50
 8003abc:	2a00      	cmp	r2, #0
 8003abe:	d100      	bne.n	8003ac2 <HAL_PCD_IRQHandler+0x5e6>
 8003ac0:	e0ad      	b.n	8003c1e <HAL_PCD_IRQHandler+0x742>
 8003ac2:	8832      	ldrh	r2, [r6, #0]
 8003ac4:	4e18      	ldr	r6, [pc, #96]	; (8003b28 <HAL_PCD_IRQHandler+0x64c>)
 8003ac6:	1986      	adds	r6, r0, r6
 8003ac8:	18b2      	adds	r2, r6, r2
 8003aca:	5bd7      	ldrh	r7, [r2, r7]
 8003acc:	0035      	movs	r5, r6
 8003ace:	05bf      	lsls	r7, r7, #22
 8003ad0:	0dbf      	lsrs	r7, r7, #22
 8003ad2:	429f      	cmp	r7, r3
 8003ad4:	d221      	bcs.n	8003b1a <HAL_PCD_IRQHandler+0x63e>
 8003ad6:	1bdb      	subs	r3, r3, r7
 8003ad8:	2680      	movs	r6, #128	; 0x80
 8003ada:	9a01      	ldr	r2, [sp, #4]
 8003adc:	01f6      	lsls	r6, r6, #7
 8003ade:	6413      	str	r3, [r2, #64]	; 0x40
 8003ae0:	9b02      	ldr	r3, [sp, #8]
 8003ae2:	9a00      	ldr	r2, [sp, #0]
 8003ae4:	4033      	ands	r3, r6
 8003ae6:	001e      	movs	r6, r3
 8003ae8:	2328      	movs	r3, #40	; 0x28
 8003aea:	4353      	muls	r3, r2
 8003aec:	18e3      	adds	r3, r4, r3
 8003aee:	6c1b      	ldr	r3, [r3, #64]	; 0x40
 8003af0:	2b00      	cmp	r3, #0
 8003af2:	d129      	bne.n	8003b48 <HAL_PCD_IRQHandler+0x66c>
 8003af4:	0020      	movs	r0, r4
 8003af6:	f003 f8e1 	bl	8006cbc <HAL_PCD_DataInStageCallback>
 8003afa:	2e00      	cmp	r6, #0
 8003afc:	d100      	bne.n	8003b00 <HAL_PCD_IRQHandler+0x624>
 8003afe:	e0ac      	b.n	8003c5a <HAL_PCD_IRQHandler+0x77e>
 8003b00:	9b01      	ldr	r3, [sp, #4]
 8003b02:	6822      	ldr	r2, [r4, #0]
 8003b04:	3328      	adds	r3, #40	; 0x28
 8003b06:	781b      	ldrb	r3, [r3, #0]
 8003b08:	490a      	ldr	r1, [pc, #40]	; (8003b34 <HAL_PCD_IRQHandler+0x658>)
 8003b0a:	009b      	lsls	r3, r3, #2
 8003b0c:	18d2      	adds	r2, r2, r3
 8003b0e:	8813      	ldrh	r3, [r2, #0]
 8003b10:	400b      	ands	r3, r1
 8003b12:	490c      	ldr	r1, [pc, #48]	; (8003b44 <HAL_PCD_IRQHandler+0x668>)
 8003b14:	430b      	orrs	r3, r1
 8003b16:	8013      	strh	r3, [r2, #0]
 8003b18:	e09f      	b.n	8003c5a <HAL_PCD_IRQHandler+0x77e>
 8003b1a:	2300      	movs	r3, #0
 8003b1c:	e7dc      	b.n	8003ad8 <HAL_PCD_IRQHandler+0x5fc>
 8003b1e:	46c0      	nop			; (mov r8, r8)
 8003b20:	00000f8f 	.word	0x00000f8f
 8003b24:	00000406 	.word	0x00000406
 8003b28:	00000402 	.word	0x00000402
 8003b2c:	ffffbf8f 	.word	0xffffbf8f
 8003b30:	00008080 	.word	0x00008080
 8003b34:	ffff8f8f 	.word	0xffff8f8f
 8003b38:	000080c0 	.word	0x000080c0
 8003b3c:	ffff8f0f 	.word	0xffff8f0f
 8003b40:	ffff8000 	.word	0xffff8000
 8003b44:	0000c080 	.word	0x0000c080
 8003b48:	2e00      	cmp	r6, #0
 8003b4a:	d007      	beq.n	8003b5c <HAL_PCD_IRQHandler+0x680>
 8003b4c:	0089      	lsls	r1, r1, #2
 8003b4e:	1841      	adds	r1, r0, r1
 8003b50:	880a      	ldrh	r2, [r1, #0]
 8003b52:	4b80      	ldr	r3, [pc, #512]	; (8003d54 <HAL_PCD_IRQHandler+0x878>)
 8003b54:	4013      	ands	r3, r2
 8003b56:	4a80      	ldr	r2, [pc, #512]	; (8003d58 <HAL_PCD_IRQHandler+0x87c>)
 8003b58:	4313      	orrs	r3, r2
 8003b5a:	800b      	strh	r3, [r1, #0]
 8003b5c:	2328      	movs	r3, #40	; 0x28
 8003b5e:	9a00      	ldr	r2, [sp, #0]
 8003b60:	4353      	muls	r3, r2
 8003b62:	224c      	movs	r2, #76	; 0x4c
 8003b64:	4694      	mov	ip, r2
 8003b66:	18e3      	adds	r3, r4, r3
 8003b68:	449c      	add	ip, r3
 8003b6a:	4662      	mov	r2, ip
 8003b6c:	7812      	ldrb	r2, [r2, #0]
 8003b6e:	2a01      	cmp	r2, #1
 8003b70:	d173      	bne.n	8003c5a <HAL_PCD_IRQHandler+0x77e>
 8003b72:	6bda      	ldr	r2, [r3, #60]	; 0x3c
 8003b74:	6c9e      	ldr	r6, [r3, #72]	; 0x48
 8003b76:	19d1      	adds	r1, r2, r7
 8003b78:	6c5a      	ldr	r2, [r3, #68]	; 0x44
 8003b7a:	63d9      	str	r1, [r3, #60]	; 0x3c
 8003b7c:	19d2      	adds	r2, r2, r7
 8003b7e:	645a      	str	r2, [r3, #68]	; 0x44
 8003b80:	6b9a      	ldr	r2, [r3, #56]	; 0x38
 8003b82:	4296      	cmp	r6, r2
 8003b84:	d31b      	bcc.n	8003bbe <HAL_PCD_IRQHandler+0x6e2>
 8003b86:	1ab6      	subs	r6, r6, r2
 8003b88:	649e      	str	r6, [r3, #72]	; 0x48
 8003b8a:	9b01      	ldr	r3, [sp, #4]
 8003b8c:	9e01      	ldr	r6, [sp, #4]
 8003b8e:	3329      	adds	r3, #41	; 0x29
 8003b90:	781f      	ldrb	r7, [r3, #0]
 8003b92:	3628      	adds	r6, #40	; 0x28
 8003b94:	b293      	uxth	r3, r2
 8003b96:	2f00      	cmp	r7, #0
 8003b98:	d136      	bne.n	8003c08 <HAL_PCD_IRQHandler+0x72c>
 8003b9a:	0007      	movs	r7, r0
 8003b9c:	3750      	adds	r7, #80	; 0x50
 8003b9e:	883f      	ldrh	r7, [r7, #0]
 8003ba0:	7836      	ldrb	r6, [r6, #0]
 8003ba2:	19ef      	adds	r7, r5, r7
 8003ba4:	00f6      	lsls	r6, r6, #3
 8003ba6:	19f6      	adds	r6, r6, r7
 8003ba8:	2a00      	cmp	r2, #0
 8003baa:	d114      	bne.n	8003bd6 <HAL_PCD_IRQHandler+0x6fa>
 8003bac:	8832      	ldrh	r2, [r6, #0]
 8003bae:	4f6b      	ldr	r7, [pc, #428]	; (8003d5c <HAL_PCD_IRQHandler+0x880>)
 8003bb0:	403a      	ands	r2, r7
 8003bb2:	8032      	strh	r2, [r6, #0]
 8003bb4:	8837      	ldrh	r7, [r6, #0]
 8003bb6:	9a03      	ldr	r2, [sp, #12]
 8003bb8:	433a      	orrs	r2, r7
 8003bba:	0017      	movs	r7, r2
 8003bbc:	e012      	b.n	8003be4 <HAL_PCD_IRQHandler+0x708>
 8003bbe:	2e00      	cmp	r6, #0
 8003bc0:	d103      	bne.n	8003bca <HAL_PCD_IRQHandler+0x6ee>
 8003bc2:	4663      	mov	r3, ip
 8003bc4:	003a      	movs	r2, r7
 8003bc6:	701e      	strb	r6, [r3, #0]
 8003bc8:	e7df      	b.n	8003b8a <HAL_PCD_IRQHandler+0x6ae>
 8003bca:	2200      	movs	r2, #0
 8003bcc:	4667      	mov	r7, ip
 8003bce:	703a      	strb	r2, [r7, #0]
 8003bd0:	649a      	str	r2, [r3, #72]	; 0x48
 8003bd2:	0032      	movs	r2, r6
 8003bd4:	e7d9      	b.n	8003b8a <HAL_PCD_IRQHandler+0x6ae>
 8003bd6:	2a3e      	cmp	r2, #62	; 0x3e
 8003bd8:	d80e      	bhi.n	8003bf8 <HAL_PCD_IRQHandler+0x71c>
 8003bda:	2501      	movs	r5, #1
 8003bdc:	0857      	lsrs	r7, r2, #1
 8003bde:	402a      	ands	r2, r5
 8003be0:	18bf      	adds	r7, r7, r2
 8003be2:	02bf      	lsls	r7, r7, #10
 8003be4:	b2bf      	uxth	r7, r7
 8003be6:	8037      	strh	r7, [r6, #0]
 8003be8:	2228      	movs	r2, #40	; 0x28
 8003bea:	9d00      	ldr	r5, [sp, #0]
 8003bec:	436a      	muls	r2, r5
 8003bee:	18a2      	adds	r2, r4, r2
 8003bf0:	8e12      	ldrh	r2, [r2, #48]	; 0x30
 8003bf2:	f001 feca 	bl	800598a <USB_WritePMA>
 8003bf6:	e030      	b.n	8003c5a <HAL_PCD_IRQHandler+0x77e>
 8003bf8:	251f      	movs	r5, #31
 8003bfa:	0957      	lsrs	r7, r2, #5
 8003bfc:	402a      	ands	r2, r5
 8003bfe:	4255      	negs	r5, r2
 8003c00:	4155      	adcs	r5, r2
 8003c02:	1b7f      	subs	r7, r7, r5
 8003c04:	02bf      	lsls	r7, r7, #10
 8003c06:	e7d6      	b.n	8003bb6 <HAL_PCD_IRQHandler+0x6da>
 8003c08:	2f01      	cmp	r7, #1
 8003c0a:	d1ed      	bne.n	8003be8 <HAL_PCD_IRQHandler+0x70c>
 8003c0c:	0002      	movs	r2, r0
 8003c0e:	3250      	adds	r2, #80	; 0x50
 8003c10:	8817      	ldrh	r7, [r2, #0]
 8003c12:	7832      	ldrb	r2, [r6, #0]
 8003c14:	19ef      	adds	r7, r5, r7
 8003c16:	00d2      	lsls	r2, r2, #3
 8003c18:	19d7      	adds	r7, r2, r7
 8003c1a:	803b      	strh	r3, [r7, #0]
 8003c1c:	e7e4      	b.n	8003be8 <HAL_PCD_IRQHandler+0x70c>
 8003c1e:	4d50      	ldr	r5, [pc, #320]	; (8003d60 <HAL_PCD_IRQHandler+0x884>)
 8003c20:	8836      	ldrh	r6, [r6, #0]
 8003c22:	1945      	adds	r5, r0, r5
 8003c24:	19ae      	adds	r6, r5, r6
 8003c26:	5bf7      	ldrh	r7, [r6, r7]
 8003c28:	05bf      	lsls	r7, r7, #22
 8003c2a:	0dbf      	lsrs	r7, r7, #22
 8003c2c:	429f      	cmp	r7, r3
 8003c2e:	d81f      	bhi.n	8003c70 <HAL_PCD_IRQHandler+0x794>
 8003c30:	9a01      	ldr	r2, [sp, #4]
 8003c32:	1bdb      	subs	r3, r3, r7
 8003c34:	6413      	str	r3, [r2, #64]	; 0x40
 8003c36:	2680      	movs	r6, #128	; 0x80
 8003c38:	9b02      	ldr	r3, [sp, #8]
 8003c3a:	01f6      	lsls	r6, r6, #7
 8003c3c:	4033      	ands	r3, r6
 8003c3e:	001e      	movs	r6, r3
 8003c40:	2328      	movs	r3, #40	; 0x28
 8003c42:	9a00      	ldr	r2, [sp, #0]
 8003c44:	4353      	muls	r3, r2
 8003c46:	18e3      	adds	r3, r4, r3
 8003c48:	6c1b      	ldr	r3, [r3, #64]	; 0x40
 8003c4a:	2b00      	cmp	r3, #0
 8003c4c:	d113      	bne.n	8003c76 <HAL_PCD_IRQHandler+0x79a>
 8003c4e:	0020      	movs	r0, r4
 8003c50:	f003 f834 	bl	8006cbc <HAL_PCD_DataInStageCallback>
 8003c54:	2e00      	cmp	r6, #0
 8003c56:	d100      	bne.n	8003c5a <HAL_PCD_IRQHandler+0x77e>
 8003c58:	e752      	b.n	8003b00 <HAL_PCD_IRQHandler+0x624>
 8003c5a:	9d01      	ldr	r5, [sp, #4]
 8003c5c:	6822      	ldr	r2, [r4, #0]
 8003c5e:	3528      	adds	r5, #40	; 0x28
 8003c60:	782b      	ldrb	r3, [r5, #0]
 8003c62:	009b      	lsls	r3, r3, #2
 8003c64:	18d1      	adds	r1, r2, r3
 8003c66:	880b      	ldrh	r3, [r1, #0]
 8003c68:	4a3e      	ldr	r2, [pc, #248]	; (8003d64 <HAL_PCD_IRQHandler+0x888>)
 8003c6a:	401a      	ands	r2, r3
 8003c6c:	2330      	movs	r3, #48	; 0x30
 8003c6e:	e592      	b.n	8003796 <HAL_PCD_IRQHandler+0x2ba>
 8003c70:	9b01      	ldr	r3, [sp, #4]
 8003c72:	641a      	str	r2, [r3, #64]	; 0x40
 8003c74:	e7df      	b.n	8003c36 <HAL_PCD_IRQHandler+0x75a>
 8003c76:	2e00      	cmp	r6, #0
 8003c78:	d107      	bne.n	8003c8a <HAL_PCD_IRQHandler+0x7ae>
 8003c7a:	0089      	lsls	r1, r1, #2
 8003c7c:	1841      	adds	r1, r0, r1
 8003c7e:	880a      	ldrh	r2, [r1, #0]
 8003c80:	4b34      	ldr	r3, [pc, #208]	; (8003d54 <HAL_PCD_IRQHandler+0x878>)
 8003c82:	4013      	ands	r3, r2
 8003c84:	4a34      	ldr	r2, [pc, #208]	; (8003d58 <HAL_PCD_IRQHandler+0x87c>)
 8003c86:	4313      	orrs	r3, r2
 8003c88:	800b      	strh	r3, [r1, #0]
 8003c8a:	2328      	movs	r3, #40	; 0x28
 8003c8c:	9a00      	ldr	r2, [sp, #0]
 8003c8e:	4353      	muls	r3, r2
 8003c90:	224c      	movs	r2, #76	; 0x4c
 8003c92:	4694      	mov	ip, r2
 8003c94:	18e3      	adds	r3, r4, r3
 8003c96:	449c      	add	ip, r3
 8003c98:	4662      	mov	r2, ip
 8003c9a:	7812      	ldrb	r2, [r2, #0]
 8003c9c:	2a01      	cmp	r2, #1
 8003c9e:	d1dc      	bne.n	8003c5a <HAL_PCD_IRQHandler+0x77e>
 8003ca0:	6bda      	ldr	r2, [r3, #60]	; 0x3c
 8003ca2:	6c9e      	ldr	r6, [r3, #72]	; 0x48
 8003ca4:	19d1      	adds	r1, r2, r7
 8003ca6:	6c5a      	ldr	r2, [r3, #68]	; 0x44
 8003ca8:	63d9      	str	r1, [r3, #60]	; 0x3c
 8003caa:	19d2      	adds	r2, r2, r7
 8003cac:	645a      	str	r2, [r3, #68]	; 0x44
 8003cae:	6b9a      	ldr	r2, [r3, #56]	; 0x38
 8003cb0:	4296      	cmp	r6, r2
 8003cb2:	d31b      	bcc.n	8003cec <HAL_PCD_IRQHandler+0x810>
 8003cb4:	1ab6      	subs	r6, r6, r2
 8003cb6:	649e      	str	r6, [r3, #72]	; 0x48
 8003cb8:	9b01      	ldr	r3, [sp, #4]
 8003cba:	9e01      	ldr	r6, [sp, #4]
 8003cbc:	3329      	adds	r3, #41	; 0x29
 8003cbe:	781f      	ldrb	r7, [r3, #0]
 8003cc0:	3628      	adds	r6, #40	; 0x28
 8003cc2:	b293      	uxth	r3, r2
 8003cc4:	2f00      	cmp	r7, #0
 8003cc6:	d134      	bne.n	8003d32 <HAL_PCD_IRQHandler+0x856>
 8003cc8:	0007      	movs	r7, r0
 8003cca:	3750      	adds	r7, #80	; 0x50
 8003ccc:	883f      	ldrh	r7, [r7, #0]
 8003cce:	7836      	ldrb	r6, [r6, #0]
 8003cd0:	19ef      	adds	r7, r5, r7
 8003cd2:	00f6      	lsls	r6, r6, #3
 8003cd4:	19f6      	adds	r6, r6, r7
 8003cd6:	2a00      	cmp	r2, #0
 8003cd8:	d114      	bne.n	8003d04 <HAL_PCD_IRQHandler+0x828>
 8003cda:	8832      	ldrh	r2, [r6, #0]
 8003cdc:	4f1f      	ldr	r7, [pc, #124]	; (8003d5c <HAL_PCD_IRQHandler+0x880>)
 8003cde:	403a      	ands	r2, r7
 8003ce0:	8032      	strh	r2, [r6, #0]
 8003ce2:	8837      	ldrh	r7, [r6, #0]
 8003ce4:	9a03      	ldr	r2, [sp, #12]
 8003ce6:	433a      	orrs	r2, r7
 8003ce8:	0017      	movs	r7, r2
 8003cea:	e012      	b.n	8003d12 <HAL_PCD_IRQHandler+0x836>
 8003cec:	2e00      	cmp	r6, #0
 8003cee:	d103      	bne.n	8003cf8 <HAL_PCD_IRQHandler+0x81c>
 8003cf0:	4663      	mov	r3, ip
 8003cf2:	003a      	movs	r2, r7
 8003cf4:	701e      	strb	r6, [r3, #0]
 8003cf6:	e7df      	b.n	8003cb8 <HAL_PCD_IRQHandler+0x7dc>
 8003cf8:	2200      	movs	r2, #0
 8003cfa:	649a      	str	r2, [r3, #72]	; 0x48
 8003cfc:	4663      	mov	r3, ip
 8003cfe:	701a      	strb	r2, [r3, #0]
 8003d00:	0032      	movs	r2, r6
 8003d02:	e7d9      	b.n	8003cb8 <HAL_PCD_IRQHandler+0x7dc>
 8003d04:	2a3e      	cmp	r2, #62	; 0x3e
 8003d06:	d80c      	bhi.n	8003d22 <HAL_PCD_IRQHandler+0x846>
 8003d08:	2501      	movs	r5, #1
 8003d0a:	0857      	lsrs	r7, r2, #1
 8003d0c:	402a      	ands	r2, r5
 8003d0e:	18bf      	adds	r7, r7, r2
 8003d10:	02bf      	lsls	r7, r7, #10
 8003d12:	b2bf      	uxth	r7, r7
 8003d14:	8037      	strh	r7, [r6, #0]
 8003d16:	2228      	movs	r2, #40	; 0x28
 8003d18:	9d00      	ldr	r5, [sp, #0]
 8003d1a:	436a      	muls	r2, r5
 8003d1c:	18a2      	adds	r2, r4, r2
 8003d1e:	8e52      	ldrh	r2, [r2, #50]	; 0x32
 8003d20:	e767      	b.n	8003bf2 <HAL_PCD_IRQHandler+0x716>
 8003d22:	251f      	movs	r5, #31
 8003d24:	0957      	lsrs	r7, r2, #5
 8003d26:	402a      	ands	r2, r5
 8003d28:	4255      	negs	r5, r2
 8003d2a:	4155      	adcs	r5, r2
 8003d2c:	1b7f      	subs	r7, r7, r5
 8003d2e:	02bf      	lsls	r7, r7, #10
 8003d30:	e7d8      	b.n	8003ce4 <HAL_PCD_IRQHandler+0x808>
 8003d32:	2f01      	cmp	r7, #1
 8003d34:	d1ef      	bne.n	8003d16 <HAL_PCD_IRQHandler+0x83a>
 8003d36:	0002      	movs	r2, r0
 8003d38:	3250      	adds	r2, #80	; 0x50
 8003d3a:	8817      	ldrh	r7, [r2, #0]
 8003d3c:	7832      	ldrb	r2, [r6, #0]
 8003d3e:	19ef      	adds	r7, r5, r7
 8003d40:	00d2      	lsls	r2, r2, #3
 8003d42:	19d7      	adds	r7, r2, r7
 8003d44:	803b      	strh	r3, [r7, #0]
 8003d46:	e7e6      	b.n	8003d16 <HAL_PCD_IRQHandler+0x83a>
 8003d48:	0020      	movs	r0, r4
 8003d4a:	f002 ffdb 	bl	8006d04 <HAL_PCD_SuspendCallback>
 8003d4e:	f7ff fc57 	bl	8003600 <HAL_PCD_IRQHandler+0x124>
 8003d52:	46c0      	nop			; (mov r8, r8)
 8003d54:	ffff8f8f 	.word	0xffff8f8f
 8003d58:	0000c080 	.word	0x0000c080
 8003d5c:	ffff83ff 	.word	0xffff83ff
 8003d60:	00000406 	.word	0x00000406
 8003d64:	ffff8fbf 	.word	0xffff8fbf

08003d68 <HAL_PCD_EP_Open>:
 8003d68:	b570      	push	{r4, r5, r6, lr}
 8003d6a:	2507      	movs	r5, #7
 8003d6c:	400d      	ands	r5, r1
 8003d6e:	b249      	sxtb	r1, r1
 8003d70:	0004      	movs	r4, r0
 8003d72:	2028      	movs	r0, #40	; 0x28
 8003d74:	2900      	cmp	r1, #0
 8003d76:	da1d      	bge.n	8003db4 <HAL_PCD_EP_Open+0x4c>
 8003d78:	1c69      	adds	r1, r5, #1
 8003d7a:	4341      	muls	r1, r0
 8003d7c:	3827      	subs	r0, #39	; 0x27
 8003d7e:	1861      	adds	r1, r4, r1
 8003d80:	7048      	strb	r0, [r1, #1]
 8003d82:	610a      	str	r2, [r1, #16]
 8003d84:	784a      	ldrb	r2, [r1, #1]
 8003d86:	700d      	strb	r5, [r1, #0]
 8003d88:	70cb      	strb	r3, [r1, #3]
 8003d8a:	2a00      	cmp	r2, #0
 8003d8c:	d000      	beq.n	8003d90 <HAL_PCD_EP_Open+0x28>
 8003d8e:	81cd      	strh	r5, [r1, #14]
 8003d90:	2b02      	cmp	r3, #2
 8003d92:	d101      	bne.n	8003d98 <HAL_PCD_EP_Open+0x30>
 8003d94:	2300      	movs	r3, #0
 8003d96:	710b      	strb	r3, [r1, #4]
 8003d98:	25aa      	movs	r5, #170	; 0xaa
 8003d9a:	00ad      	lsls	r5, r5, #2
 8003d9c:	5d63      	ldrb	r3, [r4, r5]
 8003d9e:	2002      	movs	r0, #2
 8003da0:	2b01      	cmp	r3, #1
 8003da2:	d006      	beq.n	8003db2 <HAL_PCD_EP_Open+0x4a>
 8003da4:	2301      	movs	r3, #1
 8003da6:	6820      	ldr	r0, [r4, #0]
 8003da8:	5563      	strb	r3, [r4, r5]
 8003daa:	f001 fbb7 	bl	800551c <USB_ActivateEndpoint>
 8003dae:	2000      	movs	r0, #0
 8003db0:	5560      	strb	r0, [r4, r5]
 8003db2:	bd70      	pop	{r4, r5, r6, pc}
 8003db4:	4368      	muls	r0, r5
 8003db6:	0001      	movs	r1, r0
 8003db8:	2600      	movs	r6, #0
 8003dba:	1820      	adds	r0, r4, r0
 8003dbc:	3169      	adds	r1, #105	; 0x69
 8003dbe:	306a      	adds	r0, #106	; 0x6a
 8003dc0:	31ff      	adds	r1, #255	; 0xff
 8003dc2:	30ff      	adds	r0, #255	; 0xff
 8003dc4:	1861      	adds	r1, r4, r1
 8003dc6:	7006      	strb	r6, [r0, #0]
 8003dc8:	e7db      	b.n	8003d82 <HAL_PCD_EP_Open+0x1a>

08003dca <HAL_PCD_EP_Close>:
 8003dca:	b570      	push	{r4, r5, r6, lr}
 8003dcc:	0004      	movs	r4, r0
 8003dce:	2007      	movs	r0, #7
 8003dd0:	4008      	ands	r0, r1
 8003dd2:	b249      	sxtb	r1, r1
 8003dd4:	2328      	movs	r3, #40	; 0x28
 8003dd6:	2900      	cmp	r1, #0
 8003dd8:	da13      	bge.n	8003e02 <HAL_PCD_EP_Close+0x38>
 8003dda:	1c41      	adds	r1, r0, #1
 8003ddc:	4359      	muls	r1, r3
 8003dde:	3b27      	subs	r3, #39	; 0x27
 8003de0:	1861      	adds	r1, r4, r1
 8003de2:	704b      	strb	r3, [r1, #1]
 8003de4:	25aa      	movs	r5, #170	; 0xaa
 8003de6:	7008      	strb	r0, [r1, #0]
 8003de8:	00ad      	lsls	r5, r5, #2
 8003dea:	5d63      	ldrb	r3, [r4, r5]
 8003dec:	2002      	movs	r0, #2
 8003dee:	2b01      	cmp	r3, #1
 8003df0:	d006      	beq.n	8003e00 <HAL_PCD_EP_Close+0x36>
 8003df2:	2301      	movs	r3, #1
 8003df4:	6820      	ldr	r0, [r4, #0]
 8003df6:	5563      	strb	r3, [r4, r5]
 8003df8:	f001 fcbe 	bl	8005778 <USB_DeactivateEndpoint>
 8003dfc:	2000      	movs	r0, #0
 8003dfe:	5560      	strb	r0, [r4, r5]
 8003e00:	bd70      	pop	{r4, r5, r6, pc}
 8003e02:	4343      	muls	r3, r0
 8003e04:	0019      	movs	r1, r3
 8003e06:	18e2      	adds	r2, r4, r3
 8003e08:	2300      	movs	r3, #0
 8003e0a:	3169      	adds	r1, #105	; 0x69
 8003e0c:	326a      	adds	r2, #106	; 0x6a
 8003e0e:	31ff      	adds	r1, #255	; 0xff
 8003e10:	32ff      	adds	r2, #255	; 0xff
 8003e12:	1861      	adds	r1, r4, r1
 8003e14:	7013      	strb	r3, [r2, #0]
 8003e16:	e7e5      	b.n	8003de4 <HAL_PCD_EP_Close+0x1a>

08003e18 <HAL_PCD_EP_Receive>:
 8003e18:	b570      	push	{r4, r5, r6, lr}
 8003e1a:	2407      	movs	r4, #7
 8003e1c:	4021      	ands	r1, r4
 8003e1e:	3421      	adds	r4, #33	; 0x21
 8003e20:	434c      	muls	r4, r1
 8003e22:	1905      	adds	r5, r0, r4
 8003e24:	002e      	movs	r6, r5
 8003e26:	367d      	adds	r6, #125	; 0x7d
 8003e28:	36ff      	adds	r6, #255	; 0xff
 8003e2a:	6032      	str	r2, [r6, #0]
 8003e2c:	002a      	movs	r2, r5
 8003e2e:	3281      	adds	r2, #129	; 0x81
 8003e30:	32ff      	adds	r2, #255	; 0xff
 8003e32:	6013      	str	r3, [r2, #0]
 8003e34:	002b      	movs	r3, r5
 8003e36:	2600      	movs	r6, #0
 8003e38:	3385      	adds	r3, #133	; 0x85
 8003e3a:	33ff      	adds	r3, #255	; 0xff
 8003e3c:	3569      	adds	r5, #105	; 0x69
 8003e3e:	601e      	str	r6, [r3, #0]
 8003e40:	35ff      	adds	r5, #255	; 0xff
 8003e42:	3b1b      	subs	r3, #27
 8003e44:	701e      	strb	r6, [r3, #0]
 8003e46:	7029      	strb	r1, [r5, #0]
 8003e48:	0021      	movs	r1, r4
 8003e4a:	3169      	adds	r1, #105	; 0x69
 8003e4c:	31ff      	adds	r1, #255	; 0xff
 8003e4e:	1841      	adds	r1, r0, r1
 8003e50:	6800      	ldr	r0, [r0, #0]
 8003e52:	f001 fdaf 	bl	80059b4 <USB_EPStartXfer>
 8003e56:	0030      	movs	r0, r6
 8003e58:	bd70      	pop	{r4, r5, r6, pc}

08003e5a <HAL_PCD_EP_GetRxCount>:
 8003e5a:	2307      	movs	r3, #7
 8003e5c:	400b      	ands	r3, r1
 8003e5e:	2128      	movs	r1, #40	; 0x28
 8003e60:	4359      	muls	r1, r3
 8003e62:	1840      	adds	r0, r0, r1
 8003e64:	3085      	adds	r0, #133	; 0x85
 8003e66:	30ff      	adds	r0, #255	; 0xff
 8003e68:	6800      	ldr	r0, [r0, #0]
 8003e6a:	4770      	bx	lr

08003e6c <HAL_PCD_EP_Transmit>:
 8003e6c:	b570      	push	{r4, r5, r6, lr}
 8003e6e:	2628      	movs	r6, #40	; 0x28
 8003e70:	2407      	movs	r4, #7
 8003e72:	4021      	ands	r1, r4
 8003e74:	0034      	movs	r4, r6
 8003e76:	434c      	muls	r4, r1
 8003e78:	1904      	adds	r4, r0, r4
 8003e7a:	0025      	movs	r5, r4
 8003e7c:	63e2      	str	r2, [r4, #60]	; 0x3c
 8003e7e:	2201      	movs	r2, #1
 8003e80:	354c      	adds	r5, #76	; 0x4c
 8003e82:	6423      	str	r3, [r4, #64]	; 0x40
 8003e84:	702a      	strb	r2, [r5, #0]
 8003e86:	64a3      	str	r3, [r4, #72]	; 0x48
 8003e88:	2500      	movs	r5, #0
 8003e8a:	0023      	movs	r3, r4
 8003e8c:	6465      	str	r5, [r4, #68]	; 0x44
 8003e8e:	3329      	adds	r3, #41	; 0x29
 8003e90:	19a4      	adds	r4, r4, r6
 8003e92:	701a      	strb	r2, [r3, #0]
 8003e94:	7021      	strb	r1, [r4, #0]
 8003e96:	1889      	adds	r1, r1, r2
 8003e98:	4371      	muls	r1, r6
 8003e9a:	1841      	adds	r1, r0, r1
 8003e9c:	6800      	ldr	r0, [r0, #0]
 8003e9e:	f001 fd89 	bl	80059b4 <USB_EPStartXfer>
 8003ea2:	0028      	movs	r0, r5
 8003ea4:	bd70      	pop	{r4, r5, r6, pc}

08003ea6 <HAL_PCD_EP_SetStall>:
 8003ea6:	b570      	push	{r4, r5, r6, lr}
 8003ea8:	0004      	movs	r4, r0
 8003eaa:	2507      	movs	r5, #7
 8003eac:	6863      	ldr	r3, [r4, #4]
 8003eae:	400d      	ands	r5, r1
 8003eb0:	2001      	movs	r0, #1
 8003eb2:	429d      	cmp	r5, r3
 8003eb4:	d816      	bhi.n	8003ee4 <HAL_PCD_EP_SetStall+0x3e>
 8003eb6:	b24a      	sxtb	r2, r1
 8003eb8:	2328      	movs	r3, #40	; 0x28
 8003eba:	2a00      	cmp	r2, #0
 8003ebc:	da13      	bge.n	8003ee6 <HAL_PCD_EP_SetStall+0x40>
 8003ebe:	1829      	adds	r1, r5, r0
 8003ec0:	4359      	muls	r1, r3
 8003ec2:	1861      	adds	r1, r4, r1
 8003ec4:	7048      	strb	r0, [r1, #1]
 8003ec6:	700d      	strb	r5, [r1, #0]
 8003ec8:	2301      	movs	r3, #1
 8003eca:	25aa      	movs	r5, #170	; 0xaa
 8003ecc:	708b      	strb	r3, [r1, #2]
 8003ece:	00ad      	lsls	r5, r5, #2
 8003ed0:	5d62      	ldrb	r2, [r4, r5]
 8003ed2:	2002      	movs	r0, #2
 8003ed4:	429a      	cmp	r2, r3
 8003ed6:	d005      	beq.n	8003ee4 <HAL_PCD_EP_SetStall+0x3e>
 8003ed8:	5563      	strb	r3, [r4, r5]
 8003eda:	6820      	ldr	r0, [r4, #0]
 8003edc:	f001 fce2 	bl	80058a4 <USB_EPSetStall>
 8003ee0:	2000      	movs	r0, #0
 8003ee2:	5560      	strb	r0, [r4, r5]
 8003ee4:	bd70      	pop	{r4, r5, r6, pc}
 8003ee6:	434b      	muls	r3, r1
 8003ee8:	0019      	movs	r1, r3
 8003eea:	18e2      	adds	r2, r4, r3
 8003eec:	2300      	movs	r3, #0
 8003eee:	3169      	adds	r1, #105	; 0x69
 8003ef0:	326a      	adds	r2, #106	; 0x6a
 8003ef2:	31ff      	adds	r1, #255	; 0xff
 8003ef4:	32ff      	adds	r2, #255	; 0xff
 8003ef6:	1861      	adds	r1, r4, r1
 8003ef8:	7013      	strb	r3, [r2, #0]
 8003efa:	e7e4      	b.n	8003ec6 <HAL_PCD_EP_SetStall+0x20>

08003efc <HAL_PCD_EP_ClrStall>:
 8003efc:	b570      	push	{r4, r5, r6, lr}
 8003efe:	0004      	movs	r4, r0
 8003f00:	230f      	movs	r3, #15
 8003f02:	6862      	ldr	r2, [r4, #4]
 8003f04:	400b      	ands	r3, r1
 8003f06:	2001      	movs	r0, #1
 8003f08:	4293      	cmp	r3, r2
 8003f0a:	d819      	bhi.n	8003f40 <HAL_PCD_EP_ClrStall+0x44>
 8003f0c:	2507      	movs	r5, #7
 8003f0e:	400d      	ands	r5, r1
 8003f10:	b249      	sxtb	r1, r1
 8003f12:	2328      	movs	r3, #40	; 0x28
 8003f14:	2900      	cmp	r1, #0
 8003f16:	da14      	bge.n	8003f42 <HAL_PCD_EP_ClrStall+0x46>
 8003f18:	1829      	adds	r1, r5, r0
 8003f1a:	4359      	muls	r1, r3
 8003f1c:	1861      	adds	r1, r4, r1
 8003f1e:	7048      	strb	r0, [r1, #1]
 8003f20:	700d      	strb	r5, [r1, #0]
 8003f22:	2600      	movs	r6, #0
 8003f24:	25aa      	movs	r5, #170	; 0xaa
 8003f26:	708e      	strb	r6, [r1, #2]
 8003f28:	00ad      	lsls	r5, r5, #2
 8003f2a:	5d63      	ldrb	r3, [r4, r5]
 8003f2c:	2002      	movs	r0, #2
 8003f2e:	2b01      	cmp	r3, #1
 8003f30:	d006      	beq.n	8003f40 <HAL_PCD_EP_ClrStall+0x44>
 8003f32:	2301      	movs	r3, #1
 8003f34:	6820      	ldr	r0, [r4, #0]
 8003f36:	5563      	strb	r3, [r4, r5]
 8003f38:	f001 fcd2 	bl	80058e0 <USB_EPClearStall>
 8003f3c:	0030      	movs	r0, r6
 8003f3e:	5566      	strb	r6, [r4, r5]
 8003f40:	bd70      	pop	{r4, r5, r6, pc}
 8003f42:	436b      	muls	r3, r5
 8003f44:	0019      	movs	r1, r3
 8003f46:	18e2      	adds	r2, r4, r3
 8003f48:	2300      	movs	r3, #0
 8003f4a:	3169      	adds	r1, #105	; 0x69
 8003f4c:	326a      	adds	r2, #106	; 0x6a
 8003f4e:	31ff      	adds	r1, #255	; 0xff
 8003f50:	32ff      	adds	r2, #255	; 0xff
 8003f52:	1861      	adds	r1, r4, r1
 8003f54:	7013      	strb	r3, [r2, #0]
 8003f56:	e7e3      	b.n	8003f20 <HAL_PCD_EP_ClrStall+0x24>

08003f58 <HAL_PCDEx_PMAConfig>:
 8003f58:	b510      	push	{r4, lr}
 8003f5a:	060c      	lsls	r4, r1, #24
 8003f5c:	d50c      	bpl.n	8003f78 <HAL_PCDEx_PMAConfig+0x20>
 8003f5e:	2407      	movs	r4, #7
 8003f60:	4021      	ands	r1, r4
 8003f62:	3101      	adds	r1, #1
 8003f64:	3421      	adds	r4, #33	; 0x21
 8003f66:	4361      	muls	r1, r4
 8003f68:	1840      	adds	r0, r0, r1
 8003f6a:	b299      	uxth	r1, r3
 8003f6c:	2a00      	cmp	r2, #0
 8003f6e:	d108      	bne.n	8003f82 <HAL_PCDEx_PMAConfig+0x2a>
 8003f70:	7302      	strb	r2, [r0, #12]
 8003f72:	80c1      	strh	r1, [r0, #6]
 8003f74:	2000      	movs	r0, #0
 8003f76:	bd10      	pop	{r4, pc}
 8003f78:	2428      	movs	r4, #40	; 0x28
 8003f7a:	4361      	muls	r1, r4
 8003f7c:	3169      	adds	r1, #105	; 0x69
 8003f7e:	31ff      	adds	r1, #255	; 0xff
 8003f80:	e7f2      	b.n	8003f68 <HAL_PCDEx_PMAConfig+0x10>
 8003f82:	2201      	movs	r2, #1
 8003f84:	0c1b      	lsrs	r3, r3, #16
 8003f86:	7302      	strb	r2, [r0, #12]
 8003f88:	8101      	strh	r1, [r0, #8]
 8003f8a:	8143      	strh	r3, [r0, #10]
 8003f8c:	e7f2      	b.n	8003f74 <HAL_PCDEx_PMAConfig+0x1c>

08003f8e <HAL_PCDEx_ActivateLPM>:
 8003f8e:	6803      	ldr	r3, [r0, #0]
 8003f90:	0001      	movs	r1, r0
 8003f92:	20ba      	movs	r0, #186	; 0xba
 8003f94:	2201      	movs	r2, #1
 8003f96:	b510      	push	{r4, lr}
 8003f98:	0080      	lsls	r0, r0, #2
 8003f9a:	24b8      	movs	r4, #184	; 0xb8
 8003f9c:	500a      	str	r2, [r1, r0]
 8003f9e:	2000      	movs	r0, #0
 8003fa0:	00a4      	lsls	r4, r4, #2
 8003fa2:	5508      	strb	r0, [r1, r4]
 8003fa4:	3354      	adds	r3, #84	; 0x54
 8003fa6:	8819      	ldrh	r1, [r3, #0]
 8003fa8:	430a      	orrs	r2, r1
 8003faa:	801a      	strh	r2, [r3, #0]
 8003fac:	2202      	movs	r2, #2
 8003fae:	8819      	ldrh	r1, [r3, #0]
 8003fb0:	430a      	orrs	r2, r1
 8003fb2:	801a      	strh	r2, [r3, #0]
 8003fb4:	bd10      	pop	{r4, pc}

08003fb6 <HAL_PCDEx_LPM_Callback>:
 8003fb6:	4770      	bx	lr

08003fb8 <HAL_RCC_OscConfig>:
 8003fb8:	b5f0      	push	{r4, r5, r6, r7, lr}
 8003fba:	0004      	movs	r4, r0
 8003fbc:	b085      	sub	sp, #20
 8003fbe:	2800      	cmp	r0, #0
 8003fc0:	d102      	bne.n	8003fc8 <HAL_RCC_OscConfig+0x10>
 8003fc2:	2001      	movs	r0, #1
 8003fc4:	b005      	add	sp, #20
 8003fc6:	bdf0      	pop	{r4, r5, r6, r7, pc}
 8003fc8:	6803      	ldr	r3, [r0, #0]
 8003fca:	07db      	lsls	r3, r3, #31
 8003fcc:	d433      	bmi.n	8004036 <HAL_RCC_OscConfig+0x7e>
 8003fce:	6823      	ldr	r3, [r4, #0]
 8003fd0:	079b      	lsls	r3, r3, #30
 8003fd2:	d500      	bpl.n	8003fd6 <HAL_RCC_OscConfig+0x1e>
 8003fd4:	e087      	b.n	80040e6 <HAL_RCC_OscConfig+0x12e>
 8003fd6:	6823      	ldr	r3, [r4, #0]
 8003fd8:	071b      	lsls	r3, r3, #28
 8003fda:	d500      	bpl.n	8003fde <HAL_RCC_OscConfig+0x26>
 8003fdc:	e0c8      	b.n	8004170 <HAL_RCC_OscConfig+0x1b8>
 8003fde:	6823      	ldr	r3, [r4, #0]
 8003fe0:	075b      	lsls	r3, r3, #29
 8003fe2:	d500      	bpl.n	8003fe6 <HAL_RCC_OscConfig+0x2e>
 8003fe4:	e0eb      	b.n	80041be <HAL_RCC_OscConfig+0x206>
 8003fe6:	6823      	ldr	r3, [r4, #0]
 8003fe8:	06db      	lsls	r3, r3, #27
 8003fea:	d51a      	bpl.n	8004022 <HAL_RCC_OscConfig+0x6a>
 8003fec:	6962      	ldr	r2, [r4, #20]
 8003fee:	4dbc      	ldr	r5, [pc, #752]	; (80042e0 <HAL_RCC_OscConfig+0x328>)
 8003ff0:	2304      	movs	r3, #4
 8003ff2:	2a01      	cmp	r2, #1
 8003ff4:	d000      	beq.n	8003ff8 <HAL_RCC_OscConfig+0x40>
 8003ff6:	e157      	b.n	80042a8 <HAL_RCC_OscConfig+0x2f0>
 8003ff8:	6b69      	ldr	r1, [r5, #52]	; 0x34
 8003ffa:	2602      	movs	r6, #2
 8003ffc:	430b      	orrs	r3, r1
 8003ffe:	636b      	str	r3, [r5, #52]	; 0x34
 8004000:	6b6b      	ldr	r3, [r5, #52]	; 0x34
 8004002:	431a      	orrs	r2, r3
 8004004:	636a      	str	r2, [r5, #52]	; 0x34
 8004006:	f7fd fdf7 	bl	8001bf8 <HAL_GetTick>
 800400a:	0007      	movs	r7, r0
 800400c:	6b6b      	ldr	r3, [r5, #52]	; 0x34
 800400e:	4233      	tst	r3, r6
 8004010:	d100      	bne.n	8004014 <HAL_RCC_OscConfig+0x5c>
 8004012:	e142      	b.n	800429a <HAL_RCC_OscConfig+0x2e2>
 8004014:	21f8      	movs	r1, #248	; 0xf8
 8004016:	6b6a      	ldr	r2, [r5, #52]	; 0x34
 8004018:	69a3      	ldr	r3, [r4, #24]
 800401a:	438a      	bics	r2, r1
 800401c:	00db      	lsls	r3, r3, #3
 800401e:	4313      	orrs	r3, r2
 8004020:	636b      	str	r3, [r5, #52]	; 0x34
 8004022:	6823      	ldr	r3, [r4, #0]
 8004024:	069b      	lsls	r3, r3, #26
 8004026:	d500      	bpl.n	800402a <HAL_RCC_OscConfig+0x72>
 8004028:	e166      	b.n	80042f8 <HAL_RCC_OscConfig+0x340>
 800402a:	6a62      	ldr	r2, [r4, #36]	; 0x24
 800402c:	2a00      	cmp	r2, #0
 800402e:	d000      	beq.n	8004032 <HAL_RCC_OscConfig+0x7a>
 8004030:	e1a3      	b.n	800437a <HAL_RCC_OscConfig+0x3c2>
 8004032:	2000      	movs	r0, #0
 8004034:	e7c6      	b.n	8003fc4 <HAL_RCC_OscConfig+0xc>
 8004036:	210c      	movs	r1, #12
 8004038:	4da9      	ldr	r5, [pc, #676]	; (80042e0 <HAL_RCC_OscConfig+0x328>)
 800403a:	686a      	ldr	r2, [r5, #4]
 800403c:	400a      	ands	r2, r1
 800403e:	2a04      	cmp	r2, #4
 8004040:	d00b      	beq.n	800405a <HAL_RCC_OscConfig+0xa2>
 8004042:	686b      	ldr	r3, [r5, #4]
 8004044:	400b      	ands	r3, r1
 8004046:	2b08      	cmp	r3, #8
 8004048:	d10e      	bne.n	8004068 <HAL_RCC_OscConfig+0xb0>
 800404a:	22c0      	movs	r2, #192	; 0xc0
 800404c:	686b      	ldr	r3, [r5, #4]
 800404e:	0252      	lsls	r2, r2, #9
 8004050:	4013      	ands	r3, r2
 8004052:	2280      	movs	r2, #128	; 0x80
 8004054:	0252      	lsls	r2, r2, #9
 8004056:	4293      	cmp	r3, r2
 8004058:	d106      	bne.n	8004068 <HAL_RCC_OscConfig+0xb0>
 800405a:	682b      	ldr	r3, [r5, #0]
 800405c:	039b      	lsls	r3, r3, #14
 800405e:	d5b6      	bpl.n	8003fce <HAL_RCC_OscConfig+0x16>
 8004060:	6863      	ldr	r3, [r4, #4]
 8004062:	2b00      	cmp	r3, #0
 8004064:	d1b3      	bne.n	8003fce <HAL_RCC_OscConfig+0x16>
 8004066:	e7ac      	b.n	8003fc2 <HAL_RCC_OscConfig+0xa>
 8004068:	6863      	ldr	r3, [r4, #4]
 800406a:	2b01      	cmp	r3, #1
 800406c:	d113      	bne.n	8004096 <HAL_RCC_OscConfig+0xde>
 800406e:	2380      	movs	r3, #128	; 0x80
 8004070:	682a      	ldr	r2, [r5, #0]
 8004072:	025b      	lsls	r3, r3, #9
 8004074:	4313      	orrs	r3, r2
 8004076:	602b      	str	r3, [r5, #0]
 8004078:	f7fd fdbe 	bl	8001bf8 <HAL_GetTick>
 800407c:	2680      	movs	r6, #128	; 0x80
 800407e:	0007      	movs	r7, r0
 8004080:	02b6      	lsls	r6, r6, #10
 8004082:	682b      	ldr	r3, [r5, #0]
 8004084:	4233      	tst	r3, r6
 8004086:	d1a2      	bne.n	8003fce <HAL_RCC_OscConfig+0x16>
 8004088:	f7fd fdb6 	bl	8001bf8 <HAL_GetTick>
 800408c:	1bc0      	subs	r0, r0, r7
 800408e:	2864      	cmp	r0, #100	; 0x64
 8004090:	d9f7      	bls.n	8004082 <HAL_RCC_OscConfig+0xca>
 8004092:	2003      	movs	r0, #3
 8004094:	e796      	b.n	8003fc4 <HAL_RCC_OscConfig+0xc>
 8004096:	2b00      	cmp	r3, #0
 8004098:	d115      	bne.n	80040c6 <HAL_RCC_OscConfig+0x10e>
 800409a:	682b      	ldr	r3, [r5, #0]
 800409c:	4a91      	ldr	r2, [pc, #580]	; (80042e4 <HAL_RCC_OscConfig+0x32c>)
 800409e:	2680      	movs	r6, #128	; 0x80
 80040a0:	4013      	ands	r3, r2
 80040a2:	602b      	str	r3, [r5, #0]
 80040a4:	682b      	ldr	r3, [r5, #0]
 80040a6:	4a90      	ldr	r2, [pc, #576]	; (80042e8 <HAL_RCC_OscConfig+0x330>)
 80040a8:	02b6      	lsls	r6, r6, #10
 80040aa:	4013      	ands	r3, r2
 80040ac:	602b      	str	r3, [r5, #0]
 80040ae:	f7fd fda3 	bl	8001bf8 <HAL_GetTick>
 80040b2:	0007      	movs	r7, r0
 80040b4:	682b      	ldr	r3, [r5, #0]
 80040b6:	4233      	tst	r3, r6
 80040b8:	d089      	beq.n	8003fce <HAL_RCC_OscConfig+0x16>
 80040ba:	f7fd fd9d 	bl	8001bf8 <HAL_GetTick>
 80040be:	1bc0      	subs	r0, r0, r7
 80040c0:	2864      	cmp	r0, #100	; 0x64
 80040c2:	d9f7      	bls.n	80040b4 <HAL_RCC_OscConfig+0xfc>
 80040c4:	e7e5      	b.n	8004092 <HAL_RCC_OscConfig+0xda>
 80040c6:	2b05      	cmp	r3, #5
 80040c8:	d105      	bne.n	80040d6 <HAL_RCC_OscConfig+0x11e>
 80040ca:	2380      	movs	r3, #128	; 0x80
 80040cc:	682a      	ldr	r2, [r5, #0]
 80040ce:	02db      	lsls	r3, r3, #11
 80040d0:	4313      	orrs	r3, r2
 80040d2:	602b      	str	r3, [r5, #0]
 80040d4:	e7cb      	b.n	800406e <HAL_RCC_OscConfig+0xb6>
 80040d6:	682b      	ldr	r3, [r5, #0]
 80040d8:	4a82      	ldr	r2, [pc, #520]	; (80042e4 <HAL_RCC_OscConfig+0x32c>)
 80040da:	4013      	ands	r3, r2
 80040dc:	602b      	str	r3, [r5, #0]
 80040de:	682b      	ldr	r3, [r5, #0]
 80040e0:	4a81      	ldr	r2, [pc, #516]	; (80042e8 <HAL_RCC_OscConfig+0x330>)
 80040e2:	4013      	ands	r3, r2
 80040e4:	e7c7      	b.n	8004076 <HAL_RCC_OscConfig+0xbe>
 80040e6:	220c      	movs	r2, #12
 80040e8:	4d7d      	ldr	r5, [pc, #500]	; (80042e0 <HAL_RCC_OscConfig+0x328>)
 80040ea:	686b      	ldr	r3, [r5, #4]
 80040ec:	4213      	tst	r3, r2
 80040ee:	d00b      	beq.n	8004108 <HAL_RCC_OscConfig+0x150>
 80040f0:	686b      	ldr	r3, [r5, #4]
 80040f2:	4013      	ands	r3, r2
 80040f4:	2b08      	cmp	r3, #8
 80040f6:	d116      	bne.n	8004126 <HAL_RCC_OscConfig+0x16e>
 80040f8:	22c0      	movs	r2, #192	; 0xc0
 80040fa:	686b      	ldr	r3, [r5, #4]
 80040fc:	0252      	lsls	r2, r2, #9
 80040fe:	4013      	ands	r3, r2
 8004100:	2280      	movs	r2, #128	; 0x80
 8004102:	0212      	lsls	r2, r2, #8
 8004104:	4293      	cmp	r3, r2
 8004106:	d10e      	bne.n	8004126 <HAL_RCC_OscConfig+0x16e>
 8004108:	682b      	ldr	r3, [r5, #0]
 800410a:	079b      	lsls	r3, r3, #30
 800410c:	d503      	bpl.n	8004116 <HAL_RCC_OscConfig+0x15e>
 800410e:	68e3      	ldr	r3, [r4, #12]
 8004110:	2b01      	cmp	r3, #1
 8004112:	d000      	beq.n	8004116 <HAL_RCC_OscConfig+0x15e>
 8004114:	e755      	b.n	8003fc2 <HAL_RCC_OscConfig+0xa>
 8004116:	21f8      	movs	r1, #248	; 0xf8
 8004118:	682a      	ldr	r2, [r5, #0]
 800411a:	6923      	ldr	r3, [r4, #16]
 800411c:	438a      	bics	r2, r1
 800411e:	00db      	lsls	r3, r3, #3
 8004120:	4313      	orrs	r3, r2
 8004122:	602b      	str	r3, [r5, #0]
 8004124:	e757      	b.n	8003fd6 <HAL_RCC_OscConfig+0x1e>
 8004126:	68e2      	ldr	r2, [r4, #12]
 8004128:	2301      	movs	r3, #1
 800412a:	2a00      	cmp	r2, #0
 800412c:	d00f      	beq.n	800414e <HAL_RCC_OscConfig+0x196>
 800412e:	682a      	ldr	r2, [r5, #0]
 8004130:	2602      	movs	r6, #2
 8004132:	4313      	orrs	r3, r2
 8004134:	602b      	str	r3, [r5, #0]
 8004136:	f7fd fd5f 	bl	8001bf8 <HAL_GetTick>
 800413a:	0007      	movs	r7, r0
 800413c:	682b      	ldr	r3, [r5, #0]
 800413e:	4233      	tst	r3, r6
 8004140:	d1e9      	bne.n	8004116 <HAL_RCC_OscConfig+0x15e>
 8004142:	f7fd fd59 	bl	8001bf8 <HAL_GetTick>
 8004146:	1bc0      	subs	r0, r0, r7
 8004148:	2802      	cmp	r0, #2
 800414a:	d9f7      	bls.n	800413c <HAL_RCC_OscConfig+0x184>
 800414c:	e7a1      	b.n	8004092 <HAL_RCC_OscConfig+0xda>
 800414e:	682a      	ldr	r2, [r5, #0]
 8004150:	2602      	movs	r6, #2
 8004152:	439a      	bics	r2, r3
 8004154:	602a      	str	r2, [r5, #0]
 8004156:	f7fd fd4f 	bl	8001bf8 <HAL_GetTick>
 800415a:	0007      	movs	r7, r0
 800415c:	682b      	ldr	r3, [r5, #0]
 800415e:	4233      	tst	r3, r6
 8004160:	d100      	bne.n	8004164 <HAL_RCC_OscConfig+0x1ac>
 8004162:	e738      	b.n	8003fd6 <HAL_RCC_OscConfig+0x1e>
 8004164:	f7fd fd48 	bl	8001bf8 <HAL_GetTick>
 8004168:	1bc0      	subs	r0, r0, r7
 800416a:	2802      	cmp	r0, #2
 800416c:	d9f6      	bls.n	800415c <HAL_RCC_OscConfig+0x1a4>
 800416e:	e790      	b.n	8004092 <HAL_RCC_OscConfig+0xda>
 8004170:	69e2      	ldr	r2, [r4, #28]
 8004172:	2301      	movs	r3, #1
 8004174:	4d5a      	ldr	r5, [pc, #360]	; (80042e0 <HAL_RCC_OscConfig+0x328>)
 8004176:	2a00      	cmp	r2, #0
 8004178:	d010      	beq.n	800419c <HAL_RCC_OscConfig+0x1e4>
 800417a:	6a6a      	ldr	r2, [r5, #36]	; 0x24
 800417c:	2602      	movs	r6, #2
 800417e:	4313      	orrs	r3, r2
 8004180:	626b      	str	r3, [r5, #36]	; 0x24
 8004182:	f7fd fd39 	bl	8001bf8 <HAL_GetTick>
 8004186:	0007      	movs	r7, r0
 8004188:	6a6b      	ldr	r3, [r5, #36]	; 0x24
 800418a:	4233      	tst	r3, r6
 800418c:	d000      	beq.n	8004190 <HAL_RCC_OscConfig+0x1d8>
 800418e:	e726      	b.n	8003fde <HAL_RCC_OscConfig+0x26>
 8004190:	f7fd fd32 	bl	8001bf8 <HAL_GetTick>
 8004194:	1bc0      	subs	r0, r0, r7
 8004196:	2802      	cmp	r0, #2
 8004198:	d9f6      	bls.n	8004188 <HAL_RCC_OscConfig+0x1d0>
 800419a:	e77a      	b.n	8004092 <HAL_RCC_OscConfig+0xda>
 800419c:	6a6a      	ldr	r2, [r5, #36]	; 0x24
 800419e:	2602      	movs	r6, #2
 80041a0:	439a      	bics	r2, r3
 80041a2:	626a      	str	r2, [r5, #36]	; 0x24
 80041a4:	f7fd fd28 	bl	8001bf8 <HAL_GetTick>
 80041a8:	0007      	movs	r7, r0
 80041aa:	6a6b      	ldr	r3, [r5, #36]	; 0x24
 80041ac:	4233      	tst	r3, r6
 80041ae:	d100      	bne.n	80041b2 <HAL_RCC_OscConfig+0x1fa>
 80041b0:	e715      	b.n	8003fde <HAL_RCC_OscConfig+0x26>
 80041b2:	f7fd fd21 	bl	8001bf8 <HAL_GetTick>
 80041b6:	1bc0      	subs	r0, r0, r7
 80041b8:	2802      	cmp	r0, #2
 80041ba:	d9f6      	bls.n	80041aa <HAL_RCC_OscConfig+0x1f2>
 80041bc:	e769      	b.n	8004092 <HAL_RCC_OscConfig+0xda>
 80041be:	2280      	movs	r2, #128	; 0x80
 80041c0:	2100      	movs	r1, #0
 80041c2:	4d47      	ldr	r5, [pc, #284]	; (80042e0 <HAL_RCC_OscConfig+0x328>)
 80041c4:	0552      	lsls	r2, r2, #21
 80041c6:	69eb      	ldr	r3, [r5, #28]
 80041c8:	9100      	str	r1, [sp, #0]
 80041ca:	4213      	tst	r3, r2
 80041cc:	d108      	bne.n	80041e0 <HAL_RCC_OscConfig+0x228>
 80041ce:	69eb      	ldr	r3, [r5, #28]
 80041d0:	4313      	orrs	r3, r2
 80041d2:	61eb      	str	r3, [r5, #28]
 80041d4:	69eb      	ldr	r3, [r5, #28]
 80041d6:	4013      	ands	r3, r2
 80041d8:	9303      	str	r3, [sp, #12]
 80041da:	9b03      	ldr	r3, [sp, #12]
 80041dc:	2301      	movs	r3, #1
 80041de:	9300      	str	r3, [sp, #0]
 80041e0:	2780      	movs	r7, #128	; 0x80
 80041e2:	4e42      	ldr	r6, [pc, #264]	; (80042ec <HAL_RCC_OscConfig+0x334>)
 80041e4:	007f      	lsls	r7, r7, #1
 80041e6:	6833      	ldr	r3, [r6, #0]
 80041e8:	423b      	tst	r3, r7
 80041ea:	d006      	beq.n	80041fa <HAL_RCC_OscConfig+0x242>
 80041ec:	68a3      	ldr	r3, [r4, #8]
 80041ee:	2b01      	cmp	r3, #1
 80041f0:	d113      	bne.n	800421a <HAL_RCC_OscConfig+0x262>
 80041f2:	6a2a      	ldr	r2, [r5, #32]
 80041f4:	4313      	orrs	r3, r2
 80041f6:	622b      	str	r3, [r5, #32]
 80041f8:	e030      	b.n	800425c <HAL_RCC_OscConfig+0x2a4>
 80041fa:	6833      	ldr	r3, [r6, #0]
 80041fc:	433b      	orrs	r3, r7
 80041fe:	6033      	str	r3, [r6, #0]
 8004200:	f7fd fcfa 	bl	8001bf8 <HAL_GetTick>
 8004204:	9001      	str	r0, [sp, #4]
 8004206:	6833      	ldr	r3, [r6, #0]
 8004208:	423b      	tst	r3, r7
 800420a:	d1ef      	bne.n	80041ec <HAL_RCC_OscConfig+0x234>
 800420c:	f7fd fcf4 	bl	8001bf8 <HAL_GetTick>
 8004210:	9b01      	ldr	r3, [sp, #4]
 8004212:	1ac0      	subs	r0, r0, r3
 8004214:	2864      	cmp	r0, #100	; 0x64
 8004216:	d9f6      	bls.n	8004206 <HAL_RCC_OscConfig+0x24e>
 8004218:	e73b      	b.n	8004092 <HAL_RCC_OscConfig+0xda>
 800421a:	2201      	movs	r2, #1
 800421c:	2b00      	cmp	r3, #0
 800421e:	d114      	bne.n	800424a <HAL_RCC_OscConfig+0x292>
 8004220:	6a2b      	ldr	r3, [r5, #32]
 8004222:	2702      	movs	r7, #2
 8004224:	4393      	bics	r3, r2
 8004226:	622b      	str	r3, [r5, #32]
 8004228:	6a2b      	ldr	r3, [r5, #32]
 800422a:	3203      	adds	r2, #3
 800422c:	4393      	bics	r3, r2
 800422e:	622b      	str	r3, [r5, #32]
 8004230:	f7fd fce2 	bl	8001bf8 <HAL_GetTick>
 8004234:	0006      	movs	r6, r0
 8004236:	6a2b      	ldr	r3, [r5, #32]
 8004238:	423b      	tst	r3, r7
 800423a:	d025      	beq.n	8004288 <HAL_RCC_OscConfig+0x2d0>
 800423c:	f7fd fcdc 	bl	8001bf8 <HAL_GetTick>
 8004240:	4b2b      	ldr	r3, [pc, #172]	; (80042f0 <HAL_RCC_OscConfig+0x338>)
 8004242:	1b80      	subs	r0, r0, r6
 8004244:	4298      	cmp	r0, r3
 8004246:	d9f6      	bls.n	8004236 <HAL_RCC_OscConfig+0x27e>
 8004248:	e723      	b.n	8004092 <HAL_RCC_OscConfig+0xda>
 800424a:	2b05      	cmp	r3, #5
 800424c:	d10b      	bne.n	8004266 <HAL_RCC_OscConfig+0x2ae>
 800424e:	6a29      	ldr	r1, [r5, #32]
 8004250:	3b01      	subs	r3, #1
 8004252:	430b      	orrs	r3, r1
 8004254:	622b      	str	r3, [r5, #32]
 8004256:	6a2b      	ldr	r3, [r5, #32]
 8004258:	431a      	orrs	r2, r3
 800425a:	622a      	str	r2, [r5, #32]
 800425c:	f7fd fccc 	bl	8001bf8 <HAL_GetTick>
 8004260:	2702      	movs	r7, #2
 8004262:	0006      	movs	r6, r0
 8004264:	e00d      	b.n	8004282 <HAL_RCC_OscConfig+0x2ca>
 8004266:	6a2b      	ldr	r3, [r5, #32]
 8004268:	4393      	bics	r3, r2
 800426a:	2204      	movs	r2, #4
 800426c:	622b      	str	r3, [r5, #32]
 800426e:	6a2b      	ldr	r3, [r5, #32]
 8004270:	4393      	bics	r3, r2
 8004272:	e7c0      	b.n	80041f6 <HAL_RCC_OscConfig+0x23e>
 8004274:	f7fd fcc0 	bl	8001bf8 <HAL_GetTick>
 8004278:	4b1d      	ldr	r3, [pc, #116]	; (80042f0 <HAL_RCC_OscConfig+0x338>)
 800427a:	1b80      	subs	r0, r0, r6
 800427c:	4298      	cmp	r0, r3
 800427e:	d900      	bls.n	8004282 <HAL_RCC_OscConfig+0x2ca>
 8004280:	e707      	b.n	8004092 <HAL_RCC_OscConfig+0xda>
 8004282:	6a2b      	ldr	r3, [r5, #32]
 8004284:	423b      	tst	r3, r7
 8004286:	d0f5      	beq.n	8004274 <HAL_RCC_OscConfig+0x2bc>
 8004288:	9b00      	ldr	r3, [sp, #0]
 800428a:	2b01      	cmp	r3, #1
 800428c:	d000      	beq.n	8004290 <HAL_RCC_OscConfig+0x2d8>
 800428e:	e6aa      	b.n	8003fe6 <HAL_RCC_OscConfig+0x2e>
 8004290:	69eb      	ldr	r3, [r5, #28]
 8004292:	4a18      	ldr	r2, [pc, #96]	; (80042f4 <HAL_RCC_OscConfig+0x33c>)
 8004294:	4013      	ands	r3, r2
 8004296:	61eb      	str	r3, [r5, #28]
 8004298:	e6a5      	b.n	8003fe6 <HAL_RCC_OscConfig+0x2e>
 800429a:	f7fd fcad 	bl	8001bf8 <HAL_GetTick>
 800429e:	1bc0      	subs	r0, r0, r7
 80042a0:	2802      	cmp	r0, #2
 80042a2:	d800      	bhi.n	80042a6 <HAL_RCC_OscConfig+0x2ee>
 80042a4:	e6b2      	b.n	800400c <HAL_RCC_OscConfig+0x54>
 80042a6:	e6f4      	b.n	8004092 <HAL_RCC_OscConfig+0xda>
 80042a8:	3205      	adds	r2, #5
 80042aa:	d103      	bne.n	80042b4 <HAL_RCC_OscConfig+0x2fc>
 80042ac:	6b6a      	ldr	r2, [r5, #52]	; 0x34
 80042ae:	439a      	bics	r2, r3
 80042b0:	636a      	str	r2, [r5, #52]	; 0x34
 80042b2:	e6af      	b.n	8004014 <HAL_RCC_OscConfig+0x5c>
 80042b4:	6b6a      	ldr	r2, [r5, #52]	; 0x34
 80042b6:	2602      	movs	r6, #2
 80042b8:	4313      	orrs	r3, r2
 80042ba:	2201      	movs	r2, #1
 80042bc:	636b      	str	r3, [r5, #52]	; 0x34
 80042be:	6b6b      	ldr	r3, [r5, #52]	; 0x34
 80042c0:	4393      	bics	r3, r2
 80042c2:	636b      	str	r3, [r5, #52]	; 0x34
 80042c4:	f7fd fc98 	bl	8001bf8 <HAL_GetTick>
 80042c8:	0007      	movs	r7, r0
 80042ca:	6b6b      	ldr	r3, [r5, #52]	; 0x34
 80042cc:	4233      	tst	r3, r6
 80042ce:	d100      	bne.n	80042d2 <HAL_RCC_OscConfig+0x31a>
 80042d0:	e6a7      	b.n	8004022 <HAL_RCC_OscConfig+0x6a>
 80042d2:	f7fd fc91 	bl	8001bf8 <HAL_GetTick>
 80042d6:	1bc0      	subs	r0, r0, r7
 80042d8:	2802      	cmp	r0, #2
 80042da:	d9f6      	bls.n	80042ca <HAL_RCC_OscConfig+0x312>
 80042dc:	e6d9      	b.n	8004092 <HAL_RCC_OscConfig+0xda>
 80042de:	46c0      	nop			; (mov r8, r8)
 80042e0:	40021000 	.word	0x40021000
 80042e4:	fffeffff 	.word	0xfffeffff
 80042e8:	fffbffff 	.word	0xfffbffff
 80042ec:	40007000 	.word	0x40007000
 80042f0:	00001388 	.word	0x00001388
 80042f4:	efffffff 	.word	0xefffffff
 80042f8:	210c      	movs	r1, #12
 80042fa:	4d53      	ldr	r5, [pc, #332]	; (8004448 <HAL_RCC_OscConfig+0x490>)
 80042fc:	686a      	ldr	r2, [r5, #4]
 80042fe:	400a      	ands	r2, r1
 8004300:	428a      	cmp	r2, r1
 8004302:	d009      	beq.n	8004318 <HAL_RCC_OscConfig+0x360>
 8004304:	686b      	ldr	r3, [r5, #4]
 8004306:	400b      	ands	r3, r1
 8004308:	2b08      	cmp	r3, #8
 800430a:	d10e      	bne.n	800432a <HAL_RCC_OscConfig+0x372>
 800430c:	22c0      	movs	r2, #192	; 0xc0
 800430e:	686b      	ldr	r3, [r5, #4]
 8004310:	0252      	lsls	r2, r2, #9
 8004312:	4013      	ands	r3, r2
 8004314:	4293      	cmp	r3, r2
 8004316:	d108      	bne.n	800432a <HAL_RCC_OscConfig+0x372>
 8004318:	6b6b      	ldr	r3, [r5, #52]	; 0x34
 800431a:	03db      	lsls	r3, r3, #15
 800431c:	d400      	bmi.n	8004320 <HAL_RCC_OscConfig+0x368>
 800431e:	e684      	b.n	800402a <HAL_RCC_OscConfig+0x72>
 8004320:	6a23      	ldr	r3, [r4, #32]
 8004322:	2b01      	cmp	r3, #1
 8004324:	d000      	beq.n	8004328 <HAL_RCC_OscConfig+0x370>
 8004326:	e64c      	b.n	8003fc2 <HAL_RCC_OscConfig+0xa>
 8004328:	e67f      	b.n	800402a <HAL_RCC_OscConfig+0x72>
 800432a:	6a23      	ldr	r3, [r4, #32]
 800432c:	2b00      	cmp	r3, #0
 800432e:	d011      	beq.n	8004354 <HAL_RCC_OscConfig+0x39c>
 8004330:	2680      	movs	r6, #128	; 0x80
 8004332:	6b6b      	ldr	r3, [r5, #52]	; 0x34
 8004334:	0276      	lsls	r6, r6, #9
 8004336:	4333      	orrs	r3, r6
 8004338:	636b      	str	r3, [r5, #52]	; 0x34
 800433a:	f7fd fc5d 	bl	8001bf8 <HAL_GetTick>
 800433e:	0007      	movs	r7, r0
 8004340:	6b6b      	ldr	r3, [r5, #52]	; 0x34
 8004342:	4233      	tst	r3, r6
 8004344:	d000      	beq.n	8004348 <HAL_RCC_OscConfig+0x390>
 8004346:	e670      	b.n	800402a <HAL_RCC_OscConfig+0x72>
 8004348:	f7fd fc56 	bl	8001bf8 <HAL_GetTick>
 800434c:	1bc0      	subs	r0, r0, r7
 800434e:	2802      	cmp	r0, #2
 8004350:	d9f6      	bls.n	8004340 <HAL_RCC_OscConfig+0x388>
 8004352:	e69e      	b.n	8004092 <HAL_RCC_OscConfig+0xda>
 8004354:	6b6b      	ldr	r3, [r5, #52]	; 0x34
 8004356:	4a3d      	ldr	r2, [pc, #244]	; (800444c <HAL_RCC_OscConfig+0x494>)
 8004358:	2680      	movs	r6, #128	; 0x80
 800435a:	4013      	ands	r3, r2
 800435c:	636b      	str	r3, [r5, #52]	; 0x34
 800435e:	f7fd fc4b 	bl	8001bf8 <HAL_GetTick>
 8004362:	0007      	movs	r7, r0
 8004364:	0276      	lsls	r6, r6, #9
 8004366:	6b6b      	ldr	r3, [r5, #52]	; 0x34
 8004368:	4233      	tst	r3, r6
 800436a:	d100      	bne.n	800436e <HAL_RCC_OscConfig+0x3b6>
 800436c:	e65d      	b.n	800402a <HAL_RCC_OscConfig+0x72>
 800436e:	f7fd fc43 	bl	8001bf8 <HAL_GetTick>
 8004372:	1bc0      	subs	r0, r0, r7
 8004374:	2802      	cmp	r0, #2
 8004376:	d9f6      	bls.n	8004366 <HAL_RCC_OscConfig+0x3ae>
 8004378:	e68b      	b.n	8004092 <HAL_RCC_OscConfig+0xda>
 800437a:	200c      	movs	r0, #12
 800437c:	4b32      	ldr	r3, [pc, #200]	; (8004448 <HAL_RCC_OscConfig+0x490>)
 800437e:	6859      	ldr	r1, [r3, #4]
 8004380:	001d      	movs	r5, r3
 8004382:	4001      	ands	r1, r0
 8004384:	2908      	cmp	r1, #8
 8004386:	d044      	beq.n	8004412 <HAL_RCC_OscConfig+0x45a>
 8004388:	681b      	ldr	r3, [r3, #0]
 800438a:	4931      	ldr	r1, [pc, #196]	; (8004450 <HAL_RCC_OscConfig+0x498>)
 800438c:	400b      	ands	r3, r1
 800438e:	602b      	str	r3, [r5, #0]
 8004390:	2a02      	cmp	r2, #2
 8004392:	d12f      	bne.n	80043f4 <HAL_RCC_OscConfig+0x43c>
 8004394:	f7fd fc30 	bl	8001bf8 <HAL_GetTick>
 8004398:	2680      	movs	r6, #128	; 0x80
 800439a:	0007      	movs	r7, r0
 800439c:	04b6      	lsls	r6, r6, #18
 800439e:	682b      	ldr	r3, [r5, #0]
 80043a0:	4233      	tst	r3, r6
 80043a2:	d121      	bne.n	80043e8 <HAL_RCC_OscConfig+0x430>
 80043a4:	220f      	movs	r2, #15
 80043a6:	6aeb      	ldr	r3, [r5, #44]	; 0x2c
 80043a8:	4393      	bics	r3, r2
 80043aa:	6b22      	ldr	r2, [r4, #48]	; 0x30
 80043ac:	4313      	orrs	r3, r2
 80043ae:	62eb      	str	r3, [r5, #44]	; 0x2c
 80043b0:	6aa1      	ldr	r1, [r4, #40]	; 0x28
 80043b2:	6ae3      	ldr	r3, [r4, #44]	; 0x2c
 80043b4:	686a      	ldr	r2, [r5, #4]
 80043b6:	430b      	orrs	r3, r1
 80043b8:	4926      	ldr	r1, [pc, #152]	; (8004454 <HAL_RCC_OscConfig+0x49c>)
 80043ba:	2480      	movs	r4, #128	; 0x80
 80043bc:	400a      	ands	r2, r1
 80043be:	4313      	orrs	r3, r2
 80043c0:	606b      	str	r3, [r5, #4]
 80043c2:	2380      	movs	r3, #128	; 0x80
 80043c4:	682a      	ldr	r2, [r5, #0]
 80043c6:	045b      	lsls	r3, r3, #17
 80043c8:	4313      	orrs	r3, r2
 80043ca:	602b      	str	r3, [r5, #0]
 80043cc:	f7fd fc14 	bl	8001bf8 <HAL_GetTick>
 80043d0:	0006      	movs	r6, r0
 80043d2:	04a4      	lsls	r4, r4, #18
 80043d4:	682b      	ldr	r3, [r5, #0]
 80043d6:	4223      	tst	r3, r4
 80043d8:	d000      	beq.n	80043dc <HAL_RCC_OscConfig+0x424>
 80043da:	e62a      	b.n	8004032 <HAL_RCC_OscConfig+0x7a>
 80043dc:	f7fd fc0c 	bl	8001bf8 <HAL_GetTick>
 80043e0:	1b80      	subs	r0, r0, r6
 80043e2:	2802      	cmp	r0, #2
 80043e4:	d9f6      	bls.n	80043d4 <HAL_RCC_OscConfig+0x41c>
 80043e6:	e654      	b.n	8004092 <HAL_RCC_OscConfig+0xda>
 80043e8:	f7fd fc06 	bl	8001bf8 <HAL_GetTick>
 80043ec:	1bc0      	subs	r0, r0, r7
 80043ee:	2802      	cmp	r0, #2
 80043f0:	d9d5      	bls.n	800439e <HAL_RCC_OscConfig+0x3e6>
 80043f2:	e64e      	b.n	8004092 <HAL_RCC_OscConfig+0xda>
 80043f4:	f7fd fc00 	bl	8001bf8 <HAL_GetTick>
 80043f8:	2480      	movs	r4, #128	; 0x80
 80043fa:	0006      	movs	r6, r0
 80043fc:	04a4      	lsls	r4, r4, #18
 80043fe:	682b      	ldr	r3, [r5, #0]
 8004400:	4223      	tst	r3, r4
 8004402:	d100      	bne.n	8004406 <HAL_RCC_OscConfig+0x44e>
 8004404:	e615      	b.n	8004032 <HAL_RCC_OscConfig+0x7a>
 8004406:	f7fd fbf7 	bl	8001bf8 <HAL_GetTick>
 800440a:	1b80      	subs	r0, r0, r6
 800440c:	2802      	cmp	r0, #2
 800440e:	d9f6      	bls.n	80043fe <HAL_RCC_OscConfig+0x446>
 8004410:	e63f      	b.n	8004092 <HAL_RCC_OscConfig+0xda>
 8004412:	2a01      	cmp	r2, #1
 8004414:	d100      	bne.n	8004418 <HAL_RCC_OscConfig+0x460>
 8004416:	e5d4      	b.n	8003fc2 <HAL_RCC_OscConfig+0xa>
 8004418:	22c0      	movs	r2, #192	; 0xc0
 800441a:	6858      	ldr	r0, [r3, #4]
 800441c:	6aa1      	ldr	r1, [r4, #40]	; 0x28
 800441e:	0252      	lsls	r2, r2, #9
 8004420:	6adb      	ldr	r3, [r3, #44]	; 0x2c
 8004422:	4002      	ands	r2, r0
 8004424:	428a      	cmp	r2, r1
 8004426:	d000      	beq.n	800442a <HAL_RCC_OscConfig+0x472>
 8004428:	e5cb      	b.n	8003fc2 <HAL_RCC_OscConfig+0xa>
 800442a:	220f      	movs	r2, #15
 800442c:	4013      	ands	r3, r2
 800442e:	6b22      	ldr	r2, [r4, #48]	; 0x30
 8004430:	4293      	cmp	r3, r2
 8004432:	d000      	beq.n	8004436 <HAL_RCC_OscConfig+0x47e>
 8004434:	e5c5      	b.n	8003fc2 <HAL_RCC_OscConfig+0xa>
 8004436:	23f0      	movs	r3, #240	; 0xf0
 8004438:	039b      	lsls	r3, r3, #14
 800443a:	4018      	ands	r0, r3
 800443c:	6ae3      	ldr	r3, [r4, #44]	; 0x2c
 800443e:	1ac0      	subs	r0, r0, r3
 8004440:	1e43      	subs	r3, r0, #1
 8004442:	4198      	sbcs	r0, r3
 8004444:	b2c0      	uxtb	r0, r0
 8004446:	e5bd      	b.n	8003fc4 <HAL_RCC_OscConfig+0xc>
 8004448:	40021000 	.word	0x40021000
 800444c:	fffeffff 	.word	0xfffeffff
 8004450:	feffffff 	.word	0xfeffffff
 8004454:	ffc27fff 	.word	0xffc27fff

08004458 <HAL_RCC_GetSysClockFreq>:
 8004458:	b530      	push	{r4, r5, lr}
 800445a:	4c1b      	ldr	r4, [pc, #108]	; (80044c8 <HAL_RCC_GetSysClockFreq+0x70>)
 800445c:	b089      	sub	sp, #36	; 0x24
 800445e:	2210      	movs	r2, #16
 8004460:	0021      	movs	r1, r4
 8004462:	4668      	mov	r0, sp
 8004464:	f002 fd7e 	bl	8006f64 <memcpy>
 8004468:	0021      	movs	r1, r4
 800446a:	ad04      	add	r5, sp, #16
 800446c:	2210      	movs	r2, #16
 800446e:	3110      	adds	r1, #16
 8004470:	0028      	movs	r0, r5
 8004472:	f002 fd77 	bl	8006f64 <memcpy>
 8004476:	200c      	movs	r0, #12
 8004478:	4a14      	ldr	r2, [pc, #80]	; (80044cc <HAL_RCC_GetSysClockFreq+0x74>)
 800447a:	6853      	ldr	r3, [r2, #4]
 800447c:	4018      	ands	r0, r3
 800447e:	2808      	cmp	r0, #8
 8004480:	d009      	beq.n	8004496 <HAL_RCC_GetSysClockFreq+0x3e>
 8004482:	380c      	subs	r0, #12
 8004484:	4243      	negs	r3, r0
 8004486:	4158      	adcs	r0, r3
 8004488:	4b11      	ldr	r3, [pc, #68]	; (80044d0 <HAL_RCC_GetSysClockFreq+0x78>)
 800448a:	4240      	negs	r0, r0
 800448c:	4018      	ands	r0, r3
 800448e:	4b11      	ldr	r3, [pc, #68]	; (80044d4 <HAL_RCC_GetSysClockFreq+0x7c>)
 8004490:	18c0      	adds	r0, r0, r3
 8004492:	b009      	add	sp, #36	; 0x24
 8004494:	bd30      	pop	{r4, r5, pc}
 8004496:	200f      	movs	r0, #15
 8004498:	466c      	mov	r4, sp
 800449a:	6ad2      	ldr	r2, [r2, #44]	; 0x2c
 800449c:	0c99      	lsrs	r1, r3, #18
 800449e:	4001      	ands	r1, r0
 80044a0:	4002      	ands	r2, r0
 80044a2:	5c64      	ldrb	r4, [r4, r1]
 80044a4:	5ca9      	ldrb	r1, [r5, r2]
 80044a6:	22c0      	movs	r2, #192	; 0xc0
 80044a8:	2080      	movs	r0, #128	; 0x80
 80044aa:	0252      	lsls	r2, r2, #9
 80044ac:	4013      	ands	r3, r2
 80044ae:	0240      	lsls	r0, r0, #9
 80044b0:	4283      	cmp	r3, r0
 80044b2:	d101      	bne.n	80044b8 <HAL_RCC_GetSysClockFreq+0x60>
 80044b4:	4807      	ldr	r0, [pc, #28]	; (80044d4 <HAL_RCC_GetSysClockFreq+0x7c>)
 80044b6:	e002      	b.n	80044be <HAL_RCC_GetSysClockFreq+0x66>
 80044b8:	4293      	cmp	r3, r2
 80044ba:	d1fb      	bne.n	80044b4 <HAL_RCC_GetSysClockFreq+0x5c>
 80044bc:	4806      	ldr	r0, [pc, #24]	; (80044d8 <HAL_RCC_GetSysClockFreq+0x80>)
 80044be:	f7fb fe41 	bl	8000144 <__udivsi3>
 80044c2:	4360      	muls	r0, r4
 80044c4:	e7e5      	b.n	8004492 <HAL_RCC_GetSysClockFreq+0x3a>
 80044c6:	46c0      	nop			; (mov r8, r8)
 80044c8:	08006fa0 	.word	0x08006fa0
 80044cc:	40021000 	.word	0x40021000
 80044d0:	02625a00 	.word	0x02625a00
 80044d4:	007a1200 	.word	0x007a1200
 80044d8:	02dc6c00 	.word	0x02dc6c00

080044dc <HAL_RCC_ClockConfig>:
 80044dc:	b5f7      	push	{r0, r1, r2, r4, r5, r6, r7, lr}
 80044de:	0005      	movs	r5, r0
 80044e0:	000f      	movs	r7, r1
 80044e2:	2800      	cmp	r0, #0
 80044e4:	d101      	bne.n	80044ea <HAL_RCC_ClockConfig+0xe>
 80044e6:	2001      	movs	r0, #1
 80044e8:	bdfe      	pop	{r1, r2, r3, r4, r5, r6, r7, pc}
 80044ea:	2201      	movs	r2, #1
 80044ec:	4c3b      	ldr	r4, [pc, #236]	; (80045dc <HAL_RCC_ClockConfig+0x100>)
 80044ee:	6823      	ldr	r3, [r4, #0]
 80044f0:	4013      	ands	r3, r2
 80044f2:	428b      	cmp	r3, r1
 80044f4:	d31c      	bcc.n	8004530 <HAL_RCC_ClockConfig+0x54>
 80044f6:	6829      	ldr	r1, [r5, #0]
 80044f8:	078b      	lsls	r3, r1, #30
 80044fa:	d422      	bmi.n	8004542 <HAL_RCC_ClockConfig+0x66>
 80044fc:	07cb      	lsls	r3, r1, #31
 80044fe:	d42f      	bmi.n	8004560 <HAL_RCC_ClockConfig+0x84>
 8004500:	2301      	movs	r3, #1
 8004502:	6822      	ldr	r2, [r4, #0]
 8004504:	401a      	ands	r2, r3
 8004506:	42ba      	cmp	r2, r7
 8004508:	d859      	bhi.n	80045be <HAL_RCC_ClockConfig+0xe2>
 800450a:	682b      	ldr	r3, [r5, #0]
 800450c:	4c34      	ldr	r4, [pc, #208]	; (80045e0 <HAL_RCC_ClockConfig+0x104>)
 800450e:	075b      	lsls	r3, r3, #29
 8004510:	d45c      	bmi.n	80045cc <HAL_RCC_ClockConfig+0xf0>
 8004512:	f7ff ffa1 	bl	8004458 <HAL_RCC_GetSysClockFreq>
 8004516:	6863      	ldr	r3, [r4, #4]
 8004518:	4a32      	ldr	r2, [pc, #200]	; (80045e4 <HAL_RCC_ClockConfig+0x108>)
 800451a:	061b      	lsls	r3, r3, #24
 800451c:	0f1b      	lsrs	r3, r3, #28
 800451e:	5cd3      	ldrb	r3, [r2, r3]
 8004520:	40d8      	lsrs	r0, r3
 8004522:	4b31      	ldr	r3, [pc, #196]	; (80045e8 <HAL_RCC_ClockConfig+0x10c>)
 8004524:	6018      	str	r0, [r3, #0]
 8004526:	2000      	movs	r0, #0
 8004528:	f7fd fb26 	bl	8001b78 <HAL_InitTick>
 800452c:	2000      	movs	r0, #0
 800452e:	e7db      	b.n	80044e8 <HAL_RCC_ClockConfig+0xc>
 8004530:	6823      	ldr	r3, [r4, #0]
 8004532:	4393      	bics	r3, r2
 8004534:	430b      	orrs	r3, r1
 8004536:	6023      	str	r3, [r4, #0]
 8004538:	6823      	ldr	r3, [r4, #0]
 800453a:	4013      	ands	r3, r2
 800453c:	428b      	cmp	r3, r1
 800453e:	d1d2      	bne.n	80044e6 <HAL_RCC_ClockConfig+0xa>
 8004540:	e7d9      	b.n	80044f6 <HAL_RCC_ClockConfig+0x1a>
 8004542:	4a27      	ldr	r2, [pc, #156]	; (80045e0 <HAL_RCC_ClockConfig+0x104>)
 8004544:	074b      	lsls	r3, r1, #29
 8004546:	d504      	bpl.n	8004552 <HAL_RCC_ClockConfig+0x76>
 8004548:	23e0      	movs	r3, #224	; 0xe0
 800454a:	6850      	ldr	r0, [r2, #4]
 800454c:	00db      	lsls	r3, r3, #3
 800454e:	4303      	orrs	r3, r0
 8004550:	6053      	str	r3, [r2, #4]
 8004552:	20f0      	movs	r0, #240	; 0xf0
 8004554:	6853      	ldr	r3, [r2, #4]
 8004556:	4383      	bics	r3, r0
 8004558:	68a8      	ldr	r0, [r5, #8]
 800455a:	4303      	orrs	r3, r0
 800455c:	6053      	str	r3, [r2, #4]
 800455e:	e7cd      	b.n	80044fc <HAL_RCC_ClockConfig+0x20>
 8004560:	686a      	ldr	r2, [r5, #4]
 8004562:	4e1f      	ldr	r6, [pc, #124]	; (80045e0 <HAL_RCC_ClockConfig+0x104>)
 8004564:	2a01      	cmp	r2, #1
 8004566:	d11a      	bne.n	800459e <HAL_RCC_ClockConfig+0xc2>
 8004568:	6833      	ldr	r3, [r6, #0]
 800456a:	039b      	lsls	r3, r3, #14
 800456c:	d5bb      	bpl.n	80044e6 <HAL_RCC_ClockConfig+0xa>
 800456e:	2103      	movs	r1, #3
 8004570:	6873      	ldr	r3, [r6, #4]
 8004572:	438b      	bics	r3, r1
 8004574:	4313      	orrs	r3, r2
 8004576:	6073      	str	r3, [r6, #4]
 8004578:	f7fd fb3e 	bl	8001bf8 <HAL_GetTick>
 800457c:	9001      	str	r0, [sp, #4]
 800457e:	230c      	movs	r3, #12
 8004580:	6872      	ldr	r2, [r6, #4]
 8004582:	401a      	ands	r2, r3
 8004584:	686b      	ldr	r3, [r5, #4]
 8004586:	009b      	lsls	r3, r3, #2
 8004588:	429a      	cmp	r2, r3
 800458a:	d0b9      	beq.n	8004500 <HAL_RCC_ClockConfig+0x24>
 800458c:	f7fd fb34 	bl	8001bf8 <HAL_GetTick>
 8004590:	9b01      	ldr	r3, [sp, #4]
 8004592:	1ac0      	subs	r0, r0, r3
 8004594:	4b15      	ldr	r3, [pc, #84]	; (80045ec <HAL_RCC_ClockConfig+0x110>)
 8004596:	4298      	cmp	r0, r3
 8004598:	d9f1      	bls.n	800457e <HAL_RCC_ClockConfig+0xa2>
 800459a:	2003      	movs	r0, #3
 800459c:	e7a4      	b.n	80044e8 <HAL_RCC_ClockConfig+0xc>
 800459e:	2a02      	cmp	r2, #2
 80045a0:	d103      	bne.n	80045aa <HAL_RCC_ClockConfig+0xce>
 80045a2:	6833      	ldr	r3, [r6, #0]
 80045a4:	019b      	lsls	r3, r3, #6
 80045a6:	d4e2      	bmi.n	800456e <HAL_RCC_ClockConfig+0x92>
 80045a8:	e79d      	b.n	80044e6 <HAL_RCC_ClockConfig+0xa>
 80045aa:	2a03      	cmp	r2, #3
 80045ac:	d103      	bne.n	80045b6 <HAL_RCC_ClockConfig+0xda>
 80045ae:	6b73      	ldr	r3, [r6, #52]	; 0x34
 80045b0:	03db      	lsls	r3, r3, #15
 80045b2:	d4dc      	bmi.n	800456e <HAL_RCC_ClockConfig+0x92>
 80045b4:	e797      	b.n	80044e6 <HAL_RCC_ClockConfig+0xa>
 80045b6:	6833      	ldr	r3, [r6, #0]
 80045b8:	079b      	lsls	r3, r3, #30
 80045ba:	d4d8      	bmi.n	800456e <HAL_RCC_ClockConfig+0x92>
 80045bc:	e793      	b.n	80044e6 <HAL_RCC_ClockConfig+0xa>
 80045be:	6822      	ldr	r2, [r4, #0]
 80045c0:	439a      	bics	r2, r3
 80045c2:	6022      	str	r2, [r4, #0]
 80045c4:	6822      	ldr	r2, [r4, #0]
 80045c6:	421a      	tst	r2, r3
 80045c8:	d09f      	beq.n	800450a <HAL_RCC_ClockConfig+0x2e>
 80045ca:	e78c      	b.n	80044e6 <HAL_RCC_ClockConfig+0xa>
 80045cc:	6863      	ldr	r3, [r4, #4]
 80045ce:	4a08      	ldr	r2, [pc, #32]	; (80045f0 <HAL_RCC_ClockConfig+0x114>)
 80045d0:	4013      	ands	r3, r2
 80045d2:	68ea      	ldr	r2, [r5, #12]
 80045d4:	4313      	orrs	r3, r2
 80045d6:	6063      	str	r3, [r4, #4]
 80045d8:	e79b      	b.n	8004512 <HAL_RCC_ClockConfig+0x36>
 80045da:	46c0      	nop			; (mov r8, r8)
 80045dc:	40022000 	.word	0x40022000
 80045e0:	40021000 	.word	0x40021000
 80045e4:	080070c0 	.word	0x080070c0
 80045e8:	20000010 	.word	0x20000010
 80045ec:	00001388 	.word	0x00001388
 80045f0:	fffff8ff 	.word	0xfffff8ff

080045f4 <HAL_RCC_GetPCLK1Freq>:
 80045f4:	4b04      	ldr	r3, [pc, #16]	; (8004608 <HAL_RCC_GetPCLK1Freq+0x14>)
 80045f6:	4a05      	ldr	r2, [pc, #20]	; (800460c <HAL_RCC_GetPCLK1Freq+0x18>)
 80045f8:	685b      	ldr	r3, [r3, #4]
 80045fa:	055b      	lsls	r3, r3, #21
 80045fc:	0f5b      	lsrs	r3, r3, #29
 80045fe:	5cd3      	ldrb	r3, [r2, r3]
 8004600:	4a03      	ldr	r2, [pc, #12]	; (8004610 <HAL_RCC_GetPCLK1Freq+0x1c>)
 8004602:	6810      	ldr	r0, [r2, #0]
 8004604:	40d8      	lsrs	r0, r3
 8004606:	4770      	bx	lr
 8004608:	40021000 	.word	0x40021000
 800460c:	080070d0 	.word	0x080070d0
 8004610:	20000010 	.word	0x20000010

08004614 <HAL_RCCEx_PeriphCLKConfig>:
 8004614:	b5f0      	push	{r4, r5, r6, r7, lr}
 8004616:	6803      	ldr	r3, [r0, #0]
 8004618:	b085      	sub	sp, #20
 800461a:	0005      	movs	r5, r0
 800461c:	03db      	lsls	r3, r3, #15
 800461e:	d528      	bpl.n	8004672 <HAL_RCCEx_PeriphCLKConfig+0x5e>
 8004620:	2280      	movs	r2, #128	; 0x80
 8004622:	2100      	movs	r1, #0
 8004624:	4c44      	ldr	r4, [pc, #272]	; (8004738 <HAL_RCCEx_PeriphCLKConfig+0x124>)
 8004626:	0552      	lsls	r2, r2, #21
 8004628:	69e3      	ldr	r3, [r4, #28]
 800462a:	9100      	str	r1, [sp, #0]
 800462c:	4213      	tst	r3, r2
 800462e:	d108      	bne.n	8004642 <HAL_RCCEx_PeriphCLKConfig+0x2e>
 8004630:	69e3      	ldr	r3, [r4, #28]
 8004632:	4313      	orrs	r3, r2
 8004634:	61e3      	str	r3, [r4, #28]
 8004636:	69e3      	ldr	r3, [r4, #28]
 8004638:	4013      	ands	r3, r2
 800463a:	9303      	str	r3, [sp, #12]
 800463c:	9b03      	ldr	r3, [sp, #12]
 800463e:	2301      	movs	r3, #1
 8004640:	9300      	str	r3, [sp, #0]
 8004642:	2780      	movs	r7, #128	; 0x80
 8004644:	4e3d      	ldr	r6, [pc, #244]	; (800473c <HAL_RCCEx_PeriphCLKConfig+0x128>)
 8004646:	007f      	lsls	r7, r7, #1
 8004648:	6833      	ldr	r3, [r6, #0]
 800464a:	423b      	tst	r3, r7
 800464c:	d041      	beq.n	80046d2 <HAL_RCCEx_PeriphCLKConfig+0xbe>
 800464e:	22c0      	movs	r2, #192	; 0xc0
 8004650:	6a23      	ldr	r3, [r4, #32]
 8004652:	0092      	lsls	r2, r2, #2
 8004654:	4013      	ands	r3, r2
 8004656:	4e3a      	ldr	r6, [pc, #232]	; (8004740 <HAL_RCCEx_PeriphCLKConfig+0x12c>)
 8004658:	d14d      	bne.n	80046f6 <HAL_RCCEx_PeriphCLKConfig+0xe2>
 800465a:	6a23      	ldr	r3, [r4, #32]
 800465c:	401e      	ands	r6, r3
 800465e:	686b      	ldr	r3, [r5, #4]
 8004660:	431e      	orrs	r6, r3
 8004662:	9b00      	ldr	r3, [sp, #0]
 8004664:	6226      	str	r6, [r4, #32]
 8004666:	2b01      	cmp	r3, #1
 8004668:	d103      	bne.n	8004672 <HAL_RCCEx_PeriphCLKConfig+0x5e>
 800466a:	69e3      	ldr	r3, [r4, #28]
 800466c:	4a35      	ldr	r2, [pc, #212]	; (8004744 <HAL_RCCEx_PeriphCLKConfig+0x130>)
 800466e:	4013      	ands	r3, r2
 8004670:	61e3      	str	r3, [r4, #28]
 8004672:	682b      	ldr	r3, [r5, #0]
 8004674:	07da      	lsls	r2, r3, #31
 8004676:	d506      	bpl.n	8004686 <HAL_RCCEx_PeriphCLKConfig+0x72>
 8004678:	2003      	movs	r0, #3
 800467a:	492f      	ldr	r1, [pc, #188]	; (8004738 <HAL_RCCEx_PeriphCLKConfig+0x124>)
 800467c:	6b0a      	ldr	r2, [r1, #48]	; 0x30
 800467e:	4382      	bics	r2, r0
 8004680:	68a8      	ldr	r0, [r5, #8]
 8004682:	4302      	orrs	r2, r0
 8004684:	630a      	str	r2, [r1, #48]	; 0x30
 8004686:	079a      	lsls	r2, r3, #30
 8004688:	d506      	bpl.n	8004698 <HAL_RCCEx_PeriphCLKConfig+0x84>
 800468a:	492b      	ldr	r1, [pc, #172]	; (8004738 <HAL_RCCEx_PeriphCLKConfig+0x124>)
 800468c:	482e      	ldr	r0, [pc, #184]	; (8004748 <HAL_RCCEx_PeriphCLKConfig+0x134>)
 800468e:	6b0a      	ldr	r2, [r1, #48]	; 0x30
 8004690:	4002      	ands	r2, r0
 8004692:	68e8      	ldr	r0, [r5, #12]
 8004694:	4302      	orrs	r2, r0
 8004696:	630a      	str	r2, [r1, #48]	; 0x30
 8004698:	069a      	lsls	r2, r3, #26
 800469a:	d506      	bpl.n	80046aa <HAL_RCCEx_PeriphCLKConfig+0x96>
 800469c:	2010      	movs	r0, #16
 800469e:	4926      	ldr	r1, [pc, #152]	; (8004738 <HAL_RCCEx_PeriphCLKConfig+0x124>)
 80046a0:	6b0a      	ldr	r2, [r1, #48]	; 0x30
 80046a2:	4382      	bics	r2, r0
 80046a4:	6928      	ldr	r0, [r5, #16]
 80046a6:	4302      	orrs	r2, r0
 80046a8:	630a      	str	r2, [r1, #48]	; 0x30
 80046aa:	039a      	lsls	r2, r3, #14
 80046ac:	d506      	bpl.n	80046bc <HAL_RCCEx_PeriphCLKConfig+0xa8>
 80046ae:	2080      	movs	r0, #128	; 0x80
 80046b0:	4921      	ldr	r1, [pc, #132]	; (8004738 <HAL_RCCEx_PeriphCLKConfig+0x124>)
 80046b2:	6b0a      	ldr	r2, [r1, #48]	; 0x30
 80046b4:	4382      	bics	r2, r0
 80046b6:	69a8      	ldr	r0, [r5, #24]
 80046b8:	4302      	orrs	r2, r0
 80046ba:	630a      	str	r2, [r1, #48]	; 0x30
 80046bc:	2000      	movs	r0, #0
 80046be:	055b      	lsls	r3, r3, #21
 80046c0:	d517      	bpl.n	80046f2 <HAL_RCCEx_PeriphCLKConfig+0xde>
 80046c2:	2140      	movs	r1, #64	; 0x40
 80046c4:	4a1c      	ldr	r2, [pc, #112]	; (8004738 <HAL_RCCEx_PeriphCLKConfig+0x124>)
 80046c6:	6b13      	ldr	r3, [r2, #48]	; 0x30
 80046c8:	438b      	bics	r3, r1
 80046ca:	6969      	ldr	r1, [r5, #20]
 80046cc:	430b      	orrs	r3, r1
 80046ce:	6313      	str	r3, [r2, #48]	; 0x30
 80046d0:	e00f      	b.n	80046f2 <HAL_RCCEx_PeriphCLKConfig+0xde>
 80046d2:	6833      	ldr	r3, [r6, #0]
 80046d4:	433b      	orrs	r3, r7
 80046d6:	6033      	str	r3, [r6, #0]
 80046d8:	f7fd fa8e 	bl	8001bf8 <HAL_GetTick>
 80046dc:	9001      	str	r0, [sp, #4]
 80046de:	6833      	ldr	r3, [r6, #0]
 80046e0:	423b      	tst	r3, r7
 80046e2:	d1b4      	bne.n	800464e <HAL_RCCEx_PeriphCLKConfig+0x3a>
 80046e4:	f7fd fa88 	bl	8001bf8 <HAL_GetTick>
 80046e8:	9b01      	ldr	r3, [sp, #4]
 80046ea:	1ac0      	subs	r0, r0, r3
 80046ec:	2864      	cmp	r0, #100	; 0x64
 80046ee:	d9f6      	bls.n	80046de <HAL_RCCEx_PeriphCLKConfig+0xca>
 80046f0:	2003      	movs	r0, #3
 80046f2:	b005      	add	sp, #20
 80046f4:	bdf0      	pop	{r4, r5, r6, r7, pc}
 80046f6:	6869      	ldr	r1, [r5, #4]
 80046f8:	400a      	ands	r2, r1
 80046fa:	429a      	cmp	r2, r3
 80046fc:	d0ad      	beq.n	800465a <HAL_RCCEx_PeriphCLKConfig+0x46>
 80046fe:	2380      	movs	r3, #128	; 0x80
 8004700:	6a22      	ldr	r2, [r4, #32]
 8004702:	6a20      	ldr	r0, [r4, #32]
 8004704:	0011      	movs	r1, r2
 8004706:	025b      	lsls	r3, r3, #9
 8004708:	4303      	orrs	r3, r0
 800470a:	6223      	str	r3, [r4, #32]
 800470c:	6a23      	ldr	r3, [r4, #32]
 800470e:	480f      	ldr	r0, [pc, #60]	; (800474c <HAL_RCCEx_PeriphCLKConfig+0x138>)
 8004710:	4031      	ands	r1, r6
 8004712:	4003      	ands	r3, r0
 8004714:	6223      	str	r3, [r4, #32]
 8004716:	6221      	str	r1, [r4, #32]
 8004718:	07d3      	lsls	r3, r2, #31
 800471a:	d59e      	bpl.n	800465a <HAL_RCCEx_PeriphCLKConfig+0x46>
 800471c:	f7fd fa6c 	bl	8001bf8 <HAL_GetTick>
 8004720:	0007      	movs	r7, r0
 8004722:	2202      	movs	r2, #2
 8004724:	6a23      	ldr	r3, [r4, #32]
 8004726:	4213      	tst	r3, r2
 8004728:	d197      	bne.n	800465a <HAL_RCCEx_PeriphCLKConfig+0x46>
 800472a:	f7fd fa65 	bl	8001bf8 <HAL_GetTick>
 800472e:	4b08      	ldr	r3, [pc, #32]	; (8004750 <HAL_RCCEx_PeriphCLKConfig+0x13c>)
 8004730:	1bc0      	subs	r0, r0, r7
 8004732:	4298      	cmp	r0, r3
 8004734:	d9f5      	bls.n	8004722 <HAL_RCCEx_PeriphCLKConfig+0x10e>
 8004736:	e7db      	b.n	80046f0 <HAL_RCCEx_PeriphCLKConfig+0xdc>
 8004738:	40021000 	.word	0x40021000
 800473c:	40007000 	.word	0x40007000
 8004740:	fffffcff 	.word	0xfffffcff
 8004744:	efffffff 	.word	0xefffffff
 8004748:	fffcffff 	.word	0xfffcffff
 800474c:	fffeffff 	.word	0xfffeffff
 8004750:	00001388 	.word	0x00001388

08004754 <SPI_WaitFifoStateUntilTimeout.part.1>:
 8004754:	21e0      	movs	r1, #224	; 0xe0
 8004756:	6803      	ldr	r3, [r0, #0]
 8004758:	b510      	push	{r4, lr}
 800475a:	685a      	ldr	r2, [r3, #4]
 800475c:	438a      	bics	r2, r1
 800475e:	605a      	str	r2, [r3, #4]
 8004760:	2282      	movs	r2, #130	; 0x82
 8004762:	6841      	ldr	r1, [r0, #4]
 8004764:	0052      	lsls	r2, r2, #1
 8004766:	4291      	cmp	r1, r2
 8004768:	d10c      	bne.n	8004784 <SPI_WaitFifoStateUntilTimeout.part.1+0x30>
 800476a:	2180      	movs	r1, #128	; 0x80
 800476c:	6882      	ldr	r2, [r0, #8]
 800476e:	0209      	lsls	r1, r1, #8
 8004770:	428a      	cmp	r2, r1
 8004772:	d003      	beq.n	800477c <SPI_WaitFifoStateUntilTimeout.part.1+0x28>
 8004774:	2180      	movs	r1, #128	; 0x80
 8004776:	00c9      	lsls	r1, r1, #3
 8004778:	428a      	cmp	r2, r1
 800477a:	d103      	bne.n	8004784 <SPI_WaitFifoStateUntilTimeout.part.1+0x30>
 800477c:	2140      	movs	r1, #64	; 0x40
 800477e:	681a      	ldr	r2, [r3, #0]
 8004780:	438a      	bics	r2, r1
 8004782:	601a      	str	r2, [r3, #0]
 8004784:	2180      	movs	r1, #128	; 0x80
 8004786:	6a82      	ldr	r2, [r0, #40]	; 0x28
 8004788:	0189      	lsls	r1, r1, #6
 800478a:	428a      	cmp	r2, r1
 800478c:	d106      	bne.n	800479c <SPI_WaitFifoStateUntilTimeout.part.1+0x48>
 800478e:	6819      	ldr	r1, [r3, #0]
 8004790:	4c07      	ldr	r4, [pc, #28]	; (80047b0 <SPI_WaitFifoStateUntilTimeout.part.1+0x5c>)
 8004792:	4021      	ands	r1, r4
 8004794:	6019      	str	r1, [r3, #0]
 8004796:	6819      	ldr	r1, [r3, #0]
 8004798:	430a      	orrs	r2, r1
 800479a:	601a      	str	r2, [r3, #0]
 800479c:	0003      	movs	r3, r0
 800479e:	2201      	movs	r2, #1
 80047a0:	335d      	adds	r3, #93	; 0x5d
 80047a2:	701a      	strb	r2, [r3, #0]
 80047a4:	2300      	movs	r3, #0
 80047a6:	305c      	adds	r0, #92	; 0x5c
 80047a8:	7003      	strb	r3, [r0, #0]
 80047aa:	2003      	movs	r0, #3
 80047ac:	bd10      	pop	{r4, pc}
 80047ae:	46c0      	nop			; (mov r8, r8)
 80047b0:	ffffdfff 	.word	0xffffdfff

080047b4 <SPI_WaitFlagStateUntilTimeout.constprop.9>:
 80047b4:	b5f8      	push	{r3, r4, r5, r6, r7, lr}
 80047b6:	0004      	movs	r4, r0
 80047b8:	000d      	movs	r5, r1
 80047ba:	0017      	movs	r7, r2
 80047bc:	2680      	movs	r6, #128	; 0x80
 80047be:	6823      	ldr	r3, [r4, #0]
 80047c0:	6898      	ldr	r0, [r3, #8]
 80047c2:	4030      	ands	r0, r6
 80047c4:	d009      	beq.n	80047da <SPI_WaitFlagStateUntilTimeout.constprop.9+0x26>
 80047c6:	1c6a      	adds	r2, r5, #1
 80047c8:	d0fa      	beq.n	80047c0 <SPI_WaitFlagStateUntilTimeout.constprop.9+0xc>
 80047ca:	f7fd fa15 	bl	8001bf8 <HAL_GetTick>
 80047ce:	1bc0      	subs	r0, r0, r7
 80047d0:	4285      	cmp	r5, r0
 80047d2:	d8f4      	bhi.n	80047be <SPI_WaitFlagStateUntilTimeout.constprop.9+0xa>
 80047d4:	0020      	movs	r0, r4
 80047d6:	f7ff ffbd 	bl	8004754 <SPI_WaitFifoStateUntilTimeout.part.1>
 80047da:	bdf8      	pop	{r3, r4, r5, r6, r7, pc}

080047dc <SPI_WaitFifoStateUntilTimeout.constprop.10>:
 80047dc:	b5f7      	push	{r0, r1, r2, r4, r5, r6, r7, lr}
 80047de:	27c0      	movs	r7, #192	; 0xc0
 80047e0:	0005      	movs	r5, r0
 80047e2:	000c      	movs	r4, r1
 80047e4:	0016      	movs	r6, r2
 80047e6:	9301      	str	r3, [sp, #4]
 80047e8:	00ff      	lsls	r7, r7, #3
 80047ea:	682b      	ldr	r3, [r5, #0]
 80047ec:	6898      	ldr	r0, [r3, #8]
 80047ee:	4020      	ands	r0, r4
 80047f0:	d00d      	beq.n	800480e <SPI_WaitFifoStateUntilTimeout.constprop.10+0x32>
 80047f2:	42bc      	cmp	r4, r7
 80047f4:	d100      	bne.n	80047f8 <SPI_WaitFifoStateUntilTimeout.constprop.10+0x1c>
 80047f6:	7b1a      	ldrb	r2, [r3, #12]
 80047f8:	1c72      	adds	r2, r6, #1
 80047fa:	d0f7      	beq.n	80047ec <SPI_WaitFifoStateUntilTimeout.constprop.10+0x10>
 80047fc:	f7fd f9fc 	bl	8001bf8 <HAL_GetTick>
 8004800:	9b01      	ldr	r3, [sp, #4]
 8004802:	1ac0      	subs	r0, r0, r3
 8004804:	4286      	cmp	r6, r0
 8004806:	d8f0      	bhi.n	80047ea <SPI_WaitFifoStateUntilTimeout.constprop.10+0xe>
 8004808:	0028      	movs	r0, r5
 800480a:	f7ff ffa3 	bl	8004754 <SPI_WaitFifoStateUntilTimeout.part.1>
 800480e:	bdfe      	pop	{r1, r2, r3, r4, r5, r6, r7, pc}

08004810 <SPI_EndRxTxTransaction>:
 8004810:	b570      	push	{r4, r5, r6, lr}
 8004812:	0013      	movs	r3, r2
 8004814:	000d      	movs	r5, r1
 8004816:	0016      	movs	r6, r2
 8004818:	000a      	movs	r2, r1
 800481a:	21c0      	movs	r1, #192	; 0xc0
 800481c:	0149      	lsls	r1, r1, #5
 800481e:	0004      	movs	r4, r0
 8004820:	f7ff ffdc 	bl	80047dc <SPI_WaitFifoStateUntilTimeout.constprop.10>
 8004824:	2800      	cmp	r0, #0
 8004826:	d005      	beq.n	8004834 <SPI_EndRxTxTransaction+0x24>
 8004828:	2320      	movs	r3, #32
 800482a:	6e22      	ldr	r2, [r4, #96]	; 0x60
 800482c:	2003      	movs	r0, #3
 800482e:	4313      	orrs	r3, r2
 8004830:	6623      	str	r3, [r4, #96]	; 0x60
 8004832:	e00f      	b.n	8004854 <SPI_EndRxTxTransaction+0x44>
 8004834:	0032      	movs	r2, r6
 8004836:	0029      	movs	r1, r5
 8004838:	0020      	movs	r0, r4
 800483a:	f7ff ffbb 	bl	80047b4 <SPI_WaitFlagStateUntilTimeout.constprop.9>
 800483e:	2800      	cmp	r0, #0
 8004840:	d1f2      	bne.n	8004828 <SPI_EndRxTxTransaction+0x18>
 8004842:	21c0      	movs	r1, #192	; 0xc0
 8004844:	0033      	movs	r3, r6
 8004846:	002a      	movs	r2, r5
 8004848:	00c9      	lsls	r1, r1, #3
 800484a:	0020      	movs	r0, r4
 800484c:	f7ff ffc6 	bl	80047dc <SPI_WaitFifoStateUntilTimeout.constprop.10>
 8004850:	2800      	cmp	r0, #0
 8004852:	d1e9      	bne.n	8004828 <SPI_EndRxTxTransaction+0x18>
 8004854:	bd70      	pop	{r4, r5, r6, pc}
	...

08004858 <HAL_SPI_Init>:
 8004858:	b5f8      	push	{r3, r4, r5, r6, r7, lr}
 800485a:	0004      	movs	r4, r0
 800485c:	2001      	movs	r0, #1
 800485e:	2c00      	cmp	r4, #0
 8004860:	d04e      	beq.n	8004900 <HAL_SPI_Init+0xa8>
 8004862:	2300      	movs	r3, #0
 8004864:	0025      	movs	r5, r4
 8004866:	62a3      	str	r3, [r4, #40]	; 0x28
 8004868:	355d      	adds	r5, #93	; 0x5d
 800486a:	782b      	ldrb	r3, [r5, #0]
 800486c:	b2db      	uxtb	r3, r3
 800486e:	2b00      	cmp	r3, #0
 8004870:	d105      	bne.n	800487e <HAL_SPI_Init+0x26>
 8004872:	0022      	movs	r2, r4
 8004874:	325c      	adds	r2, #92	; 0x5c
 8004876:	7013      	strb	r3, [r2, #0]
 8004878:	0020      	movs	r0, r4
 800487a:	f7fd f873 	bl	8001964 <HAL_SPI_MspInit>
 800487e:	2302      	movs	r3, #2
 8004880:	2140      	movs	r1, #64	; 0x40
 8004882:	6822      	ldr	r2, [r4, #0]
 8004884:	702b      	strb	r3, [r5, #0]
 8004886:	6813      	ldr	r3, [r2, #0]
 8004888:	68e0      	ldr	r0, [r4, #12]
 800488a:	438b      	bics	r3, r1
 800488c:	21e0      	movs	r1, #224	; 0xe0
 800488e:	6013      	str	r3, [r2, #0]
 8004890:	00c9      	lsls	r1, r1, #3
 8004892:	2300      	movs	r3, #0
 8004894:	4288      	cmp	r0, r1
 8004896:	d834      	bhi.n	8004902 <HAL_SPI_Init+0xaa>
 8004898:	2680      	movs	r6, #128	; 0x80
 800489a:	0176      	lsls	r6, r6, #5
 800489c:	4288      	cmp	r0, r1
 800489e:	d101      	bne.n	80048a4 <HAL_SPI_Init+0x4c>
 80048a0:	e001      	b.n	80048a6 <HAL_SPI_Init+0x4e>
 80048a2:	001e      	movs	r6, r3
 80048a4:	62a3      	str	r3, [r4, #40]	; 0x28
 80048a6:	6b23      	ldr	r3, [r4, #48]	; 0x30
 80048a8:	2b00      	cmp	r3, #0
 80048aa:	d104      	bne.n	80048b6 <HAL_SPI_Init+0x5e>
 80048ac:	3302      	adds	r3, #2
 80048ae:	4288      	cmp	r0, r1
 80048b0:	d800      	bhi.n	80048b4 <HAL_SPI_Init+0x5c>
 80048b2:	2301      	movs	r3, #1
 80048b4:	6323      	str	r3, [r4, #48]	; 0x30
 80048b6:	68a7      	ldr	r7, [r4, #8]
 80048b8:	6863      	ldr	r3, [r4, #4]
 80048ba:	69a1      	ldr	r1, [r4, #24]
 80048bc:	433b      	orrs	r3, r7
 80048be:	6927      	ldr	r7, [r4, #16]
 80048c0:	433b      	orrs	r3, r7
 80048c2:	6967      	ldr	r7, [r4, #20]
 80048c4:	433b      	orrs	r3, r7
 80048c6:	69e7      	ldr	r7, [r4, #28]
 80048c8:	433b      	orrs	r3, r7
 80048ca:	6a27      	ldr	r7, [r4, #32]
 80048cc:	433b      	orrs	r3, r7
 80048ce:	6aa7      	ldr	r7, [r4, #40]	; 0x28
 80048d0:	433b      	orrs	r3, r7
 80048d2:	2780      	movs	r7, #128	; 0x80
 80048d4:	00bf      	lsls	r7, r7, #2
 80048d6:	400f      	ands	r7, r1
 80048d8:	433b      	orrs	r3, r7
 80048da:	6013      	str	r3, [r2, #0]
 80048dc:	6a63      	ldr	r3, [r4, #36]	; 0x24
 80048de:	0c09      	lsrs	r1, r1, #16
 80048e0:	4318      	orrs	r0, r3
 80048e2:	6b63      	ldr	r3, [r4, #52]	; 0x34
 80048e4:	4318      	orrs	r0, r3
 80048e6:	2304      	movs	r3, #4
 80048e8:	4019      	ands	r1, r3
 80048ea:	4301      	orrs	r1, r0
 80048ec:	430e      	orrs	r6, r1
 80048ee:	6056      	str	r6, [r2, #4]
 80048f0:	69d3      	ldr	r3, [r2, #28]
 80048f2:	4907      	ldr	r1, [pc, #28]	; (8004910 <HAL_SPI_Init+0xb8>)
 80048f4:	2000      	movs	r0, #0
 80048f6:	400b      	ands	r3, r1
 80048f8:	61d3      	str	r3, [r2, #28]
 80048fa:	2301      	movs	r3, #1
 80048fc:	6620      	str	r0, [r4, #96]	; 0x60
 80048fe:	702b      	strb	r3, [r5, #0]
 8004900:	bdf8      	pop	{r3, r4, r5, r6, r7, pc}
 8004902:	26f0      	movs	r6, #240	; 0xf0
 8004904:	0136      	lsls	r6, r6, #4
 8004906:	42b0      	cmp	r0, r6
 8004908:	d1cb      	bne.n	80048a2 <HAL_SPI_Init+0x4a>
 800490a:	001e      	movs	r6, r3
 800490c:	e7cb      	b.n	80048a6 <HAL_SPI_Init+0x4e>
 800490e:	46c0      	nop			; (mov r8, r8)
 8004910:	fffff7ff 	.word	0xfffff7ff

08004914 <HAL_SPI_Transmit>:
 8004914:	b5f0      	push	{r4, r5, r6, r7, lr}
 8004916:	001e      	movs	r6, r3
 8004918:	0003      	movs	r3, r0
 800491a:	b085      	sub	sp, #20
 800491c:	335c      	adds	r3, #92	; 0x5c
 800491e:	9301      	str	r3, [sp, #4]
 8004920:	781b      	ldrb	r3, [r3, #0]
 8004922:	0004      	movs	r4, r0
 8004924:	000d      	movs	r5, r1
 8004926:	0017      	movs	r7, r2
 8004928:	2002      	movs	r0, #2
 800492a:	2b01      	cmp	r3, #1
 800492c:	d07a      	beq.n	8004a24 <HAL_SPI_Transmit+0x110>
 800492e:	2301      	movs	r3, #1
 8004930:	9a01      	ldr	r2, [sp, #4]
 8004932:	7013      	strb	r3, [r2, #0]
 8004934:	f7fd f960 	bl	8001bf8 <HAL_GetTick>
 8004938:	0022      	movs	r2, r4
 800493a:	9000      	str	r0, [sp, #0]
 800493c:	325d      	adds	r2, #93	; 0x5d
 800493e:	7813      	ldrb	r3, [r2, #0]
 8004940:	2002      	movs	r0, #2
 8004942:	b2db      	uxtb	r3, r3
 8004944:	2b01      	cmp	r3, #1
 8004946:	d167      	bne.n	8004a18 <HAL_SPI_Transmit+0x104>
 8004948:	0018      	movs	r0, r3
 800494a:	2d00      	cmp	r5, #0
 800494c:	d064      	beq.n	8004a18 <HAL_SPI_Transmit+0x104>
 800494e:	2f00      	cmp	r7, #0
 8004950:	d062      	beq.n	8004a18 <HAL_SPI_Transmit+0x104>
 8004952:	3302      	adds	r3, #2
 8004954:	7013      	strb	r3, [r2, #0]
 8004956:	2300      	movs	r3, #0
 8004958:	1da2      	adds	r2, r4, #6
 800495a:	6623      	str	r3, [r4, #96]	; 0x60
 800495c:	6423      	str	r3, [r4, #64]	; 0x40
 800495e:	63a5      	str	r5, [r4, #56]	; 0x38
 8004960:	87a7      	strh	r7, [r4, #60]	; 0x3c
 8004962:	87e7      	strh	r7, [r4, #62]	; 0x3e
 8004964:	3202      	adds	r2, #2
 8004966:	8793      	strh	r3, [r2, #60]	; 0x3c
 8004968:	87d3      	strh	r3, [r2, #62]	; 0x3e
 800496a:	6523      	str	r3, [r4, #80]	; 0x50
 800496c:	64e3      	str	r3, [r4, #76]	; 0x4c
 800496e:	2380      	movs	r3, #128	; 0x80
 8004970:	68a1      	ldr	r1, [r4, #8]
 8004972:	6822      	ldr	r2, [r4, #0]
 8004974:	021b      	lsls	r3, r3, #8
 8004976:	4299      	cmp	r1, r3
 8004978:	d104      	bne.n	8004984 <HAL_SPI_Transmit+0x70>
 800497a:	2380      	movs	r3, #128	; 0x80
 800497c:	6811      	ldr	r1, [r2, #0]
 800497e:	01db      	lsls	r3, r3, #7
 8004980:	430b      	orrs	r3, r1
 8004982:	6013      	str	r3, [r2, #0]
 8004984:	2340      	movs	r3, #64	; 0x40
 8004986:	6811      	ldr	r1, [r2, #0]
 8004988:	4219      	tst	r1, r3
 800498a:	d102      	bne.n	8004992 <HAL_SPI_Transmit+0x7e>
 800498c:	6811      	ldr	r1, [r2, #0]
 800498e:	430b      	orrs	r3, r1
 8004990:	6013      	str	r3, [r2, #0]
 8004992:	21e0      	movs	r1, #224	; 0xe0
 8004994:	68e0      	ldr	r0, [r4, #12]
 8004996:	6863      	ldr	r3, [r4, #4]
 8004998:	00c9      	lsls	r1, r1, #3
 800499a:	4288      	cmp	r0, r1
 800499c:	d944      	bls.n	8004a28 <HAL_SPI_Transmit+0x114>
 800499e:	2b00      	cmp	r3, #0
 80049a0:	d001      	beq.n	80049a6 <HAL_SPI_Transmit+0x92>
 80049a2:	2f01      	cmp	r7, #1
 80049a4:	d107      	bne.n	80049b6 <HAL_SPI_Transmit+0xa2>
 80049a6:	882b      	ldrh	r3, [r5, #0]
 80049a8:	3502      	adds	r5, #2
 80049aa:	60d3      	str	r3, [r2, #12]
 80049ac:	8fe3      	ldrh	r3, [r4, #62]	; 0x3e
 80049ae:	63a5      	str	r5, [r4, #56]	; 0x38
 80049b0:	3b01      	subs	r3, #1
 80049b2:	b29b      	uxth	r3, r3
 80049b4:	87e3      	strh	r3, [r4, #62]	; 0x3e
 80049b6:	2502      	movs	r5, #2
 80049b8:	e00c      	b.n	80049d4 <HAL_SPI_Transmit+0xc0>
 80049ba:	6822      	ldr	r2, [r4, #0]
 80049bc:	6893      	ldr	r3, [r2, #8]
 80049be:	422b      	tst	r3, r5
 80049c0:	d021      	beq.n	8004a06 <HAL_SPI_Transmit+0xf2>
 80049c2:	6ba3      	ldr	r3, [r4, #56]	; 0x38
 80049c4:	8819      	ldrh	r1, [r3, #0]
 80049c6:	3302      	adds	r3, #2
 80049c8:	60d1      	str	r1, [r2, #12]
 80049ca:	63a3      	str	r3, [r4, #56]	; 0x38
 80049cc:	8fe3      	ldrh	r3, [r4, #62]	; 0x3e
 80049ce:	3b01      	subs	r3, #1
 80049d0:	b29b      	uxth	r3, r3
 80049d2:	87e3      	strh	r3, [r4, #62]	; 0x3e
 80049d4:	8fe3      	ldrh	r3, [r4, #62]	; 0x3e
 80049d6:	2b00      	cmp	r3, #0
 80049d8:	d1ef      	bne.n	80049ba <HAL_SPI_Transmit+0xa6>
 80049da:	9a00      	ldr	r2, [sp, #0]
 80049dc:	0031      	movs	r1, r6
 80049de:	0020      	movs	r0, r4
 80049e0:	f7ff ff16 	bl	8004810 <SPI_EndRxTxTransaction>
 80049e4:	2800      	cmp	r0, #0
 80049e6:	d15d      	bne.n	8004aa4 <HAL_SPI_Transmit+0x190>
 80049e8:	68a3      	ldr	r3, [r4, #8]
 80049ea:	2b00      	cmp	r3, #0
 80049ec:	d106      	bne.n	80049fc <HAL_SPI_Transmit+0xe8>
 80049ee:	9303      	str	r3, [sp, #12]
 80049f0:	6823      	ldr	r3, [r4, #0]
 80049f2:	68da      	ldr	r2, [r3, #12]
 80049f4:	9203      	str	r2, [sp, #12]
 80049f6:	689b      	ldr	r3, [r3, #8]
 80049f8:	9303      	str	r3, [sp, #12]
 80049fa:	9b03      	ldr	r3, [sp, #12]
 80049fc:	6e20      	ldr	r0, [r4, #96]	; 0x60
 80049fe:	1e43      	subs	r3, r0, #1
 8004a00:	4198      	sbcs	r0, r3
 8004a02:	b2c0      	uxtb	r0, r0
 8004a04:	e008      	b.n	8004a18 <HAL_SPI_Transmit+0x104>
 8004a06:	f7fd f8f7 	bl	8001bf8 <HAL_GetTick>
 8004a0a:	9b00      	ldr	r3, [sp, #0]
 8004a0c:	1ac0      	subs	r0, r0, r3
 8004a0e:	42b0      	cmp	r0, r6
 8004a10:	d3e0      	bcc.n	80049d4 <HAL_SPI_Transmit+0xc0>
 8004a12:	1c73      	adds	r3, r6, #1
 8004a14:	d0de      	beq.n	80049d4 <HAL_SPI_Transmit+0xc0>
 8004a16:	2003      	movs	r0, #3
 8004a18:	2301      	movs	r3, #1
 8004a1a:	345d      	adds	r4, #93	; 0x5d
 8004a1c:	7023      	strb	r3, [r4, #0]
 8004a1e:	2300      	movs	r3, #0
 8004a20:	9a01      	ldr	r2, [sp, #4]
 8004a22:	7013      	strb	r3, [r2, #0]
 8004a24:	b005      	add	sp, #20
 8004a26:	bdf0      	pop	{r4, r5, r6, r7, pc}
 8004a28:	2b00      	cmp	r3, #0
 8004a2a:	d001      	beq.n	8004a30 <HAL_SPI_Transmit+0x11c>
 8004a2c:	2f01      	cmp	r7, #1
 8004a2e:	d10a      	bne.n	8004a46 <HAL_SPI_Transmit+0x132>
 8004a30:	8fe3      	ldrh	r3, [r4, #62]	; 0x3e
 8004a32:	2b01      	cmp	r3, #1
 8004a34:	d909      	bls.n	8004a4a <HAL_SPI_Transmit+0x136>
 8004a36:	882b      	ldrh	r3, [r5, #0]
 8004a38:	3502      	adds	r5, #2
 8004a3a:	60d3      	str	r3, [r2, #12]
 8004a3c:	8fe3      	ldrh	r3, [r4, #62]	; 0x3e
 8004a3e:	63a5      	str	r5, [r4, #56]	; 0x38
 8004a40:	3b02      	subs	r3, #2
 8004a42:	b29b      	uxth	r3, r3
 8004a44:	87e3      	strh	r3, [r4, #62]	; 0x3e
 8004a46:	2502      	movs	r5, #2
 8004a48:	e017      	b.n	8004a7a <HAL_SPI_Transmit+0x166>
 8004a4a:	782b      	ldrb	r3, [r5, #0]
 8004a4c:	7313      	strb	r3, [r2, #12]
 8004a4e:	6ba3      	ldr	r3, [r4, #56]	; 0x38
 8004a50:	3301      	adds	r3, #1
 8004a52:	63a3      	str	r3, [r4, #56]	; 0x38
 8004a54:	8fe3      	ldrh	r3, [r4, #62]	; 0x3e
 8004a56:	3b01      	subs	r3, #1
 8004a58:	e7f3      	b.n	8004a42 <HAL_SPI_Transmit+0x12e>
 8004a5a:	6822      	ldr	r2, [r4, #0]
 8004a5c:	6893      	ldr	r3, [r2, #8]
 8004a5e:	422b      	tst	r3, r5
 8004a60:	d017      	beq.n	8004a92 <HAL_SPI_Transmit+0x17e>
 8004a62:	8fe1      	ldrh	r1, [r4, #62]	; 0x3e
 8004a64:	6ba3      	ldr	r3, [r4, #56]	; 0x38
 8004a66:	2901      	cmp	r1, #1
 8004a68:	d90b      	bls.n	8004a82 <HAL_SPI_Transmit+0x16e>
 8004a6a:	8819      	ldrh	r1, [r3, #0]
 8004a6c:	3302      	adds	r3, #2
 8004a6e:	60d1      	str	r1, [r2, #12]
 8004a70:	63a3      	str	r3, [r4, #56]	; 0x38
 8004a72:	8fe3      	ldrh	r3, [r4, #62]	; 0x3e
 8004a74:	3b02      	subs	r3, #2
 8004a76:	b29b      	uxth	r3, r3
 8004a78:	87e3      	strh	r3, [r4, #62]	; 0x3e
 8004a7a:	8fe3      	ldrh	r3, [r4, #62]	; 0x3e
 8004a7c:	2b00      	cmp	r3, #0
 8004a7e:	d1ec      	bne.n	8004a5a <HAL_SPI_Transmit+0x146>
 8004a80:	e7ab      	b.n	80049da <HAL_SPI_Transmit+0xc6>
 8004a82:	781b      	ldrb	r3, [r3, #0]
 8004a84:	7313      	strb	r3, [r2, #12]
 8004a86:	6ba3      	ldr	r3, [r4, #56]	; 0x38
 8004a88:	3301      	adds	r3, #1
 8004a8a:	63a3      	str	r3, [r4, #56]	; 0x38
 8004a8c:	8fe3      	ldrh	r3, [r4, #62]	; 0x3e
 8004a8e:	3b01      	subs	r3, #1
 8004a90:	e7f1      	b.n	8004a76 <HAL_SPI_Transmit+0x162>
 8004a92:	f7fd f8b1 	bl	8001bf8 <HAL_GetTick>
 8004a96:	9b00      	ldr	r3, [sp, #0]
 8004a98:	1ac0      	subs	r0, r0, r3
 8004a9a:	42b0      	cmp	r0, r6
 8004a9c:	d3ed      	bcc.n	8004a7a <HAL_SPI_Transmit+0x166>
 8004a9e:	1c73      	adds	r3, r6, #1
 8004aa0:	d0eb      	beq.n	8004a7a <HAL_SPI_Transmit+0x166>
 8004aa2:	e7b8      	b.n	8004a16 <HAL_SPI_Transmit+0x102>
 8004aa4:	2320      	movs	r3, #32
 8004aa6:	6623      	str	r3, [r4, #96]	; 0x60
 8004aa8:	e79e      	b.n	80049e8 <HAL_SPI_Transmit+0xd4>

08004aaa <HAL_TIM_Base_Start_IT>:
 8004aaa:	2201      	movs	r2, #1
 8004aac:	6803      	ldr	r3, [r0, #0]
 8004aae:	2007      	movs	r0, #7
 8004ab0:	68d9      	ldr	r1, [r3, #12]
 8004ab2:	4311      	orrs	r1, r2
 8004ab4:	60d9      	str	r1, [r3, #12]
 8004ab6:	6899      	ldr	r1, [r3, #8]
 8004ab8:	4001      	ands	r1, r0
 8004aba:	2906      	cmp	r1, #6
 8004abc:	d002      	beq.n	8004ac4 <HAL_TIM_Base_Start_IT+0x1a>
 8004abe:	6819      	ldr	r1, [r3, #0]
 8004ac0:	430a      	orrs	r2, r1
 8004ac2:	601a      	str	r2, [r3, #0]
 8004ac4:	2000      	movs	r0, #0
 8004ac6:	4770      	bx	lr

08004ac8 <HAL_TIM_PeriodElapsedCallback>:
 8004ac8:	4770      	bx	lr

08004aca <HAL_TIM_OC_DelayElapsedCallback>:
 8004aca:	4770      	bx	lr

08004acc <HAL_TIM_IC_CaptureCallback>:
 8004acc:	4770      	bx	lr

08004ace <HAL_TIM_PWM_PulseFinishedCallback>:
 8004ace:	4770      	bx	lr

08004ad0 <HAL_TIM_TriggerCallback>:
 8004ad0:	4770      	bx	lr

08004ad2 <HAL_TIM_IRQHandler>:
 8004ad2:	2202      	movs	r2, #2
 8004ad4:	6803      	ldr	r3, [r0, #0]
 8004ad6:	b510      	push	{r4, lr}
 8004ad8:	6919      	ldr	r1, [r3, #16]
 8004ada:	0004      	movs	r4, r0
 8004adc:	4211      	tst	r1, r2
 8004ade:	d00e      	beq.n	8004afe <HAL_TIM_IRQHandler+0x2c>
 8004ae0:	68d9      	ldr	r1, [r3, #12]
 8004ae2:	4211      	tst	r1, r2
 8004ae4:	d00b      	beq.n	8004afe <HAL_TIM_IRQHandler+0x2c>
 8004ae6:	3a05      	subs	r2, #5
 8004ae8:	611a      	str	r2, [r3, #16]
 8004aea:	699b      	ldr	r3, [r3, #24]
 8004aec:	3204      	adds	r2, #4
 8004aee:	7702      	strb	r2, [r0, #28]
 8004af0:	079b      	lsls	r3, r3, #30
 8004af2:	d100      	bne.n	8004af6 <HAL_TIM_IRQHandler+0x24>
 8004af4:	e079      	b.n	8004bea <HAL_TIM_IRQHandler+0x118>
 8004af6:	f7ff ffe9 	bl	8004acc <HAL_TIM_IC_CaptureCallback>
 8004afa:	2300      	movs	r3, #0
 8004afc:	7723      	strb	r3, [r4, #28]
 8004afe:	2204      	movs	r2, #4
 8004b00:	6823      	ldr	r3, [r4, #0]
 8004b02:	6919      	ldr	r1, [r3, #16]
 8004b04:	4211      	tst	r1, r2
 8004b06:	d010      	beq.n	8004b2a <HAL_TIM_IRQHandler+0x58>
 8004b08:	68d9      	ldr	r1, [r3, #12]
 8004b0a:	4211      	tst	r1, r2
 8004b0c:	d00d      	beq.n	8004b2a <HAL_TIM_IRQHandler+0x58>
 8004b0e:	3a09      	subs	r2, #9
 8004b10:	611a      	str	r2, [r3, #16]
 8004b12:	3207      	adds	r2, #7
 8004b14:	7722      	strb	r2, [r4, #28]
 8004b16:	699a      	ldr	r2, [r3, #24]
 8004b18:	23c0      	movs	r3, #192	; 0xc0
 8004b1a:	009b      	lsls	r3, r3, #2
 8004b1c:	0020      	movs	r0, r4
 8004b1e:	421a      	tst	r2, r3
 8004b20:	d069      	beq.n	8004bf6 <HAL_TIM_IRQHandler+0x124>
 8004b22:	f7ff ffd3 	bl	8004acc <HAL_TIM_IC_CaptureCallback>
 8004b26:	2300      	movs	r3, #0
 8004b28:	7723      	strb	r3, [r4, #28]
 8004b2a:	2208      	movs	r2, #8
 8004b2c:	6823      	ldr	r3, [r4, #0]
 8004b2e:	6919      	ldr	r1, [r3, #16]
 8004b30:	4211      	tst	r1, r2
 8004b32:	d00e      	beq.n	8004b52 <HAL_TIM_IRQHandler+0x80>
 8004b34:	68d9      	ldr	r1, [r3, #12]
 8004b36:	4211      	tst	r1, r2
 8004b38:	d00b      	beq.n	8004b52 <HAL_TIM_IRQHandler+0x80>
 8004b3a:	3a11      	subs	r2, #17
 8004b3c:	611a      	str	r2, [r3, #16]
 8004b3e:	69db      	ldr	r3, [r3, #28]
 8004b40:	320d      	adds	r2, #13
 8004b42:	7722      	strb	r2, [r4, #28]
 8004b44:	0020      	movs	r0, r4
 8004b46:	079b      	lsls	r3, r3, #30
 8004b48:	d05b      	beq.n	8004c02 <HAL_TIM_IRQHandler+0x130>
 8004b4a:	f7ff ffbf 	bl	8004acc <HAL_TIM_IC_CaptureCallback>
 8004b4e:	2300      	movs	r3, #0
 8004b50:	7723      	strb	r3, [r4, #28]
 8004b52:	2210      	movs	r2, #16
 8004b54:	6823      	ldr	r3, [r4, #0]
 8004b56:	6919      	ldr	r1, [r3, #16]
 8004b58:	4211      	tst	r1, r2
 8004b5a:	d010      	beq.n	8004b7e <HAL_TIM_IRQHandler+0xac>
 8004b5c:	68d9      	ldr	r1, [r3, #12]
 8004b5e:	4211      	tst	r1, r2
 8004b60:	d00d      	beq.n	8004b7e <HAL_TIM_IRQHandler+0xac>
 8004b62:	3a21      	subs	r2, #33	; 0x21
 8004b64:	611a      	str	r2, [r3, #16]
 8004b66:	3219      	adds	r2, #25
 8004b68:	7722      	strb	r2, [r4, #28]
 8004b6a:	69da      	ldr	r2, [r3, #28]
 8004b6c:	23c0      	movs	r3, #192	; 0xc0
 8004b6e:	009b      	lsls	r3, r3, #2
 8004b70:	0020      	movs	r0, r4
 8004b72:	421a      	tst	r2, r3
 8004b74:	d04b      	beq.n	8004c0e <HAL_TIM_IRQHandler+0x13c>
 8004b76:	f7ff ffa9 	bl	8004acc <HAL_TIM_IC_CaptureCallback>
 8004b7a:	2300      	movs	r3, #0
 8004b7c:	7723      	strb	r3, [r4, #28]
 8004b7e:	2201      	movs	r2, #1
 8004b80:	6823      	ldr	r3, [r4, #0]
 8004b82:	6919      	ldr	r1, [r3, #16]
 8004b84:	4211      	tst	r1, r2
 8004b86:	d007      	beq.n	8004b98 <HAL_TIM_IRQHandler+0xc6>
 8004b88:	68d9      	ldr	r1, [r3, #12]
 8004b8a:	4211      	tst	r1, r2
 8004b8c:	d004      	beq.n	8004b98 <HAL_TIM_IRQHandler+0xc6>
 8004b8e:	3a03      	subs	r2, #3
 8004b90:	611a      	str	r2, [r3, #16]
 8004b92:	0020      	movs	r0, r4
 8004b94:	f7ff ff98 	bl	8004ac8 <HAL_TIM_PeriodElapsedCallback>
 8004b98:	2280      	movs	r2, #128	; 0x80
 8004b9a:	6823      	ldr	r3, [r4, #0]
 8004b9c:	6919      	ldr	r1, [r3, #16]
 8004b9e:	4211      	tst	r1, r2
 8004ba0:	d008      	beq.n	8004bb4 <HAL_TIM_IRQHandler+0xe2>
 8004ba2:	68d9      	ldr	r1, [r3, #12]
 8004ba4:	4211      	tst	r1, r2
 8004ba6:	d005      	beq.n	8004bb4 <HAL_TIM_IRQHandler+0xe2>
 8004ba8:	3a02      	subs	r2, #2
 8004baa:	3aff      	subs	r2, #255	; 0xff
 8004bac:	611a      	str	r2, [r3, #16]
 8004bae:	0020      	movs	r0, r4
 8004bb0:	f000 f977 	bl	8004ea2 <HAL_TIMEx_BreakCallback>
 8004bb4:	2240      	movs	r2, #64	; 0x40
 8004bb6:	6823      	ldr	r3, [r4, #0]
 8004bb8:	6919      	ldr	r1, [r3, #16]
 8004bba:	4211      	tst	r1, r2
 8004bbc:	d007      	beq.n	8004bce <HAL_TIM_IRQHandler+0xfc>
 8004bbe:	68d9      	ldr	r1, [r3, #12]
 8004bc0:	4211      	tst	r1, r2
 8004bc2:	d004      	beq.n	8004bce <HAL_TIM_IRQHandler+0xfc>
 8004bc4:	3a81      	subs	r2, #129	; 0x81
 8004bc6:	611a      	str	r2, [r3, #16]
 8004bc8:	0020      	movs	r0, r4
 8004bca:	f7ff ff81 	bl	8004ad0 <HAL_TIM_TriggerCallback>
 8004bce:	2220      	movs	r2, #32
 8004bd0:	6823      	ldr	r3, [r4, #0]
 8004bd2:	6919      	ldr	r1, [r3, #16]
 8004bd4:	4211      	tst	r1, r2
 8004bd6:	d007      	beq.n	8004be8 <HAL_TIM_IRQHandler+0x116>
 8004bd8:	68d9      	ldr	r1, [r3, #12]
 8004bda:	4211      	tst	r1, r2
 8004bdc:	d004      	beq.n	8004be8 <HAL_TIM_IRQHandler+0x116>
 8004bde:	3a41      	subs	r2, #65	; 0x41
 8004be0:	611a      	str	r2, [r3, #16]
 8004be2:	0020      	movs	r0, r4
 8004be4:	f000 f95c 	bl	8004ea0 <HAL_TIMEx_CommutCallback>
 8004be8:	bd10      	pop	{r4, pc}
 8004bea:	f7ff ff6e 	bl	8004aca <HAL_TIM_OC_DelayElapsedCallback>
 8004bee:	0020      	movs	r0, r4
 8004bf0:	f7ff ff6d 	bl	8004ace <HAL_TIM_PWM_PulseFinishedCallback>
 8004bf4:	e781      	b.n	8004afa <HAL_TIM_IRQHandler+0x28>
 8004bf6:	f7ff ff68 	bl	8004aca <HAL_TIM_OC_DelayElapsedCallback>
 8004bfa:	0020      	movs	r0, r4
 8004bfc:	f7ff ff67 	bl	8004ace <HAL_TIM_PWM_PulseFinishedCallback>
 8004c00:	e791      	b.n	8004b26 <HAL_TIM_IRQHandler+0x54>
 8004c02:	f7ff ff62 	bl	8004aca <HAL_TIM_OC_DelayElapsedCallback>
 8004c06:	0020      	movs	r0, r4
 8004c08:	f7ff ff61 	bl	8004ace <HAL_TIM_PWM_PulseFinishedCallback>
 8004c0c:	e79f      	b.n	8004b4e <HAL_TIM_IRQHandler+0x7c>
 8004c0e:	f7ff ff5c 	bl	8004aca <HAL_TIM_OC_DelayElapsedCallback>
 8004c12:	0020      	movs	r0, r4
 8004c14:	f7ff ff5b 	bl	8004ace <HAL_TIM_PWM_PulseFinishedCallback>
 8004c18:	e7af      	b.n	8004b7a <HAL_TIM_IRQHandler+0xa8>
	...

08004c1c <TIM_Base_SetConfig>:
 8004c1c:	4a20      	ldr	r2, [pc, #128]	; (8004ca0 <TIM_Base_SetConfig+0x84>)
 8004c1e:	b510      	push	{r4, lr}
 8004c20:	6803      	ldr	r3, [r0, #0]
 8004c22:	4290      	cmp	r0, r2
 8004c24:	d006      	beq.n	8004c34 <TIM_Base_SetConfig+0x18>
 8004c26:	2480      	movs	r4, #128	; 0x80
 8004c28:	05e4      	lsls	r4, r4, #23
 8004c2a:	42a0      	cmp	r0, r4
 8004c2c:	d002      	beq.n	8004c34 <TIM_Base_SetConfig+0x18>
 8004c2e:	4c1d      	ldr	r4, [pc, #116]	; (8004ca4 <TIM_Base_SetConfig+0x88>)
 8004c30:	42a0      	cmp	r0, r4
 8004c32:	d10c      	bne.n	8004c4e <TIM_Base_SetConfig+0x32>
 8004c34:	2470      	movs	r4, #112	; 0x70
 8004c36:	43a3      	bics	r3, r4
 8004c38:	684c      	ldr	r4, [r1, #4]
 8004c3a:	4323      	orrs	r3, r4
 8004c3c:	4290      	cmp	r0, r2
 8004c3e:	d012      	beq.n	8004c66 <TIM_Base_SetConfig+0x4a>
 8004c40:	2480      	movs	r4, #128	; 0x80
 8004c42:	05e4      	lsls	r4, r4, #23
 8004c44:	42a0      	cmp	r0, r4
 8004c46:	d00e      	beq.n	8004c66 <TIM_Base_SetConfig+0x4a>
 8004c48:	4c16      	ldr	r4, [pc, #88]	; (8004ca4 <TIM_Base_SetConfig+0x88>)
 8004c4a:	42a0      	cmp	r0, r4
 8004c4c:	d00b      	beq.n	8004c66 <TIM_Base_SetConfig+0x4a>
 8004c4e:	4c16      	ldr	r4, [pc, #88]	; (8004ca8 <TIM_Base_SetConfig+0x8c>)
 8004c50:	42a0      	cmp	r0, r4
 8004c52:	d008      	beq.n	8004c66 <TIM_Base_SetConfig+0x4a>
 8004c54:	4c15      	ldr	r4, [pc, #84]	; (8004cac <TIM_Base_SetConfig+0x90>)
 8004c56:	42a0      	cmp	r0, r4
 8004c58:	d005      	beq.n	8004c66 <TIM_Base_SetConfig+0x4a>
 8004c5a:	4c15      	ldr	r4, [pc, #84]	; (8004cb0 <TIM_Base_SetConfig+0x94>)
 8004c5c:	42a0      	cmp	r0, r4
 8004c5e:	d002      	beq.n	8004c66 <TIM_Base_SetConfig+0x4a>
 8004c60:	4c14      	ldr	r4, [pc, #80]	; (8004cb4 <TIM_Base_SetConfig+0x98>)
 8004c62:	42a0      	cmp	r0, r4
 8004c64:	d103      	bne.n	8004c6e <TIM_Base_SetConfig+0x52>
 8004c66:	4c14      	ldr	r4, [pc, #80]	; (8004cb8 <TIM_Base_SetConfig+0x9c>)
 8004c68:	4023      	ands	r3, r4
 8004c6a:	68cc      	ldr	r4, [r1, #12]
 8004c6c:	4323      	orrs	r3, r4
 8004c6e:	2480      	movs	r4, #128	; 0x80
 8004c70:	43a3      	bics	r3, r4
 8004c72:	694c      	ldr	r4, [r1, #20]
 8004c74:	4323      	orrs	r3, r4
 8004c76:	6003      	str	r3, [r0, #0]
 8004c78:	688b      	ldr	r3, [r1, #8]
 8004c7a:	62c3      	str	r3, [r0, #44]	; 0x2c
 8004c7c:	680b      	ldr	r3, [r1, #0]
 8004c7e:	6283      	str	r3, [r0, #40]	; 0x28
 8004c80:	4290      	cmp	r0, r2
 8004c82:	d008      	beq.n	8004c96 <TIM_Base_SetConfig+0x7a>
 8004c84:	4b09      	ldr	r3, [pc, #36]	; (8004cac <TIM_Base_SetConfig+0x90>)
 8004c86:	4298      	cmp	r0, r3
 8004c88:	d005      	beq.n	8004c96 <TIM_Base_SetConfig+0x7a>
 8004c8a:	4b09      	ldr	r3, [pc, #36]	; (8004cb0 <TIM_Base_SetConfig+0x94>)
 8004c8c:	4298      	cmp	r0, r3
 8004c8e:	d002      	beq.n	8004c96 <TIM_Base_SetConfig+0x7a>
 8004c90:	4b08      	ldr	r3, [pc, #32]	; (8004cb4 <TIM_Base_SetConfig+0x98>)
 8004c92:	4298      	cmp	r0, r3
 8004c94:	d101      	bne.n	8004c9a <TIM_Base_SetConfig+0x7e>
 8004c96:	690b      	ldr	r3, [r1, #16]
 8004c98:	6303      	str	r3, [r0, #48]	; 0x30
 8004c9a:	2301      	movs	r3, #1
 8004c9c:	6143      	str	r3, [r0, #20]
 8004c9e:	bd10      	pop	{r4, pc}
 8004ca0:	40012c00 	.word	0x40012c00
 8004ca4:	40000400 	.word	0x40000400
 8004ca8:	40002000 	.word	0x40002000
 8004cac:	40014000 	.word	0x40014000
 8004cb0:	40014400 	.word	0x40014400
 8004cb4:	40014800 	.word	0x40014800
 8004cb8:	fffffcff 	.word	0xfffffcff

08004cbc <HAL_TIM_Base_Init>:
 8004cbc:	b570      	push	{r4, r5, r6, lr}
 8004cbe:	0004      	movs	r4, r0
 8004cc0:	2001      	movs	r0, #1
 8004cc2:	2c00      	cmp	r4, #0
 8004cc4:	d014      	beq.n	8004cf0 <HAL_TIM_Base_Init+0x34>
 8004cc6:	0025      	movs	r5, r4
 8004cc8:	353d      	adds	r5, #61	; 0x3d
 8004cca:	782b      	ldrb	r3, [r5, #0]
 8004ccc:	b2db      	uxtb	r3, r3
 8004cce:	2b00      	cmp	r3, #0
 8004cd0:	d105      	bne.n	8004cde <HAL_TIM_Base_Init+0x22>
 8004cd2:	0022      	movs	r2, r4
 8004cd4:	323c      	adds	r2, #60	; 0x3c
 8004cd6:	7013      	strb	r3, [r2, #0]
 8004cd8:	0020      	movs	r0, r4
 8004cda:	f7fc fe73 	bl	80019c4 <HAL_TIM_Base_MspInit>
 8004cde:	2302      	movs	r3, #2
 8004ce0:	6820      	ldr	r0, [r4, #0]
 8004ce2:	702b      	strb	r3, [r5, #0]
 8004ce4:	1d21      	adds	r1, r4, #4
 8004ce6:	f7ff ff99 	bl	8004c1c <TIM_Base_SetConfig>
 8004cea:	2301      	movs	r3, #1
 8004cec:	2000      	movs	r0, #0
 8004cee:	702b      	strb	r3, [r5, #0]
 8004cf0:	bd70      	pop	{r4, r5, r6, pc}
	...

08004cf4 <TIM_ETR_SetConfig>:
 8004cf4:	b530      	push	{r4, r5, lr}
 8004cf6:	6884      	ldr	r4, [r0, #8]
 8004cf8:	4d03      	ldr	r5, [pc, #12]	; (8004d08 <TIM_ETR_SetConfig+0x14>)
 8004cfa:	430a      	orrs	r2, r1
 8004cfc:	021b      	lsls	r3, r3, #8
 8004cfe:	402c      	ands	r4, r5
 8004d00:	4313      	orrs	r3, r2
 8004d02:	4323      	orrs	r3, r4
 8004d04:	6083      	str	r3, [r0, #8]
 8004d06:	bd30      	pop	{r4, r5, pc}
 8004d08:	ffff00ff 	.word	0xffff00ff

08004d0c <HAL_TIM_ConfigClockSource>:
 8004d0c:	b5f8      	push	{r3, r4, r5, r6, r7, lr}
 8004d0e:	0005      	movs	r5, r0
 8004d10:	2302      	movs	r3, #2
 8004d12:	353c      	adds	r5, #60	; 0x3c
 8004d14:	782a      	ldrb	r2, [r5, #0]
 8004d16:	0004      	movs	r4, r0
 8004d18:	0018      	movs	r0, r3
 8004d1a:	2a01      	cmp	r2, #1
 8004d1c:	d016      	beq.n	8004d4c <HAL_TIM_ConfigClockSource+0x40>
 8004d1e:	0026      	movs	r6, r4
 8004d20:	2701      	movs	r7, #1
 8004d22:	6820      	ldr	r0, [r4, #0]
 8004d24:	363d      	adds	r6, #61	; 0x3d
 8004d26:	702f      	strb	r7, [r5, #0]
 8004d28:	7033      	strb	r3, [r6, #0]
 8004d2a:	6883      	ldr	r3, [r0, #8]
 8004d2c:	4a40      	ldr	r2, [pc, #256]	; (8004e30 <HAL_TIM_ConfigClockSource+0x124>)
 8004d2e:	4013      	ands	r3, r2
 8004d30:	6083      	str	r3, [r0, #8]
 8004d32:	680b      	ldr	r3, [r1, #0]
 8004d34:	2b40      	cmp	r3, #64	; 0x40
 8004d36:	d065      	beq.n	8004e04 <HAL_TIM_ConfigClockSource+0xf8>
 8004d38:	d814      	bhi.n	8004d64 <HAL_TIM_ConfigClockSource+0x58>
 8004d3a:	2b10      	cmp	r3, #16
 8004d3c:	d00b      	beq.n	8004d56 <HAL_TIM_ConfigClockSource+0x4a>
 8004d3e:	d806      	bhi.n	8004d4e <HAL_TIM_ConfigClockSource+0x42>
 8004d40:	2b00      	cmp	r3, #0
 8004d42:	d008      	beq.n	8004d56 <HAL_TIM_ConfigClockSource+0x4a>
 8004d44:	2301      	movs	r3, #1
 8004d46:	2000      	movs	r0, #0
 8004d48:	7033      	strb	r3, [r6, #0]
 8004d4a:	7028      	strb	r0, [r5, #0]
 8004d4c:	bdf8      	pop	{r3, r4, r5, r6, r7, pc}
 8004d4e:	2b20      	cmp	r3, #32
 8004d50:	d001      	beq.n	8004d56 <HAL_TIM_ConfigClockSource+0x4a>
 8004d52:	2b30      	cmp	r3, #48	; 0x30
 8004d54:	d1f6      	bne.n	8004d44 <HAL_TIM_ConfigClockSource+0x38>
 8004d56:	2270      	movs	r2, #112	; 0x70
 8004d58:	6881      	ldr	r1, [r0, #8]
 8004d5a:	4391      	bics	r1, r2
 8004d5c:	3a69      	subs	r2, #105	; 0x69
 8004d5e:	4313      	orrs	r3, r2
 8004d60:	430b      	orrs	r3, r1
 8004d62:	e01a      	b.n	8004d9a <HAL_TIM_ConfigClockSource+0x8e>
 8004d64:	2b60      	cmp	r3, #96	; 0x60
 8004d66:	d035      	beq.n	8004dd4 <HAL_TIM_ConfigClockSource+0xc8>
 8004d68:	d819      	bhi.n	8004d9e <HAL_TIM_ConfigClockSource+0x92>
 8004d6a:	2b50      	cmp	r3, #80	; 0x50
 8004d6c:	d1ea      	bne.n	8004d44 <HAL_TIM_ConfigClockSource+0x38>
 8004d6e:	684a      	ldr	r2, [r1, #4]
 8004d70:	68cb      	ldr	r3, [r1, #12]
 8004d72:	6a01      	ldr	r1, [r0, #32]
 8004d74:	6a04      	ldr	r4, [r0, #32]
 8004d76:	011b      	lsls	r3, r3, #4
 8004d78:	43bc      	bics	r4, r7
 8004d7a:	27f0      	movs	r7, #240	; 0xf0
 8004d7c:	6204      	str	r4, [r0, #32]
 8004d7e:	6984      	ldr	r4, [r0, #24]
 8004d80:	43bc      	bics	r4, r7
 8004d82:	4323      	orrs	r3, r4
 8004d84:	240a      	movs	r4, #10
 8004d86:	43a1      	bics	r1, r4
 8004d88:	430a      	orrs	r2, r1
 8004d8a:	6183      	str	r3, [r0, #24]
 8004d8c:	6202      	str	r2, [r0, #32]
 8004d8e:	2270      	movs	r2, #112	; 0x70
 8004d90:	6883      	ldr	r3, [r0, #8]
 8004d92:	4393      	bics	r3, r2
 8004d94:	001a      	movs	r2, r3
 8004d96:	2357      	movs	r3, #87	; 0x57
 8004d98:	4313      	orrs	r3, r2
 8004d9a:	6083      	str	r3, [r0, #8]
 8004d9c:	e7d2      	b.n	8004d44 <HAL_TIM_ConfigClockSource+0x38>
 8004d9e:	2b70      	cmp	r3, #112	; 0x70
 8004da0:	d00d      	beq.n	8004dbe <HAL_TIM_ConfigClockSource+0xb2>
 8004da2:	2280      	movs	r2, #128	; 0x80
 8004da4:	0192      	lsls	r2, r2, #6
 8004da6:	4293      	cmp	r3, r2
 8004da8:	d1cc      	bne.n	8004d44 <HAL_TIM_ConfigClockSource+0x38>
 8004daa:	68cb      	ldr	r3, [r1, #12]
 8004dac:	684a      	ldr	r2, [r1, #4]
 8004dae:	6889      	ldr	r1, [r1, #8]
 8004db0:	f7ff ffa0 	bl	8004cf4 <TIM_ETR_SetConfig>
 8004db4:	2380      	movs	r3, #128	; 0x80
 8004db6:	6822      	ldr	r2, [r4, #0]
 8004db8:	01db      	lsls	r3, r3, #7
 8004dba:	6891      	ldr	r1, [r2, #8]
 8004dbc:	e007      	b.n	8004dce <HAL_TIM_ConfigClockSource+0xc2>
 8004dbe:	68cb      	ldr	r3, [r1, #12]
 8004dc0:	684a      	ldr	r2, [r1, #4]
 8004dc2:	6889      	ldr	r1, [r1, #8]
 8004dc4:	f7ff ff96 	bl	8004cf4 <TIM_ETR_SetConfig>
 8004dc8:	2377      	movs	r3, #119	; 0x77
 8004dca:	6822      	ldr	r2, [r4, #0]
 8004dcc:	6891      	ldr	r1, [r2, #8]
 8004dce:	430b      	orrs	r3, r1
 8004dd0:	6093      	str	r3, [r2, #8]
 8004dd2:	e7b7      	b.n	8004d44 <HAL_TIM_ConfigClockSource+0x38>
 8004dd4:	2410      	movs	r4, #16
 8004dd6:	684b      	ldr	r3, [r1, #4]
 8004dd8:	68ca      	ldr	r2, [r1, #12]
 8004dda:	6a01      	ldr	r1, [r0, #32]
 8004ddc:	4f15      	ldr	r7, [pc, #84]	; (8004e34 <HAL_TIM_ConfigClockSource+0x128>)
 8004dde:	43a1      	bics	r1, r4
 8004de0:	6201      	str	r1, [r0, #32]
 8004de2:	6984      	ldr	r4, [r0, #24]
 8004de4:	0312      	lsls	r2, r2, #12
 8004de6:	403c      	ands	r4, r7
 8004de8:	4322      	orrs	r2, r4
 8004dea:	24a0      	movs	r4, #160	; 0xa0
 8004dec:	6a01      	ldr	r1, [r0, #32]
 8004dee:	6182      	str	r2, [r0, #24]
 8004df0:	2270      	movs	r2, #112	; 0x70
 8004df2:	43a1      	bics	r1, r4
 8004df4:	011b      	lsls	r3, r3, #4
 8004df6:	430b      	orrs	r3, r1
 8004df8:	6203      	str	r3, [r0, #32]
 8004dfa:	6883      	ldr	r3, [r0, #8]
 8004dfc:	4393      	bics	r3, r2
 8004dfe:	001a      	movs	r2, r3
 8004e00:	2367      	movs	r3, #103	; 0x67
 8004e02:	e7c9      	b.n	8004d98 <HAL_TIM_ConfigClockSource+0x8c>
 8004e04:	684a      	ldr	r2, [r1, #4]
 8004e06:	68cb      	ldr	r3, [r1, #12]
 8004e08:	6a01      	ldr	r1, [r0, #32]
 8004e0a:	6a04      	ldr	r4, [r0, #32]
 8004e0c:	011b      	lsls	r3, r3, #4
 8004e0e:	43bc      	bics	r4, r7
 8004e10:	27f0      	movs	r7, #240	; 0xf0
 8004e12:	6204      	str	r4, [r0, #32]
 8004e14:	6984      	ldr	r4, [r0, #24]
 8004e16:	43bc      	bics	r4, r7
 8004e18:	4323      	orrs	r3, r4
 8004e1a:	240a      	movs	r4, #10
 8004e1c:	43a1      	bics	r1, r4
 8004e1e:	430a      	orrs	r2, r1
 8004e20:	6183      	str	r3, [r0, #24]
 8004e22:	6202      	str	r2, [r0, #32]
 8004e24:	2270      	movs	r2, #112	; 0x70
 8004e26:	6883      	ldr	r3, [r0, #8]
 8004e28:	4393      	bics	r3, r2
 8004e2a:	001a      	movs	r2, r3
 8004e2c:	2347      	movs	r3, #71	; 0x47
 8004e2e:	e7b3      	b.n	8004d98 <HAL_TIM_ConfigClockSource+0x8c>
 8004e30:	ffff0088 	.word	0xffff0088
 8004e34:	ffff0fff 	.word	0xffff0fff

08004e38 <HAL_TIMEx_MasterConfigSynchronization>:
 8004e38:	b570      	push	{r4, r5, r6, lr}
 8004e3a:	0004      	movs	r4, r0
 8004e3c:	2202      	movs	r2, #2
 8004e3e:	343c      	adds	r4, #60	; 0x3c
 8004e40:	7825      	ldrb	r5, [r4, #0]
 8004e42:	0003      	movs	r3, r0
 8004e44:	0010      	movs	r0, r2
 8004e46:	2d01      	cmp	r5, #1
 8004e48:	d022      	beq.n	8004e90 <HAL_TIMEx_MasterConfigSynchronization+0x58>
 8004e4a:	001d      	movs	r5, r3
 8004e4c:	2670      	movs	r6, #112	; 0x70
 8004e4e:	681b      	ldr	r3, [r3, #0]
 8004e50:	3801      	subs	r0, #1
 8004e52:	353d      	adds	r5, #61	; 0x3d
 8004e54:	7020      	strb	r0, [r4, #0]
 8004e56:	702a      	strb	r2, [r5, #0]
 8004e58:	6858      	ldr	r0, [r3, #4]
 8004e5a:	689a      	ldr	r2, [r3, #8]
 8004e5c:	43b0      	bics	r0, r6
 8004e5e:	680e      	ldr	r6, [r1, #0]
 8004e60:	4330      	orrs	r0, r6
 8004e62:	6058      	str	r0, [r3, #4]
 8004e64:	480b      	ldr	r0, [pc, #44]	; (8004e94 <HAL_TIMEx_MasterConfigSynchronization+0x5c>)
 8004e66:	4283      	cmp	r3, r0
 8004e68:	d009      	beq.n	8004e7e <HAL_TIMEx_MasterConfigSynchronization+0x46>
 8004e6a:	2080      	movs	r0, #128	; 0x80
 8004e6c:	05c0      	lsls	r0, r0, #23
 8004e6e:	4283      	cmp	r3, r0
 8004e70:	d005      	beq.n	8004e7e <HAL_TIMEx_MasterConfigSynchronization+0x46>
 8004e72:	4809      	ldr	r0, [pc, #36]	; (8004e98 <HAL_TIMEx_MasterConfigSynchronization+0x60>)
 8004e74:	4283      	cmp	r3, r0
 8004e76:	d002      	beq.n	8004e7e <HAL_TIMEx_MasterConfigSynchronization+0x46>
 8004e78:	4808      	ldr	r0, [pc, #32]	; (8004e9c <HAL_TIMEx_MasterConfigSynchronization+0x64>)
 8004e7a:	4283      	cmp	r3, r0
 8004e7c:	d104      	bne.n	8004e88 <HAL_TIMEx_MasterConfigSynchronization+0x50>
 8004e7e:	2080      	movs	r0, #128	; 0x80
 8004e80:	6849      	ldr	r1, [r1, #4]
 8004e82:	4382      	bics	r2, r0
 8004e84:	430a      	orrs	r2, r1
 8004e86:	609a      	str	r2, [r3, #8]
 8004e88:	2301      	movs	r3, #1
 8004e8a:	2000      	movs	r0, #0
 8004e8c:	702b      	strb	r3, [r5, #0]
 8004e8e:	7020      	strb	r0, [r4, #0]
 8004e90:	bd70      	pop	{r4, r5, r6, pc}
 8004e92:	46c0      	nop			; (mov r8, r8)
 8004e94:	40012c00 	.word	0x40012c00
 8004e98:	40000400 	.word	0x40000400
 8004e9c:	40014000 	.word	0x40014000

08004ea0 <HAL_TIMEx_CommutCallback>:
 8004ea0:	4770      	bx	lr

08004ea2 <HAL_TIMEx_BreakCallback>:
 8004ea2:	4770      	bx	lr

08004ea4 <UART_EndRxTransfer>:
 8004ea4:	6803      	ldr	r3, [r0, #0]
 8004ea6:	4907      	ldr	r1, [pc, #28]	; (8004ec4 <UART_EndRxTransfer+0x20>)
 8004ea8:	681a      	ldr	r2, [r3, #0]
 8004eaa:	400a      	ands	r2, r1
 8004eac:	601a      	str	r2, [r3, #0]
 8004eae:	689a      	ldr	r2, [r3, #8]
 8004eb0:	3123      	adds	r1, #35	; 0x23
 8004eb2:	31ff      	adds	r1, #255	; 0xff
 8004eb4:	438a      	bics	r2, r1
 8004eb6:	609a      	str	r2, [r3, #8]
 8004eb8:	2320      	movs	r3, #32
 8004eba:	6783      	str	r3, [r0, #120]	; 0x78
 8004ebc:	2300      	movs	r3, #0
 8004ebe:	6603      	str	r3, [r0, #96]	; 0x60
 8004ec0:	4770      	bx	lr
 8004ec2:	46c0      	nop			; (mov r8, r8)
 8004ec4:	fffffedf 	.word	0xfffffedf

08004ec8 <HAL_UART_TxCpltCallback>:
 8004ec8:	4770      	bx	lr

08004eca <HAL_UART_ErrorCallback>:
 8004eca:	4770      	bx	lr

08004ecc <HAL_UART_IRQHandler>:
 8004ecc:	b5f8      	push	{r3, r4, r5, r6, r7, lr}
 8004ece:	6803      	ldr	r3, [r0, #0]
 8004ed0:	0004      	movs	r4, r0
 8004ed2:	69da      	ldr	r2, [r3, #28]
 8004ed4:	4850      	ldr	r0, [pc, #320]	; (8005018 <HAL_UART_IRQHandler+0x14c>)
 8004ed6:	6819      	ldr	r1, [r3, #0]
 8004ed8:	689e      	ldr	r6, [r3, #8]
 8004eda:	4202      	tst	r2, r0
 8004edc:	d10b      	bne.n	8004ef6 <HAL_UART_IRQHandler+0x2a>
 8004ede:	2020      	movs	r0, #32
 8004ee0:	4202      	tst	r2, r0
 8004ee2:	d100      	bne.n	8004ee6 <HAL_UART_IRQHandler+0x1a>
 8004ee4:	e076      	b.n	8004fd4 <HAL_UART_IRQHandler+0x108>
 8004ee6:	4201      	tst	r1, r0
 8004ee8:	d100      	bne.n	8004eec <HAL_UART_IRQHandler+0x20>
 8004eea:	e073      	b.n	8004fd4 <HAL_UART_IRQHandler+0x108>
 8004eec:	6e23      	ldr	r3, [r4, #96]	; 0x60
 8004eee:	0020      	movs	r0, r4
 8004ef0:	2b00      	cmp	r3, #0
 8004ef2:	d165      	bne.n	8004fc0 <HAL_UART_IRQHandler+0xf4>
 8004ef4:	e065      	b.n	8004fc2 <HAL_UART_IRQHandler+0xf6>
 8004ef6:	2001      	movs	r0, #1
 8004ef8:	0035      	movs	r5, r6
 8004efa:	4005      	ands	r5, r0
 8004efc:	d103      	bne.n	8004f06 <HAL_UART_IRQHandler+0x3a>
 8004efe:	2790      	movs	r7, #144	; 0x90
 8004f00:	007f      	lsls	r7, r7, #1
 8004f02:	4239      	tst	r1, r7
 8004f04:	d066      	beq.n	8004fd4 <HAL_UART_IRQHandler+0x108>
 8004f06:	4202      	tst	r2, r0
 8004f08:	d005      	beq.n	8004f16 <HAL_UART_IRQHandler+0x4a>
 8004f0a:	05ce      	lsls	r6, r1, #23
 8004f0c:	d503      	bpl.n	8004f16 <HAL_UART_IRQHandler+0x4a>
 8004f0e:	6218      	str	r0, [r3, #32]
 8004f10:	6fe6      	ldr	r6, [r4, #124]	; 0x7c
 8004f12:	4330      	orrs	r0, r6
 8004f14:	67e0      	str	r0, [r4, #124]	; 0x7c
 8004f16:	2002      	movs	r0, #2
 8004f18:	4202      	tst	r2, r0
 8004f1a:	d006      	beq.n	8004f2a <HAL_UART_IRQHandler+0x5e>
 8004f1c:	2d00      	cmp	r5, #0
 8004f1e:	d004      	beq.n	8004f2a <HAL_UART_IRQHandler+0x5e>
 8004f20:	6218      	str	r0, [r3, #32]
 8004f22:	6fe6      	ldr	r6, [r4, #124]	; 0x7c
 8004f24:	1800      	adds	r0, r0, r0
 8004f26:	4330      	orrs	r0, r6
 8004f28:	67e0      	str	r0, [r4, #124]	; 0x7c
 8004f2a:	2004      	movs	r0, #4
 8004f2c:	4202      	tst	r2, r0
 8004f2e:	d006      	beq.n	8004f3e <HAL_UART_IRQHandler+0x72>
 8004f30:	2d00      	cmp	r5, #0
 8004f32:	d004      	beq.n	8004f3e <HAL_UART_IRQHandler+0x72>
 8004f34:	6218      	str	r0, [r3, #32]
 8004f36:	6fe6      	ldr	r6, [r4, #124]	; 0x7c
 8004f38:	3802      	subs	r0, #2
 8004f3a:	4330      	orrs	r0, r6
 8004f3c:	67e0      	str	r0, [r4, #124]	; 0x7c
 8004f3e:	0710      	lsls	r0, r2, #28
 8004f40:	d508      	bpl.n	8004f54 <HAL_UART_IRQHandler+0x88>
 8004f42:	0688      	lsls	r0, r1, #26
 8004f44:	d401      	bmi.n	8004f4a <HAL_UART_IRQHandler+0x7e>
 8004f46:	2d00      	cmp	r5, #0
 8004f48:	d004      	beq.n	8004f54 <HAL_UART_IRQHandler+0x88>
 8004f4a:	2008      	movs	r0, #8
 8004f4c:	6218      	str	r0, [r3, #32]
 8004f4e:	6fe5      	ldr	r5, [r4, #124]	; 0x7c
 8004f50:	4328      	orrs	r0, r5
 8004f52:	67e0      	str	r0, [r4, #124]	; 0x7c
 8004f54:	2080      	movs	r0, #128	; 0x80
 8004f56:	0100      	lsls	r0, r0, #4
 8004f58:	4202      	tst	r2, r0
 8004f5a:	d006      	beq.n	8004f6a <HAL_UART_IRQHandler+0x9e>
 8004f5c:	014d      	lsls	r5, r1, #5
 8004f5e:	d504      	bpl.n	8004f6a <HAL_UART_IRQHandler+0x9e>
 8004f60:	6218      	str	r0, [r3, #32]
 8004f62:	2320      	movs	r3, #32
 8004f64:	6fe0      	ldr	r0, [r4, #124]	; 0x7c
 8004f66:	4303      	orrs	r3, r0
 8004f68:	67e3      	str	r3, [r4, #124]	; 0x7c
 8004f6a:	6fe3      	ldr	r3, [r4, #124]	; 0x7c
 8004f6c:	2b00      	cmp	r3, #0
 8004f6e:	d028      	beq.n	8004fc2 <HAL_UART_IRQHandler+0xf6>
 8004f70:	2320      	movs	r3, #32
 8004f72:	421a      	tst	r2, r3
 8004f74:	d006      	beq.n	8004f84 <HAL_UART_IRQHandler+0xb8>
 8004f76:	4219      	tst	r1, r3
 8004f78:	d004      	beq.n	8004f84 <HAL_UART_IRQHandler+0xb8>
 8004f7a:	6e23      	ldr	r3, [r4, #96]	; 0x60
 8004f7c:	2b00      	cmp	r3, #0
 8004f7e:	d001      	beq.n	8004f84 <HAL_UART_IRQHandler+0xb8>
 8004f80:	0020      	movs	r0, r4
 8004f82:	4798      	blx	r3
 8004f84:	6823      	ldr	r3, [r4, #0]
 8004f86:	6fe5      	ldr	r5, [r4, #124]	; 0x7c
 8004f88:	689b      	ldr	r3, [r3, #8]
 8004f8a:	0020      	movs	r0, r4
 8004f8c:	065b      	lsls	r3, r3, #25
 8004f8e:	d402      	bmi.n	8004f96 <HAL_UART_IRQHandler+0xca>
 8004f90:	2328      	movs	r3, #40	; 0x28
 8004f92:	401d      	ands	r5, r3
 8004f94:	d01a      	beq.n	8004fcc <HAL_UART_IRQHandler+0x100>
 8004f96:	f7ff ff85 	bl	8004ea4 <UART_EndRxTransfer>
 8004f9a:	2140      	movs	r1, #64	; 0x40
 8004f9c:	6823      	ldr	r3, [r4, #0]
 8004f9e:	689a      	ldr	r2, [r3, #8]
 8004fa0:	420a      	tst	r2, r1
 8004fa2:	d00f      	beq.n	8004fc4 <HAL_UART_IRQHandler+0xf8>
 8004fa4:	689a      	ldr	r2, [r3, #8]
 8004fa6:	6ee0      	ldr	r0, [r4, #108]	; 0x6c
 8004fa8:	438a      	bics	r2, r1
 8004faa:	609a      	str	r2, [r3, #8]
 8004fac:	2800      	cmp	r0, #0
 8004fae:	d009      	beq.n	8004fc4 <HAL_UART_IRQHandler+0xf8>
 8004fb0:	4b1a      	ldr	r3, [pc, #104]	; (800501c <HAL_UART_IRQHandler+0x150>)
 8004fb2:	6343      	str	r3, [r0, #52]	; 0x34
 8004fb4:	f7fd fac2 	bl	800253c <HAL_DMA_Abort_IT>
 8004fb8:	2800      	cmp	r0, #0
 8004fba:	d002      	beq.n	8004fc2 <HAL_UART_IRQHandler+0xf6>
 8004fbc:	6ee0      	ldr	r0, [r4, #108]	; 0x6c
 8004fbe:	6b43      	ldr	r3, [r0, #52]	; 0x34
 8004fc0:	4798      	blx	r3
 8004fc2:	bdf8      	pop	{r3, r4, r5, r6, r7, pc}
 8004fc4:	0020      	movs	r0, r4
 8004fc6:	f7ff ff80 	bl	8004eca <HAL_UART_ErrorCallback>
 8004fca:	e7fa      	b.n	8004fc2 <HAL_UART_IRQHandler+0xf6>
 8004fcc:	f7ff ff7d 	bl	8004eca <HAL_UART_ErrorCallback>
 8004fd0:	67e5      	str	r5, [r4, #124]	; 0x7c
 8004fd2:	e7f6      	b.n	8004fc2 <HAL_UART_IRQHandler+0xf6>
 8004fd4:	2080      	movs	r0, #128	; 0x80
 8004fd6:	0340      	lsls	r0, r0, #13
 8004fd8:	4202      	tst	r2, r0
 8004fda:	d006      	beq.n	8004fea <HAL_UART_IRQHandler+0x11e>
 8004fdc:	0275      	lsls	r5, r6, #9
 8004fde:	d504      	bpl.n	8004fea <HAL_UART_IRQHandler+0x11e>
 8004fe0:	6218      	str	r0, [r3, #32]
 8004fe2:	0020      	movs	r0, r4
 8004fe4:	f000 fa74 	bl	80054d0 <HAL_UARTEx_WakeupCallback>
 8004fe8:	e7eb      	b.n	8004fc2 <HAL_UART_IRQHandler+0xf6>
 8004fea:	2080      	movs	r0, #128	; 0x80
 8004fec:	4202      	tst	r2, r0
 8004fee:	d003      	beq.n	8004ff8 <HAL_UART_IRQHandler+0x12c>
 8004ff0:	4201      	tst	r1, r0
 8004ff2:	d001      	beq.n	8004ff8 <HAL_UART_IRQHandler+0x12c>
 8004ff4:	6e63      	ldr	r3, [r4, #100]	; 0x64
 8004ff6:	e77a      	b.n	8004eee <HAL_UART_IRQHandler+0x22>
 8004ff8:	2040      	movs	r0, #64	; 0x40
 8004ffa:	4202      	tst	r2, r0
 8004ffc:	d0e1      	beq.n	8004fc2 <HAL_UART_IRQHandler+0xf6>
 8004ffe:	4201      	tst	r1, r0
 8005000:	d0df      	beq.n	8004fc2 <HAL_UART_IRQHandler+0xf6>
 8005002:	681a      	ldr	r2, [r3, #0]
 8005004:	4382      	bics	r2, r0
 8005006:	601a      	str	r2, [r3, #0]
 8005008:	2320      	movs	r3, #32
 800500a:	6763      	str	r3, [r4, #116]	; 0x74
 800500c:	2300      	movs	r3, #0
 800500e:	0020      	movs	r0, r4
 8005010:	6663      	str	r3, [r4, #100]	; 0x64
 8005012:	f7ff ff59 	bl	8004ec8 <HAL_UART_TxCpltCallback>
 8005016:	e7d4      	b.n	8004fc2 <HAL_UART_IRQHandler+0xf6>
 8005018:	0000080f 	.word	0x0000080f
 800501c:	08005021 	.word	0x08005021

08005020 <UART_DMAAbortOnError>:
 8005020:	6a40      	ldr	r0, [r0, #36]	; 0x24
 8005022:	2300      	movs	r3, #0
 8005024:	0002      	movs	r2, r0
 8005026:	b510      	push	{r4, lr}
 8005028:	325a      	adds	r2, #90	; 0x5a
 800502a:	8013      	strh	r3, [r2, #0]
 800502c:	3a08      	subs	r2, #8
 800502e:	8013      	strh	r3, [r2, #0]
 8005030:	f7ff ff4b 	bl	8004eca <HAL_UART_ErrorCallback>
 8005034:	bd10      	pop	{r4, pc}
	...

08005038 <UART_SetConfig>:
 8005038:	b5f8      	push	{r3, r4, r5, r6, r7, lr}
 800503a:	0004      	movs	r4, r0
 800503c:	6925      	ldr	r5, [r4, #16]
 800503e:	68a2      	ldr	r2, [r4, #8]
 8005040:	6803      	ldr	r3, [r0, #0]
 8005042:	432a      	orrs	r2, r5
 8005044:	6965      	ldr	r5, [r4, #20]
 8005046:	69c1      	ldr	r1, [r0, #28]
 8005048:	432a      	orrs	r2, r5
 800504a:	6818      	ldr	r0, [r3, #0]
 800504c:	4d56      	ldr	r5, [pc, #344]	; (80051a8 <UART_SetConfig+0x170>)
 800504e:	430a      	orrs	r2, r1
 8005050:	4028      	ands	r0, r5
 8005052:	4302      	orrs	r2, r0
 8005054:	601a      	str	r2, [r3, #0]
 8005056:	685a      	ldr	r2, [r3, #4]
 8005058:	4854      	ldr	r0, [pc, #336]	; (80051ac <UART_SetConfig+0x174>)
 800505a:	6a25      	ldr	r5, [r4, #32]
 800505c:	4002      	ands	r2, r0
 800505e:	68e0      	ldr	r0, [r4, #12]
 8005060:	4302      	orrs	r2, r0
 8005062:	605a      	str	r2, [r3, #4]
 8005064:	69a2      	ldr	r2, [r4, #24]
 8005066:	6898      	ldr	r0, [r3, #8]
 8005068:	432a      	orrs	r2, r5
 800506a:	4d51      	ldr	r5, [pc, #324]	; (80051b0 <UART_SetConfig+0x178>)
 800506c:	4028      	ands	r0, r5
 800506e:	4302      	orrs	r2, r0
 8005070:	609a      	str	r2, [r3, #8]
 8005072:	4a50      	ldr	r2, [pc, #320]	; (80051b4 <UART_SetConfig+0x17c>)
 8005074:	4d50      	ldr	r5, [pc, #320]	; (80051b8 <UART_SetConfig+0x180>)
 8005076:	4293      	cmp	r3, r2
 8005078:	d113      	bne.n	80050a2 <UART_SetConfig+0x6a>
 800507a:	2203      	movs	r2, #3
 800507c:	4b4f      	ldr	r3, [pc, #316]	; (80051bc <UART_SetConfig+0x184>)
 800507e:	6b1b      	ldr	r3, [r3, #48]	; 0x30
 8005080:	4013      	ands	r3, r2
 8005082:	4a4f      	ldr	r2, [pc, #316]	; (80051c0 <UART_SetConfig+0x188>)
 8005084:	5cd0      	ldrb	r0, [r2, r3]
 8005086:	2380      	movs	r3, #128	; 0x80
 8005088:	021b      	lsls	r3, r3, #8
 800508a:	4299      	cmp	r1, r3
 800508c:	d155      	bne.n	800513a <UART_SetConfig+0x102>
 800508e:	2808      	cmp	r0, #8
 8005090:	d900      	bls.n	8005094 <UART_SetConfig+0x5c>
 8005092:	e086      	b.n	80051a2 <UART_SetConfig+0x16a>
 8005094:	f7fb f842 	bl	800011c <__gnu_thumb1_case_uqi>
 8005098:	85278541 	.word	0x85278541
 800509c:	85858580 	.word	0x85858580
 80050a0:	79          	.byte	0x79
 80050a1:	00          	.byte	0x00
 80050a2:	2280      	movs	r2, #128	; 0x80
 80050a4:	4847      	ldr	r0, [pc, #284]	; (80051c4 <UART_SetConfig+0x18c>)
 80050a6:	0212      	lsls	r2, r2, #8
 80050a8:	4283      	cmp	r3, r0
 80050aa:	d12e      	bne.n	800510a <UART_SetConfig+0xd2>
 80050ac:	20c0      	movs	r0, #192	; 0xc0
 80050ae:	2680      	movs	r6, #128	; 0x80
 80050b0:	4b42      	ldr	r3, [pc, #264]	; (80051bc <UART_SetConfig+0x184>)
 80050b2:	0280      	lsls	r0, r0, #10
 80050b4:	6b1b      	ldr	r3, [r3, #48]	; 0x30
 80050b6:	0276      	lsls	r6, r6, #9
 80050b8:	4003      	ands	r3, r0
 80050ba:	42b3      	cmp	r3, r6
 80050bc:	d100      	bne.n	80050c0 <UART_SetConfig+0x88>
 80050be:	e069      	b.n	8005194 <UART_SetConfig+0x15c>
 80050c0:	0017      	movs	r7, r2
 80050c2:	42b3      	cmp	r3, r6
 80050c4:	d807      	bhi.n	80050d6 <UART_SetConfig+0x9e>
 80050c6:	2000      	movs	r0, #0
 80050c8:	4283      	cmp	r3, r0
 80050ca:	d0dc      	beq.n	8005086 <UART_SetConfig+0x4e>
 80050cc:	42b9      	cmp	r1, r7
 80050ce:	d068      	beq.n	80051a2 <UART_SetConfig+0x16a>
 80050d0:	2001      	movs	r0, #1
 80050d2:	2300      	movs	r3, #0
 80050d4:	e048      	b.n	8005168 <UART_SetConfig+0x130>
 80050d6:	2680      	movs	r6, #128	; 0x80
 80050d8:	02b6      	lsls	r6, r6, #10
 80050da:	42b3      	cmp	r3, r6
 80050dc:	d053      	beq.n	8005186 <UART_SetConfig+0x14e>
 80050de:	4283      	cmp	r3, r0
 80050e0:	d1f4      	bne.n	80050cc <UART_SetConfig+0x94>
 80050e2:	4291      	cmp	r1, r2
 80050e4:	d137      	bne.n	8005156 <UART_SetConfig+0x11e>
 80050e6:	6863      	ldr	r3, [r4, #4]
 80050e8:	0858      	lsrs	r0, r3, #1
 80050ea:	4b37      	ldr	r3, [pc, #220]	; (80051c8 <UART_SetConfig+0x190>)
 80050ec:	18c0      	adds	r0, r0, r3
 80050ee:	6861      	ldr	r1, [r4, #4]
 80050f0:	f7fb f828 	bl	8000144 <__udivsi3>
 80050f4:	b283      	uxth	r3, r0
 80050f6:	2000      	movs	r0, #0
 80050f8:	001a      	movs	r2, r3
 80050fa:	3a10      	subs	r2, #16
 80050fc:	42aa      	cmp	r2, r5
 80050fe:	d912      	bls.n	8005126 <UART_SetConfig+0xee>
 8005100:	2001      	movs	r0, #1
 8005102:	2300      	movs	r3, #0
 8005104:	6623      	str	r3, [r4, #96]	; 0x60
 8005106:	6663      	str	r3, [r4, #100]	; 0x64
 8005108:	bdf8      	pop	{r3, r4, r5, r6, r7, pc}
 800510a:	4830      	ldr	r0, [pc, #192]	; (80051cc <UART_SetConfig+0x194>)
 800510c:	4283      	cmp	r3, r0
 800510e:	d002      	beq.n	8005116 <UART_SetConfig+0xde>
 8005110:	482f      	ldr	r0, [pc, #188]	; (80051d0 <UART_SetConfig+0x198>)
 8005112:	4283      	cmp	r3, r0
 8005114:	d143      	bne.n	800519e <UART_SetConfig+0x166>
 8005116:	4291      	cmp	r1, r2
 8005118:	d118      	bne.n	800514c <UART_SetConfig+0x114>
 800511a:	f7ff fa6b 	bl	80045f4 <HAL_RCC_GetPCLK1Freq>
 800511e:	6863      	ldr	r3, [r4, #4]
 8005120:	0040      	lsls	r0, r0, #1
 8005122:	085b      	lsrs	r3, r3, #1
 8005124:	e7e2      	b.n	80050ec <UART_SetConfig+0xb4>
 8005126:	220f      	movs	r2, #15
 8005128:	0019      	movs	r1, r3
 800512a:	4391      	bics	r1, r2
 800512c:	000a      	movs	r2, r1
 800512e:	071b      	lsls	r3, r3, #28
 8005130:	6821      	ldr	r1, [r4, #0]
 8005132:	0f5b      	lsrs	r3, r3, #29
 8005134:	4313      	orrs	r3, r2
 8005136:	60cb      	str	r3, [r1, #12]
 8005138:	e7e3      	b.n	8005102 <UART_SetConfig+0xca>
 800513a:	2808      	cmp	r0, #8
 800513c:	d8c8      	bhi.n	80050d0 <UART_SetConfig+0x98>
 800513e:	f7fa ffe3 	bl	8000108 <__gnu_thumb1_case_sqi>
 8005142:	c705      	.short	0xc705
 8005144:	c71ac70a 	.word	0xc71ac70a
 8005148:	c7c7      	.short	0xc7c7
 800514a:	1d          	.byte	0x1d
 800514b:	00          	.byte	0x00
 800514c:	f7ff fa52 	bl	80045f4 <HAL_RCC_GetPCLK1Freq>
 8005150:	6863      	ldr	r3, [r4, #4]
 8005152:	085b      	lsrs	r3, r3, #1
 8005154:	e002      	b.n	800515c <UART_SetConfig+0x124>
 8005156:	6863      	ldr	r3, [r4, #4]
 8005158:	0858      	lsrs	r0, r3, #1
 800515a:	4b1e      	ldr	r3, [pc, #120]	; (80051d4 <UART_SetConfig+0x19c>)
 800515c:	18c0      	adds	r0, r0, r3
 800515e:	6861      	ldr	r1, [r4, #4]
 8005160:	f7fa fff0 	bl	8000144 <__udivsi3>
 8005164:	b283      	uxth	r3, r0
 8005166:	2000      	movs	r0, #0
 8005168:	001a      	movs	r2, r3
 800516a:	3a10      	subs	r2, #16
 800516c:	42aa      	cmp	r2, r5
 800516e:	d8c7      	bhi.n	8005100 <UART_SetConfig+0xc8>
 8005170:	6822      	ldr	r2, [r4, #0]
 8005172:	60d3      	str	r3, [r2, #12]
 8005174:	e7c5      	b.n	8005102 <UART_SetConfig+0xca>
 8005176:	f7ff f96f 	bl	8004458 <HAL_RCC_GetSysClockFreq>
 800517a:	e7e9      	b.n	8005150 <UART_SetConfig+0x118>
 800517c:	6863      	ldr	r3, [r4, #4]
 800517e:	0858      	lsrs	r0, r3, #1
 8005180:	2380      	movs	r3, #128	; 0x80
 8005182:	021b      	lsls	r3, r3, #8
 8005184:	e7ea      	b.n	800515c <UART_SetConfig+0x124>
 8005186:	4291      	cmp	r1, r2
 8005188:	d1f8      	bne.n	800517c <UART_SetConfig+0x144>
 800518a:	6863      	ldr	r3, [r4, #4]
 800518c:	0858      	lsrs	r0, r3, #1
 800518e:	2380      	movs	r3, #128	; 0x80
 8005190:	025b      	lsls	r3, r3, #9
 8005192:	e7ab      	b.n	80050ec <UART_SetConfig+0xb4>
 8005194:	4291      	cmp	r1, r2
 8005196:	d1ee      	bne.n	8005176 <UART_SetConfig+0x13e>
 8005198:	f7ff f95e 	bl	8004458 <HAL_RCC_GetSysClockFreq>
 800519c:	e7bf      	b.n	800511e <UART_SetConfig+0xe6>
 800519e:	4291      	cmp	r1, r2
 80051a0:	d196      	bne.n	80050d0 <UART_SetConfig+0x98>
 80051a2:	2001      	movs	r0, #1
 80051a4:	2300      	movs	r3, #0
 80051a6:	e7a7      	b.n	80050f8 <UART_SetConfig+0xc0>
 80051a8:	efff69f3 	.word	0xefff69f3
 80051ac:	ffffcfff 	.word	0xffffcfff
 80051b0:	fffff4ff 	.word	0xfffff4ff
 80051b4:	40013800 	.word	0x40013800
 80051b8:	0000ffef 	.word	0x0000ffef
 80051bc:	40021000 	.word	0x40021000
 80051c0:	080070d8 	.word	0x080070d8
 80051c4:	40004400 	.word	0x40004400
 80051c8:	00f42400 	.word	0x00f42400
 80051cc:	40004800 	.word	0x40004800
 80051d0:	40004c00 	.word	0x40004c00
 80051d4:	007a1200 	.word	0x007a1200

080051d8 <UART_AdvFeatureConfig>:
 80051d8:	6a43      	ldr	r3, [r0, #36]	; 0x24
 80051da:	b530      	push	{r4, r5, lr}
 80051dc:	07da      	lsls	r2, r3, #31
 80051de:	d506      	bpl.n	80051ee <UART_AdvFeatureConfig+0x16>
 80051e0:	6801      	ldr	r1, [r0, #0]
 80051e2:	4c28      	ldr	r4, [pc, #160]	; (8005284 <UART_AdvFeatureConfig+0xac>)
 80051e4:	684a      	ldr	r2, [r1, #4]
 80051e6:	4022      	ands	r2, r4
 80051e8:	6a84      	ldr	r4, [r0, #40]	; 0x28
 80051ea:	4322      	orrs	r2, r4
 80051ec:	604a      	str	r2, [r1, #4]
 80051ee:	079a      	lsls	r2, r3, #30
 80051f0:	d506      	bpl.n	8005200 <UART_AdvFeatureConfig+0x28>
 80051f2:	6801      	ldr	r1, [r0, #0]
 80051f4:	4c24      	ldr	r4, [pc, #144]	; (8005288 <UART_AdvFeatureConfig+0xb0>)
 80051f6:	684a      	ldr	r2, [r1, #4]
 80051f8:	4022      	ands	r2, r4
 80051fa:	6ac4      	ldr	r4, [r0, #44]	; 0x2c
 80051fc:	4322      	orrs	r2, r4
 80051fe:	604a      	str	r2, [r1, #4]
 8005200:	075a      	lsls	r2, r3, #29
 8005202:	d506      	bpl.n	8005212 <UART_AdvFeatureConfig+0x3a>
 8005204:	6801      	ldr	r1, [r0, #0]
 8005206:	4c21      	ldr	r4, [pc, #132]	; (800528c <UART_AdvFeatureConfig+0xb4>)
 8005208:	684a      	ldr	r2, [r1, #4]
 800520a:	4022      	ands	r2, r4
 800520c:	6b04      	ldr	r4, [r0, #48]	; 0x30
 800520e:	4322      	orrs	r2, r4
 8005210:	604a      	str	r2, [r1, #4]
 8005212:	071a      	lsls	r2, r3, #28
 8005214:	d506      	bpl.n	8005224 <UART_AdvFeatureConfig+0x4c>
 8005216:	6801      	ldr	r1, [r0, #0]
 8005218:	4c1d      	ldr	r4, [pc, #116]	; (8005290 <UART_AdvFeatureConfig+0xb8>)
 800521a:	684a      	ldr	r2, [r1, #4]
 800521c:	4022      	ands	r2, r4
 800521e:	6b44      	ldr	r4, [r0, #52]	; 0x34
 8005220:	4322      	orrs	r2, r4
 8005222:	604a      	str	r2, [r1, #4]
 8005224:	06da      	lsls	r2, r3, #27
 8005226:	d506      	bpl.n	8005236 <UART_AdvFeatureConfig+0x5e>
 8005228:	6801      	ldr	r1, [r0, #0]
 800522a:	4c1a      	ldr	r4, [pc, #104]	; (8005294 <UART_AdvFeatureConfig+0xbc>)
 800522c:	688a      	ldr	r2, [r1, #8]
 800522e:	4022      	ands	r2, r4
 8005230:	6b84      	ldr	r4, [r0, #56]	; 0x38
 8005232:	4322      	orrs	r2, r4
 8005234:	608a      	str	r2, [r1, #8]
 8005236:	069a      	lsls	r2, r3, #26
 8005238:	d506      	bpl.n	8005248 <UART_AdvFeatureConfig+0x70>
 800523a:	6801      	ldr	r1, [r0, #0]
 800523c:	4c16      	ldr	r4, [pc, #88]	; (8005298 <UART_AdvFeatureConfig+0xc0>)
 800523e:	688a      	ldr	r2, [r1, #8]
 8005240:	4022      	ands	r2, r4
 8005242:	6bc4      	ldr	r4, [r0, #60]	; 0x3c
 8005244:	4322      	orrs	r2, r4
 8005246:	608a      	str	r2, [r1, #8]
 8005248:	065a      	lsls	r2, r3, #25
 800524a:	d510      	bpl.n	800526e <UART_AdvFeatureConfig+0x96>
 800524c:	6801      	ldr	r1, [r0, #0]
 800524e:	4d13      	ldr	r5, [pc, #76]	; (800529c <UART_AdvFeatureConfig+0xc4>)
 8005250:	684a      	ldr	r2, [r1, #4]
 8005252:	6c04      	ldr	r4, [r0, #64]	; 0x40
 8005254:	402a      	ands	r2, r5
 8005256:	4322      	orrs	r2, r4
 8005258:	604a      	str	r2, [r1, #4]
 800525a:	2280      	movs	r2, #128	; 0x80
 800525c:	0352      	lsls	r2, r2, #13
 800525e:	4294      	cmp	r4, r2
 8005260:	d105      	bne.n	800526e <UART_AdvFeatureConfig+0x96>
 8005262:	684a      	ldr	r2, [r1, #4]
 8005264:	4c0e      	ldr	r4, [pc, #56]	; (80052a0 <UART_AdvFeatureConfig+0xc8>)
 8005266:	4022      	ands	r2, r4
 8005268:	6c44      	ldr	r4, [r0, #68]	; 0x44
 800526a:	4322      	orrs	r2, r4
 800526c:	604a      	str	r2, [r1, #4]
 800526e:	061b      	lsls	r3, r3, #24
 8005270:	d506      	bpl.n	8005280 <UART_AdvFeatureConfig+0xa8>
 8005272:	6802      	ldr	r2, [r0, #0]
 8005274:	490b      	ldr	r1, [pc, #44]	; (80052a4 <UART_AdvFeatureConfig+0xcc>)
 8005276:	6853      	ldr	r3, [r2, #4]
 8005278:	400b      	ands	r3, r1
 800527a:	6c81      	ldr	r1, [r0, #72]	; 0x48
 800527c:	430b      	orrs	r3, r1
 800527e:	6053      	str	r3, [r2, #4]
 8005280:	bd30      	pop	{r4, r5, pc}
 8005282:	46c0      	nop			; (mov r8, r8)
 8005284:	fffdffff 	.word	0xfffdffff
 8005288:	fffeffff 	.word	0xfffeffff
 800528c:	fffbffff 	.word	0xfffbffff
 8005290:	ffff7fff 	.word	0xffff7fff
 8005294:	ffffefff 	.word	0xffffefff
 8005298:	ffffdfff 	.word	0xffffdfff
 800529c:	ffefffff 	.word	0xffefffff
 80052a0:	ff9fffff 	.word	0xff9fffff
 80052a4:	fff7ffff 	.word	0xfff7ffff

080052a8 <UART_WaitOnFlagUntilTimeout>:
 80052a8:	b5f7      	push	{r0, r1, r2, r4, r5, r6, r7, lr}
 80052aa:	2780      	movs	r7, #128	; 0x80
 80052ac:	0004      	movs	r4, r0
 80052ae:	000e      	movs	r6, r1
 80052b0:	0015      	movs	r5, r2
 80052b2:	9301      	str	r3, [sp, #4]
 80052b4:	013f      	lsls	r7, r7, #4
 80052b6:	6822      	ldr	r2, [r4, #0]
 80052b8:	69d3      	ldr	r3, [r2, #28]
 80052ba:	4033      	ands	r3, r6
 80052bc:	1b9b      	subs	r3, r3, r6
 80052be:	4259      	negs	r1, r3
 80052c0:	414b      	adcs	r3, r1
 80052c2:	42ab      	cmp	r3, r5
 80052c4:	d001      	beq.n	80052ca <UART_WaitOnFlagUntilTimeout+0x22>
 80052c6:	2000      	movs	r0, #0
 80052c8:	e01c      	b.n	8005304 <UART_WaitOnFlagUntilTimeout+0x5c>
 80052ca:	9b08      	ldr	r3, [sp, #32]
 80052cc:	3301      	adds	r3, #1
 80052ce:	d0f3      	beq.n	80052b8 <UART_WaitOnFlagUntilTimeout+0x10>
 80052d0:	f7fc fc92 	bl	8001bf8 <HAL_GetTick>
 80052d4:	9b01      	ldr	r3, [sp, #4]
 80052d6:	9a08      	ldr	r2, [sp, #32]
 80052d8:	1ac0      	subs	r0, r0, r3
 80052da:	6823      	ldr	r3, [r4, #0]
 80052dc:	4290      	cmp	r0, r2
 80052de:	d801      	bhi.n	80052e4 <UART_WaitOnFlagUntilTimeout+0x3c>
 80052e0:	2a00      	cmp	r2, #0
 80052e2:	d110      	bne.n	8005306 <UART_WaitOnFlagUntilTimeout+0x5e>
 80052e4:	681a      	ldr	r2, [r3, #0]
 80052e6:	4913      	ldr	r1, [pc, #76]	; (8005334 <UART_WaitOnFlagUntilTimeout+0x8c>)
 80052e8:	400a      	ands	r2, r1
 80052ea:	601a      	str	r2, [r3, #0]
 80052ec:	689a      	ldr	r2, [r3, #8]
 80052ee:	31a3      	adds	r1, #163	; 0xa3
 80052f0:	31ff      	adds	r1, #255	; 0xff
 80052f2:	438a      	bics	r2, r1
 80052f4:	609a      	str	r2, [r3, #8]
 80052f6:	2320      	movs	r3, #32
 80052f8:	6763      	str	r3, [r4, #116]	; 0x74
 80052fa:	67a3      	str	r3, [r4, #120]	; 0x78
 80052fc:	2300      	movs	r3, #0
 80052fe:	2003      	movs	r0, #3
 8005300:	3470      	adds	r4, #112	; 0x70
 8005302:	7023      	strb	r3, [r4, #0]
 8005304:	bdfe      	pop	{r1, r2, r3, r4, r5, r6, r7, pc}
 8005306:	2104      	movs	r1, #4
 8005308:	681a      	ldr	r2, [r3, #0]
 800530a:	420a      	tst	r2, r1
 800530c:	d0d3      	beq.n	80052b6 <UART_WaitOnFlagUntilTimeout+0xe>
 800530e:	69da      	ldr	r2, [r3, #28]
 8005310:	423a      	tst	r2, r7
 8005312:	d0d0      	beq.n	80052b6 <UART_WaitOnFlagUntilTimeout+0xe>
 8005314:	621f      	str	r7, [r3, #32]
 8005316:	681a      	ldr	r2, [r3, #0]
 8005318:	4906      	ldr	r1, [pc, #24]	; (8005334 <UART_WaitOnFlagUntilTimeout+0x8c>)
 800531a:	400a      	ands	r2, r1
 800531c:	601a      	str	r2, [r3, #0]
 800531e:	689a      	ldr	r2, [r3, #8]
 8005320:	31a3      	adds	r1, #163	; 0xa3
 8005322:	31ff      	adds	r1, #255	; 0xff
 8005324:	438a      	bics	r2, r1
 8005326:	609a      	str	r2, [r3, #8]
 8005328:	2320      	movs	r3, #32
 800532a:	6763      	str	r3, [r4, #116]	; 0x74
 800532c:	67a3      	str	r3, [r4, #120]	; 0x78
 800532e:	67e3      	str	r3, [r4, #124]	; 0x7c
 8005330:	e7e4      	b.n	80052fc <UART_WaitOnFlagUntilTimeout+0x54>
 8005332:	46c0      	nop			; (mov r8, r8)
 8005334:	fffffe5f 	.word	0xfffffe5f

08005338 <HAL_UART_Transmit>:
 8005338:	b5f0      	push	{r4, r5, r6, r7, lr}
 800533a:	b087      	sub	sp, #28
 800533c:	9305      	str	r3, [sp, #20]
 800533e:	6f43      	ldr	r3, [r0, #116]	; 0x74
 8005340:	0004      	movs	r4, r0
 8005342:	000d      	movs	r5, r1
 8005344:	0017      	movs	r7, r2
 8005346:	2002      	movs	r0, #2
 8005348:	2b20      	cmp	r3, #32
 800534a:	d149      	bne.n	80053e0 <HAL_UART_Transmit+0xa8>
 800534c:	3801      	subs	r0, #1
 800534e:	2900      	cmp	r1, #0
 8005350:	d046      	beq.n	80053e0 <HAL_UART_Transmit+0xa8>
 8005352:	2a00      	cmp	r2, #0
 8005354:	d044      	beq.n	80053e0 <HAL_UART_Transmit+0xa8>
 8005356:	2380      	movs	r3, #128	; 0x80
 8005358:	68a2      	ldr	r2, [r4, #8]
 800535a:	015b      	lsls	r3, r3, #5
 800535c:	429a      	cmp	r2, r3
 800535e:	d104      	bne.n	800536a <HAL_UART_Transmit+0x32>
 8005360:	6923      	ldr	r3, [r4, #16]
 8005362:	2b00      	cmp	r3, #0
 8005364:	d101      	bne.n	800536a <HAL_UART_Transmit+0x32>
 8005366:	4201      	tst	r1, r0
 8005368:	d13a      	bne.n	80053e0 <HAL_UART_Transmit+0xa8>
 800536a:	0023      	movs	r3, r4
 800536c:	3370      	adds	r3, #112	; 0x70
 800536e:	781a      	ldrb	r2, [r3, #0]
 8005370:	2002      	movs	r0, #2
 8005372:	2a01      	cmp	r2, #1
 8005374:	d034      	beq.n	80053e0 <HAL_UART_Transmit+0xa8>
 8005376:	2201      	movs	r2, #1
 8005378:	2600      	movs	r6, #0
 800537a:	701a      	strb	r2, [r3, #0]
 800537c:	2321      	movs	r3, #33	; 0x21
 800537e:	67e6      	str	r6, [r4, #124]	; 0x7c
 8005380:	6763      	str	r3, [r4, #116]	; 0x74
 8005382:	f7fc fc39 	bl	8001bf8 <HAL_GetTick>
 8005386:	0023      	movs	r3, r4
 8005388:	3350      	adds	r3, #80	; 0x50
 800538a:	801f      	strh	r7, [r3, #0]
 800538c:	3302      	adds	r3, #2
 800538e:	9303      	str	r3, [sp, #12]
 8005390:	801f      	strh	r7, [r3, #0]
 8005392:	2380      	movs	r3, #128	; 0x80
 8005394:	68a2      	ldr	r2, [r4, #8]
 8005396:	9004      	str	r0, [sp, #16]
 8005398:	015b      	lsls	r3, r3, #5
 800539a:	429a      	cmp	r2, r3
 800539c:	d104      	bne.n	80053a8 <HAL_UART_Transmit+0x70>
 800539e:	6923      	ldr	r3, [r4, #16]
 80053a0:	42b3      	cmp	r3, r6
 80053a2:	d101      	bne.n	80053a8 <HAL_UART_Transmit+0x70>
 80053a4:	002e      	movs	r6, r5
 80053a6:	001d      	movs	r5, r3
 80053a8:	0023      	movs	r3, r4
 80053aa:	3352      	adds	r3, #82	; 0x52
 80053ac:	881a      	ldrh	r2, [r3, #0]
 80053ae:	9b05      	ldr	r3, [sp, #20]
 80053b0:	b292      	uxth	r2, r2
 80053b2:	9300      	str	r3, [sp, #0]
 80053b4:	9b04      	ldr	r3, [sp, #16]
 80053b6:	2a00      	cmp	r2, #0
 80053b8:	d10a      	bne.n	80053d0 <HAL_UART_Transmit+0x98>
 80053ba:	2140      	movs	r1, #64	; 0x40
 80053bc:	0020      	movs	r0, r4
 80053be:	f7ff ff73 	bl	80052a8 <UART_WaitOnFlagUntilTimeout>
 80053c2:	2800      	cmp	r0, #0
 80053c4:	d10b      	bne.n	80053de <HAL_UART_Transmit+0xa6>
 80053c6:	2320      	movs	r3, #32
 80053c8:	3470      	adds	r4, #112	; 0x70
 80053ca:	6063      	str	r3, [r4, #4]
 80053cc:	7020      	strb	r0, [r4, #0]
 80053ce:	e007      	b.n	80053e0 <HAL_UART_Transmit+0xa8>
 80053d0:	2200      	movs	r2, #0
 80053d2:	2180      	movs	r1, #128	; 0x80
 80053d4:	0020      	movs	r0, r4
 80053d6:	f7ff ff67 	bl	80052a8 <UART_WaitOnFlagUntilTimeout>
 80053da:	2800      	cmp	r0, #0
 80053dc:	d002      	beq.n	80053e4 <HAL_UART_Transmit+0xac>
 80053de:	2003      	movs	r0, #3
 80053e0:	b007      	add	sp, #28
 80053e2:	bdf0      	pop	{r4, r5, r6, r7, pc}
 80053e4:	6822      	ldr	r2, [r4, #0]
 80053e6:	2d00      	cmp	r5, #0
 80053e8:	d10b      	bne.n	8005402 <HAL_UART_Transmit+0xca>
 80053ea:	8833      	ldrh	r3, [r6, #0]
 80053ec:	3602      	adds	r6, #2
 80053ee:	05db      	lsls	r3, r3, #23
 80053f0:	0ddb      	lsrs	r3, r3, #23
 80053f2:	8513      	strh	r3, [r2, #40]	; 0x28
 80053f4:	9b03      	ldr	r3, [sp, #12]
 80053f6:	9a03      	ldr	r2, [sp, #12]
 80053f8:	881b      	ldrh	r3, [r3, #0]
 80053fa:	3b01      	subs	r3, #1
 80053fc:	b29b      	uxth	r3, r3
 80053fe:	8013      	strh	r3, [r2, #0]
 8005400:	e7d2      	b.n	80053a8 <HAL_UART_Transmit+0x70>
 8005402:	782b      	ldrb	r3, [r5, #0]
 8005404:	3501      	adds	r5, #1
 8005406:	8513      	strh	r3, [r2, #40]	; 0x28
 8005408:	e7f4      	b.n	80053f4 <HAL_UART_Transmit+0xbc>
	...

0800540c <UART_CheckIdleState>:
 800540c:	b573      	push	{r0, r1, r4, r5, r6, lr}
 800540e:	2600      	movs	r6, #0
 8005410:	0004      	movs	r4, r0
 8005412:	67c6      	str	r6, [r0, #124]	; 0x7c
 8005414:	f7fc fbf0 	bl	8001bf8 <HAL_GetTick>
 8005418:	6823      	ldr	r3, [r4, #0]
 800541a:	0005      	movs	r5, r0
 800541c:	681b      	ldr	r3, [r3, #0]
 800541e:	071b      	lsls	r3, r3, #28
 8005420:	d415      	bmi.n	800544e <UART_CheckIdleState+0x42>
 8005422:	6823      	ldr	r3, [r4, #0]
 8005424:	681b      	ldr	r3, [r3, #0]
 8005426:	075b      	lsls	r3, r3, #29
 8005428:	d50a      	bpl.n	8005440 <UART_CheckIdleState+0x34>
 800542a:	2180      	movs	r1, #128	; 0x80
 800542c:	4b0e      	ldr	r3, [pc, #56]	; (8005468 <UART_CheckIdleState+0x5c>)
 800542e:	2200      	movs	r2, #0
 8005430:	9300      	str	r3, [sp, #0]
 8005432:	03c9      	lsls	r1, r1, #15
 8005434:	002b      	movs	r3, r5
 8005436:	0020      	movs	r0, r4
 8005438:	f7ff ff36 	bl	80052a8 <UART_WaitOnFlagUntilTimeout>
 800543c:	2800      	cmp	r0, #0
 800543e:	d111      	bne.n	8005464 <UART_CheckIdleState+0x58>
 8005440:	2320      	movs	r3, #32
 8005442:	2000      	movs	r0, #0
 8005444:	6763      	str	r3, [r4, #116]	; 0x74
 8005446:	67a3      	str	r3, [r4, #120]	; 0x78
 8005448:	3470      	adds	r4, #112	; 0x70
 800544a:	7020      	strb	r0, [r4, #0]
 800544c:	e00b      	b.n	8005466 <UART_CheckIdleState+0x5a>
 800544e:	2180      	movs	r1, #128	; 0x80
 8005450:	4b05      	ldr	r3, [pc, #20]	; (8005468 <UART_CheckIdleState+0x5c>)
 8005452:	0032      	movs	r2, r6
 8005454:	9300      	str	r3, [sp, #0]
 8005456:	0389      	lsls	r1, r1, #14
 8005458:	0003      	movs	r3, r0
 800545a:	0020      	movs	r0, r4
 800545c:	f7ff ff24 	bl	80052a8 <UART_WaitOnFlagUntilTimeout>
 8005460:	2800      	cmp	r0, #0
 8005462:	d0de      	beq.n	8005422 <UART_CheckIdleState+0x16>
 8005464:	2003      	movs	r0, #3
 8005466:	bd76      	pop	{r1, r2, r4, r5, r6, pc}
 8005468:	01ffffff 	.word	0x01ffffff

0800546c <HAL_UART_Init>:
 800546c:	b510      	push	{r4, lr}
 800546e:	1e04      	subs	r4, r0, #0
 8005470:	d101      	bne.n	8005476 <HAL_UART_Init+0xa>
 8005472:	2001      	movs	r0, #1
 8005474:	bd10      	pop	{r4, pc}
 8005476:	6f43      	ldr	r3, [r0, #116]	; 0x74
 8005478:	2b00      	cmp	r3, #0
 800547a:	d104      	bne.n	8005486 <HAL_UART_Init+0x1a>
 800547c:	0002      	movs	r2, r0
 800547e:	3270      	adds	r2, #112	; 0x70
 8005480:	7013      	strb	r3, [r2, #0]
 8005482:	f7fc fac9 	bl	8001a18 <HAL_UART_MspInit>
 8005486:	2324      	movs	r3, #36	; 0x24
 8005488:	2101      	movs	r1, #1
 800548a:	6822      	ldr	r2, [r4, #0]
 800548c:	6763      	str	r3, [r4, #116]	; 0x74
 800548e:	6813      	ldr	r3, [r2, #0]
 8005490:	0020      	movs	r0, r4
 8005492:	438b      	bics	r3, r1
 8005494:	6013      	str	r3, [r2, #0]
 8005496:	f7ff fdcf 	bl	8005038 <UART_SetConfig>
 800549a:	2801      	cmp	r0, #1
 800549c:	d0e9      	beq.n	8005472 <HAL_UART_Init+0x6>
 800549e:	6a63      	ldr	r3, [r4, #36]	; 0x24
 80054a0:	2b00      	cmp	r3, #0
 80054a2:	d002      	beq.n	80054aa <HAL_UART_Init+0x3e>
 80054a4:	0020      	movs	r0, r4
 80054a6:	f7ff fe97 	bl	80051d8 <UART_AdvFeatureConfig>
 80054aa:	6823      	ldr	r3, [r4, #0]
 80054ac:	4907      	ldr	r1, [pc, #28]	; (80054cc <HAL_UART_Init+0x60>)
 80054ae:	685a      	ldr	r2, [r3, #4]
 80054b0:	0020      	movs	r0, r4
 80054b2:	400a      	ands	r2, r1
 80054b4:	212a      	movs	r1, #42	; 0x2a
 80054b6:	605a      	str	r2, [r3, #4]
 80054b8:	689a      	ldr	r2, [r3, #8]
 80054ba:	438a      	bics	r2, r1
 80054bc:	609a      	str	r2, [r3, #8]
 80054be:	2201      	movs	r2, #1
 80054c0:	6819      	ldr	r1, [r3, #0]
 80054c2:	430a      	orrs	r2, r1
 80054c4:	601a      	str	r2, [r3, #0]
 80054c6:	f7ff ffa1 	bl	800540c <UART_CheckIdleState>
 80054ca:	e7d3      	b.n	8005474 <HAL_UART_Init+0x8>
 80054cc:	ffffb7ff 	.word	0xffffb7ff

080054d0 <HAL_UARTEx_WakeupCallback>:
 80054d0:	4770      	bx	lr
	...

080054d4 <USB_EnableGlobalInt>:
 80054d4:	2200      	movs	r2, #0
 80054d6:	4903      	ldr	r1, [pc, #12]	; (80054e4 <USB_EnableGlobalInt+0x10>)
 80054d8:	1d83      	adds	r3, r0, #6
 80054da:	3002      	adds	r0, #2
 80054dc:	87da      	strh	r2, [r3, #62]	; 0x3e
 80054de:	87c1      	strh	r1, [r0, #62]	; 0x3e
 80054e0:	0010      	movs	r0, r2
 80054e2:	4770      	bx	lr
 80054e4:	ffffbf80 	.word	0xffffbf80

080054e8 <USB_DisableGlobalInt>:
 80054e8:	3002      	adds	r0, #2
 80054ea:	8fc3      	ldrh	r3, [r0, #62]	; 0x3e
 80054ec:	4a02      	ldr	r2, [pc, #8]	; (80054f8 <USB_DisableGlobalInt+0x10>)
 80054ee:	4013      	ands	r3, r2
 80054f0:	87c3      	strh	r3, [r0, #62]	; 0x3e
 80054f2:	2000      	movs	r0, #0
 80054f4:	4770      	bx	lr
 80054f6:	46c0      	nop			; (mov r8, r8)
 80054f8:	0000407f 	.word	0x0000407f

080054fc <USB_DevInit>:
 80054fc:	b084      	sub	sp, #16
 80054fe:	9202      	str	r2, [sp, #8]
 8005500:	2201      	movs	r2, #1
 8005502:	9303      	str	r3, [sp, #12]
 8005504:	1c83      	adds	r3, r0, #2
 8005506:	87da      	strh	r2, [r3, #62]	; 0x3e
 8005508:	2200      	movs	r2, #0
 800550a:	87da      	strh	r2, [r3, #62]	; 0x3e
 800550c:	1d83      	adds	r3, r0, #6
 800550e:	3050      	adds	r0, #80	; 0x50
 8005510:	87da      	strh	r2, [r3, #62]	; 0x3e
 8005512:	9101      	str	r1, [sp, #4]
 8005514:	8002      	strh	r2, [r0, #0]
 8005516:	0010      	movs	r0, r2
 8005518:	b004      	add	sp, #16
 800551a:	4770      	bx	lr

0800551c <USB_ActivateEndpoint>:
 800551c:	b5f7      	push	{r0, r1, r2, r4, r5, r6, r7, lr}
 800551e:	780d      	ldrb	r5, [r1, #0]
 8005520:	4a89      	ldr	r2, [pc, #548]	; (8005748 <USB_ActivateEndpoint+0x22c>)
 8005522:	00ad      	lsls	r5, r5, #2
 8005524:	1945      	adds	r5, r0, r5
 8005526:	882c      	ldrh	r4, [r5, #0]
 8005528:	0003      	movs	r3, r0
 800552a:	4014      	ands	r4, r2
 800552c:	2201      	movs	r2, #1
 800552e:	78c8      	ldrb	r0, [r1, #3]
 8005530:	4694      	mov	ip, r2
 8005532:	2803      	cmp	r0, #3
 8005534:	d808      	bhi.n	8005548 <USB_ActivateEndpoint+0x2c>
 8005536:	f7fa fdf1 	bl	800011c <__gnu_thumb1_case_uqi>
 800553a:	4702      	.short	0x4702
 800553c:	4405      	.short	0x4405
 800553e:	2280      	movs	r2, #128	; 0x80
 8005540:	0092      	lsls	r2, r2, #2
 8005542:	4314      	orrs	r4, r2
 8005544:	2200      	movs	r2, #0
 8005546:	4694      	mov	ip, r2
 8005548:	001e      	movs	r6, r3
 800554a:	4a80      	ldr	r2, [pc, #512]	; (800574c <USB_ActivateEndpoint+0x230>)
 800554c:	4f80      	ldr	r7, [pc, #512]	; (8005750 <USB_ActivateEndpoint+0x234>)
 800554e:	4314      	orrs	r4, r2
 8005550:	b2a4      	uxth	r4, r4
 8005552:	802c      	strh	r4, [r5, #0]
 8005554:	780d      	ldrb	r5, [r1, #0]
 8005556:	3650      	adds	r6, #80	; 0x50
 8005558:	00ac      	lsls	r4, r5, #2
 800555a:	191c      	adds	r4, r3, r4
 800555c:	8820      	ldrh	r0, [r4, #0]
 800555e:	4038      	ands	r0, r7
 8005560:	4328      	orrs	r0, r5
 8005562:	4310      	orrs	r0, r2
 8005564:	b280      	uxth	r0, r0
 8005566:	8020      	strh	r0, [r4, #0]
 8005568:	7b0d      	ldrb	r5, [r1, #12]
 800556a:	7808      	ldrb	r0, [r1, #0]
 800556c:	003c      	movs	r4, r7
 800556e:	2d00      	cmp	r5, #0
 8005570:	d171      	bne.n	8005656 <USB_ActivateEndpoint+0x13a>
 8005572:	00c0      	lsls	r0, r0, #3
 8005574:	18c0      	adds	r0, r0, r3
 8005576:	88cd      	ldrh	r5, [r1, #6]
 8005578:	9001      	str	r0, [sp, #4]
 800557a:	7848      	ldrb	r0, [r1, #1]
 800557c:	086d      	lsrs	r5, r5, #1
 800557e:	006d      	lsls	r5, r5, #1
 8005580:	2800      	cmp	r0, #0
 8005582:	d026      	beq.n	80055d2 <USB_ActivateEndpoint+0xb6>
 8005584:	8834      	ldrh	r4, [r6, #0]
 8005586:	9801      	ldr	r0, [sp, #4]
 8005588:	1820      	adds	r0, r4, r0
 800558a:	2480      	movs	r4, #128	; 0x80
 800558c:	00e4      	lsls	r4, r4, #3
 800558e:	1900      	adds	r0, r0, r4
 8005590:	8005      	strh	r5, [r0, #0]
 8005592:	7808      	ldrb	r0, [r1, #0]
 8005594:	0080      	lsls	r0, r0, #2
 8005596:	1818      	adds	r0, r3, r0
 8005598:	8804      	ldrh	r4, [r0, #0]
 800559a:	0664      	lsls	r4, r4, #25
 800559c:	d504      	bpl.n	80055a8 <USB_ActivateEndpoint+0x8c>
 800559e:	8804      	ldrh	r4, [r0, #0]
 80055a0:	4027      	ands	r7, r4
 80055a2:	4c6c      	ldr	r4, [pc, #432]	; (8005754 <USB_ActivateEndpoint+0x238>)
 80055a4:	4327      	orrs	r7, r4
 80055a6:	8007      	strh	r7, [r0, #0]
 80055a8:	7808      	ldrb	r0, [r1, #0]
 80055aa:	78c9      	ldrb	r1, [r1, #3]
 80055ac:	0080      	lsls	r0, r0, #2
 80055ae:	181b      	adds	r3, r3, r0
 80055b0:	4869      	ldr	r0, [pc, #420]	; (8005758 <USB_ActivateEndpoint+0x23c>)
 80055b2:	2901      	cmp	r1, #1
 80055b4:	d00a      	beq.n	80055cc <USB_ActivateEndpoint+0xb0>
 80055b6:	8819      	ldrh	r1, [r3, #0]
 80055b8:	4008      	ands	r0, r1
 80055ba:	2120      	movs	r1, #32
 80055bc:	4041      	eors	r1, r0
 80055be:	430a      	orrs	r2, r1
 80055c0:	e095      	b.n	80056ee <USB_ActivateEndpoint+0x1d2>
 80055c2:	22c0      	movs	r2, #192	; 0xc0
 80055c4:	00d2      	lsls	r2, r2, #3
 80055c6:	e7bc      	b.n	8005542 <USB_ActivateEndpoint+0x26>
 80055c8:	2280      	movs	r2, #128	; 0x80
 80055ca:	e7fb      	b.n	80055c4 <USB_ActivateEndpoint+0xa8>
 80055cc:	8819      	ldrh	r1, [r3, #0]
 80055ce:	4001      	ands	r1, r0
 80055d0:	e7f5      	b.n	80055be <USB_ActivateEndpoint+0xa2>
 80055d2:	8837      	ldrh	r7, [r6, #0]
 80055d4:	9801      	ldr	r0, [sp, #4]
 80055d6:	1838      	adds	r0, r7, r0
 80055d8:	4f60      	ldr	r7, [pc, #384]	; (800575c <USB_ActivateEndpoint+0x240>)
 80055da:	19c0      	adds	r0, r0, r7
 80055dc:	8005      	strh	r5, [r0, #0]
 80055de:	7808      	ldrb	r0, [r1, #0]
 80055e0:	8835      	ldrh	r5, [r6, #0]
 80055e2:	00c0      	lsls	r0, r0, #3
 80055e4:	4e5e      	ldr	r6, [pc, #376]	; (8005760 <USB_ActivateEndpoint+0x244>)
 80055e6:	18c0      	adds	r0, r0, r3
 80055e8:	1980      	adds	r0, r0, r6
 80055ea:	1940      	adds	r0, r0, r5
 80055ec:	690d      	ldr	r5, [r1, #16]
 80055ee:	2d00      	cmp	r5, #0
 80055f0:	d11c      	bne.n	800562c <USB_ActivateEndpoint+0x110>
 80055f2:	8805      	ldrh	r5, [r0, #0]
 80055f4:	4e5b      	ldr	r6, [pc, #364]	; (8005764 <USB_ActivateEndpoint+0x248>)
 80055f6:	4035      	ands	r5, r6
 80055f8:	2680      	movs	r6, #128	; 0x80
 80055fa:	8005      	strh	r5, [r0, #0]
 80055fc:	8805      	ldrh	r5, [r0, #0]
 80055fe:	0236      	lsls	r6, r6, #8
 8005600:	4335      	orrs	r5, r6
 8005602:	8005      	strh	r5, [r0, #0]
 8005604:	7808      	ldrb	r0, [r1, #0]
 8005606:	0080      	lsls	r0, r0, #2
 8005608:	1818      	adds	r0, r3, r0
 800560a:	8805      	ldrh	r5, [r0, #0]
 800560c:	046d      	lsls	r5, r5, #17
 800560e:	d504      	bpl.n	800561a <USB_ActivateEndpoint+0xfe>
 8005610:	8805      	ldrh	r5, [r0, #0]
 8005612:	402c      	ands	r4, r5
 8005614:	4d54      	ldr	r5, [pc, #336]	; (8005768 <USB_ActivateEndpoint+0x24c>)
 8005616:	432c      	orrs	r4, r5
 8005618:	8004      	strh	r4, [r0, #0]
 800561a:	7809      	ldrb	r1, [r1, #0]
 800561c:	4853      	ldr	r0, [pc, #332]	; (800576c <USB_ActivateEndpoint+0x250>)
 800561e:	0089      	lsls	r1, r1, #2
 8005620:	185b      	adds	r3, r3, r1
 8005622:	8819      	ldrh	r1, [r3, #0]
 8005624:	4008      	ands	r0, r1
 8005626:	21c0      	movs	r1, #192	; 0xc0
 8005628:	0189      	lsls	r1, r1, #6
 800562a:	e7c7      	b.n	80055bc <USB_ActivateEndpoint+0xa0>
 800562c:	2d3e      	cmp	r5, #62	; 0x3e
 800562e:	d806      	bhi.n	800563e <USB_ActivateEndpoint+0x122>
 8005630:	2701      	movs	r7, #1
 8005632:	086e      	lsrs	r6, r5, #1
 8005634:	403d      	ands	r5, r7
 8005636:	1976      	adds	r6, r6, r5
 8005638:	02b6      	lsls	r6, r6, #10
 800563a:	b2b5      	uxth	r5, r6
 800563c:	e7e1      	b.n	8005602 <USB_ActivateEndpoint+0xe6>
 800563e:	271f      	movs	r7, #31
 8005640:	096e      	lsrs	r6, r5, #5
 8005642:	403d      	ands	r5, r7
 8005644:	426f      	negs	r7, r5
 8005646:	417d      	adcs	r5, r7
 8005648:	1b76      	subs	r6, r6, r5
 800564a:	02b5      	lsls	r5, r6, #10
 800564c:	4e48      	ldr	r6, [pc, #288]	; (8005770 <USB_ActivateEndpoint+0x254>)
 800564e:	432e      	orrs	r6, r5
 8005650:	b2b6      	uxth	r6, r6
 8005652:	8006      	strh	r6, [r0, #0]
 8005654:	e7d6      	b.n	8005604 <USB_ActivateEndpoint+0xe8>
 8005656:	0080      	lsls	r0, r0, #2
 8005658:	1818      	adds	r0, r3, r0
 800565a:	8805      	ldrh	r5, [r0, #0]
 800565c:	403d      	ands	r5, r7
 800565e:	4f45      	ldr	r7, [pc, #276]	; (8005774 <USB_ActivateEndpoint+0x258>)
 8005660:	433d      	orrs	r5, r7
 8005662:	2780      	movs	r7, #128	; 0x80
 8005664:	8005      	strh	r5, [r0, #0]
 8005666:	7808      	ldrb	r0, [r1, #0]
 8005668:	8835      	ldrh	r5, [r6, #0]
 800566a:	00c0      	lsls	r0, r0, #3
 800566c:	00ff      	lsls	r7, r7, #3
 800566e:	18c0      	adds	r0, r0, r3
 8005670:	19c0      	adds	r0, r0, r7
 8005672:	1940      	adds	r0, r0, r5
 8005674:	890d      	ldrh	r5, [r1, #8]
 8005676:	086d      	lsrs	r5, r5, #1
 8005678:	006d      	lsls	r5, r5, #1
 800567a:	8005      	strh	r5, [r0, #0]
 800567c:	7808      	ldrb	r0, [r1, #0]
 800567e:	8835      	ldrh	r5, [r6, #0]
 8005680:	00c0      	lsls	r0, r0, #3
 8005682:	4e36      	ldr	r6, [pc, #216]	; (800575c <USB_ActivateEndpoint+0x240>)
 8005684:	18c0      	adds	r0, r0, r3
 8005686:	1980      	adds	r0, r0, r6
 8005688:	2680      	movs	r6, #128	; 0x80
 800568a:	1940      	adds	r0, r0, r5
 800568c:	894d      	ldrh	r5, [r1, #10]
 800568e:	01f6      	lsls	r6, r6, #7
 8005690:	086d      	lsrs	r5, r5, #1
 8005692:	006d      	lsls	r5, r5, #1
 8005694:	8005      	strh	r5, [r0, #0]
 8005696:	7808      	ldrb	r0, [r1, #0]
 8005698:	784f      	ldrb	r7, [r1, #1]
 800569a:	0080      	lsls	r0, r0, #2
 800569c:	4d2e      	ldr	r5, [pc, #184]	; (8005758 <USB_ActivateEndpoint+0x23c>)
 800569e:	1818      	adds	r0, r3, r0
 80056a0:	2f00      	cmp	r7, #0
 80056a2:	d128      	bne.n	80056f6 <USB_ActivateEndpoint+0x1da>
 80056a4:	8807      	ldrh	r7, [r0, #0]
 80056a6:	4237      	tst	r7, r6
 80056a8:	d004      	beq.n	80056b4 <USB_ActivateEndpoint+0x198>
 80056aa:	8806      	ldrh	r6, [r0, #0]
 80056ac:	4f2e      	ldr	r7, [pc, #184]	; (8005768 <USB_ActivateEndpoint+0x24c>)
 80056ae:	4026      	ands	r6, r4
 80056b0:	433e      	orrs	r6, r7
 80056b2:	8006      	strh	r6, [r0, #0]
 80056b4:	7808      	ldrb	r0, [r1, #0]
 80056b6:	0080      	lsls	r0, r0, #2
 80056b8:	1818      	adds	r0, r3, r0
 80056ba:	8806      	ldrh	r6, [r0, #0]
 80056bc:	0676      	lsls	r6, r6, #25
 80056be:	d504      	bpl.n	80056ca <USB_ActivateEndpoint+0x1ae>
 80056c0:	8806      	ldrh	r6, [r0, #0]
 80056c2:	4034      	ands	r4, r6
 80056c4:	4e23      	ldr	r6, [pc, #140]	; (8005754 <USB_ActivateEndpoint+0x238>)
 80056c6:	4334      	orrs	r4, r6
 80056c8:	8004      	strh	r4, [r0, #0]
 80056ca:	780c      	ldrb	r4, [r1, #0]
 80056cc:	4827      	ldr	r0, [pc, #156]	; (800576c <USB_ActivateEndpoint+0x250>)
 80056ce:	00a4      	lsls	r4, r4, #2
 80056d0:	191c      	adds	r4, r3, r4
 80056d2:	8826      	ldrh	r6, [r4, #0]
 80056d4:	4006      	ands	r6, r0
 80056d6:	20c0      	movs	r0, #192	; 0xc0
 80056d8:	0180      	lsls	r0, r0, #6
 80056da:	4070      	eors	r0, r6
 80056dc:	4310      	orrs	r0, r2
 80056de:	b280      	uxth	r0, r0
 80056e0:	8020      	strh	r0, [r4, #0]
 80056e2:	7809      	ldrb	r1, [r1, #0]
 80056e4:	0089      	lsls	r1, r1, #2
 80056e6:	185b      	adds	r3, r3, r1
 80056e8:	8819      	ldrh	r1, [r3, #0]
 80056ea:	400d      	ands	r5, r1
 80056ec:	432a      	orrs	r2, r5
 80056ee:	b292      	uxth	r2, r2
 80056f0:	4660      	mov	r0, ip
 80056f2:	801a      	strh	r2, [r3, #0]
 80056f4:	bdfe      	pop	{r1, r2, r3, r4, r5, r6, r7, pc}
 80056f6:	8807      	ldrh	r7, [r0, #0]
 80056f8:	4237      	tst	r7, r6
 80056fa:	d004      	beq.n	8005706 <USB_ActivateEndpoint+0x1ea>
 80056fc:	8806      	ldrh	r6, [r0, #0]
 80056fe:	4f1a      	ldr	r7, [pc, #104]	; (8005768 <USB_ActivateEndpoint+0x24c>)
 8005700:	4026      	ands	r6, r4
 8005702:	433e      	orrs	r6, r7
 8005704:	8006      	strh	r6, [r0, #0]
 8005706:	7808      	ldrb	r0, [r1, #0]
 8005708:	0080      	lsls	r0, r0, #2
 800570a:	1818      	adds	r0, r3, r0
 800570c:	8806      	ldrh	r6, [r0, #0]
 800570e:	0676      	lsls	r6, r6, #25
 8005710:	d504      	bpl.n	800571c <USB_ActivateEndpoint+0x200>
 8005712:	8806      	ldrh	r6, [r0, #0]
 8005714:	4034      	ands	r4, r6
 8005716:	4e0f      	ldr	r6, [pc, #60]	; (8005754 <USB_ActivateEndpoint+0x238>)
 8005718:	4334      	orrs	r4, r6
 800571a:	8004      	strh	r4, [r0, #0]
 800571c:	7808      	ldrb	r0, [r1, #0]
 800571e:	78cc      	ldrb	r4, [r1, #3]
 8005720:	0080      	lsls	r0, r0, #2
 8005722:	1818      	adds	r0, r3, r0
 8005724:	2c01      	cmp	r4, #1
 8005726:	d00c      	beq.n	8005742 <USB_ActivateEndpoint+0x226>
 8005728:	8804      	ldrh	r4, [r0, #0]
 800572a:	402c      	ands	r4, r5
 800572c:	2520      	movs	r5, #32
 800572e:	4065      	eors	r5, r4
 8005730:	4315      	orrs	r5, r2
 8005732:	b2ad      	uxth	r5, r5
 8005734:	8005      	strh	r5, [r0, #0]
 8005736:	7809      	ldrb	r1, [r1, #0]
 8005738:	480c      	ldr	r0, [pc, #48]	; (800576c <USB_ActivateEndpoint+0x250>)
 800573a:	0089      	lsls	r1, r1, #2
 800573c:	185b      	adds	r3, r3, r1
 800573e:	8819      	ldrh	r1, [r3, #0]
 8005740:	e745      	b.n	80055ce <USB_ActivateEndpoint+0xb2>
 8005742:	8804      	ldrh	r4, [r0, #0]
 8005744:	4025      	ands	r5, r4
 8005746:	e7f3      	b.n	8005730 <USB_ActivateEndpoint+0x214>
 8005748:	ffff898f 	.word	0xffff898f
 800574c:	ffff8080 	.word	0xffff8080
 8005750:	ffff8f8f 	.word	0xffff8f8f
 8005754:	000080c0 	.word	0x000080c0
 8005758:	ffff8fbf 	.word	0xffff8fbf
 800575c:	00000404 	.word	0x00000404
 8005760:	00000406 	.word	0x00000406
 8005764:	ffff83ff 	.word	0xffff83ff
 8005768:	0000c080 	.word	0x0000c080
 800576c:	ffffbf8f 	.word	0xffffbf8f
 8005770:	ffff8000 	.word	0xffff8000
 8005774:	00008180 	.word	0x00008180

08005778 <USB_DeactivateEndpoint>:
 8005778:	b5f0      	push	{r4, r5, r6, r7, lr}
 800577a:	780b      	ldrb	r3, [r1, #0]
 800577c:	7b0d      	ldrb	r5, [r1, #12]
 800577e:	009b      	lsls	r3, r3, #2
 8005780:	784c      	ldrb	r4, [r1, #1]
 8005782:	18c3      	adds	r3, r0, r3
 8005784:	4a3f      	ldr	r2, [pc, #252]	; (8005884 <USB_DeactivateEndpoint+0x10c>)
 8005786:	2d00      	cmp	r5, #0
 8005788:	d121      	bne.n	80057ce <USB_DeactivateEndpoint+0x56>
 800578a:	2c00      	cmp	r4, #0
 800578c:	d010      	beq.n	80057b0 <USB_DeactivateEndpoint+0x38>
 800578e:	881c      	ldrh	r4, [r3, #0]
 8005790:	0664      	lsls	r4, r4, #25
 8005792:	d505      	bpl.n	80057a0 <USB_DeactivateEndpoint+0x28>
 8005794:	881c      	ldrh	r4, [r3, #0]
 8005796:	4d3c      	ldr	r5, [pc, #240]	; (8005888 <USB_DeactivateEndpoint+0x110>)
 8005798:	402c      	ands	r4, r5
 800579a:	4d3c      	ldr	r5, [pc, #240]	; (800588c <USB_DeactivateEndpoint+0x114>)
 800579c:	432c      	orrs	r4, r5
 800579e:	801c      	strh	r4, [r3, #0]
 80057a0:	780b      	ldrb	r3, [r1, #0]
 80057a2:	493b      	ldr	r1, [pc, #236]	; (8005890 <USB_DeactivateEndpoint+0x118>)
 80057a4:	009b      	lsls	r3, r3, #2
 80057a6:	18c0      	adds	r0, r0, r3
 80057a8:	8803      	ldrh	r3, [r0, #0]
 80057aa:	400b      	ands	r3, r1
 80057ac:	431a      	orrs	r2, r3
 80057ae:	e03f      	b.n	8005830 <USB_DeactivateEndpoint+0xb8>
 80057b0:	881c      	ldrh	r4, [r3, #0]
 80057b2:	0464      	lsls	r4, r4, #17
 80057b4:	d505      	bpl.n	80057c2 <USB_DeactivateEndpoint+0x4a>
 80057b6:	881c      	ldrh	r4, [r3, #0]
 80057b8:	4d33      	ldr	r5, [pc, #204]	; (8005888 <USB_DeactivateEndpoint+0x110>)
 80057ba:	402c      	ands	r4, r5
 80057bc:	4d35      	ldr	r5, [pc, #212]	; (8005894 <USB_DeactivateEndpoint+0x11c>)
 80057be:	432c      	orrs	r4, r5
 80057c0:	801c      	strh	r4, [r3, #0]
 80057c2:	780b      	ldrb	r3, [r1, #0]
 80057c4:	4934      	ldr	r1, [pc, #208]	; (8005898 <USB_DeactivateEndpoint+0x120>)
 80057c6:	009b      	lsls	r3, r3, #2
 80057c8:	18c0      	adds	r0, r0, r3
 80057ca:	8803      	ldrh	r3, [r0, #0]
 80057cc:	e7ed      	b.n	80057aa <USB_DeactivateEndpoint+0x32>
 80057ce:	2680      	movs	r6, #128	; 0x80
 80057d0:	4d2d      	ldr	r5, [pc, #180]	; (8005888 <USB_DeactivateEndpoint+0x110>)
 80057d2:	4f2f      	ldr	r7, [pc, #188]	; (8005890 <USB_DeactivateEndpoint+0x118>)
 80057d4:	01f6      	lsls	r6, r6, #7
 80057d6:	2c00      	cmp	r4, #0
 80057d8:	d12e      	bne.n	8005838 <USB_DeactivateEndpoint+0xc0>
 80057da:	881c      	ldrh	r4, [r3, #0]
 80057dc:	4234      	tst	r4, r6
 80057de:	d004      	beq.n	80057ea <USB_DeactivateEndpoint+0x72>
 80057e0:	881c      	ldrh	r4, [r3, #0]
 80057e2:	4e2c      	ldr	r6, [pc, #176]	; (8005894 <USB_DeactivateEndpoint+0x11c>)
 80057e4:	402c      	ands	r4, r5
 80057e6:	4334      	orrs	r4, r6
 80057e8:	801c      	strh	r4, [r3, #0]
 80057ea:	780b      	ldrb	r3, [r1, #0]
 80057ec:	4c2b      	ldr	r4, [pc, #172]	; (800589c <USB_DeactivateEndpoint+0x124>)
 80057ee:	009b      	lsls	r3, r3, #2
 80057f0:	18c3      	adds	r3, r0, r3
 80057f2:	881e      	ldrh	r6, [r3, #0]
 80057f4:	0676      	lsls	r6, r6, #25
 80057f6:	d504      	bpl.n	8005802 <USB_DeactivateEndpoint+0x8a>
 80057f8:	881e      	ldrh	r6, [r3, #0]
 80057fa:	402e      	ands	r6, r5
 80057fc:	4326      	orrs	r6, r4
 80057fe:	b2b6      	uxth	r6, r6
 8005800:	801e      	strh	r6, [r3, #0]
 8005802:	780b      	ldrb	r3, [r1, #0]
 8005804:	009b      	lsls	r3, r3, #2
 8005806:	18c3      	adds	r3, r0, r3
 8005808:	881e      	ldrh	r6, [r3, #0]
 800580a:	4035      	ands	r5, r6
 800580c:	432c      	orrs	r4, r5
 800580e:	b2a4      	uxth	r4, r4
 8005810:	801c      	strh	r4, [r3, #0]
 8005812:	780c      	ldrb	r4, [r1, #0]
 8005814:	4d20      	ldr	r5, [pc, #128]	; (8005898 <USB_DeactivateEndpoint+0x120>)
 8005816:	00a4      	lsls	r4, r4, #2
 8005818:	1904      	adds	r4, r0, r4
 800581a:	8823      	ldrh	r3, [r4, #0]
 800581c:	402b      	ands	r3, r5
 800581e:	4313      	orrs	r3, r2
 8005820:	b29b      	uxth	r3, r3
 8005822:	8023      	strh	r3, [r4, #0]
 8005824:	780b      	ldrb	r3, [r1, #0]
 8005826:	009b      	lsls	r3, r3, #2
 8005828:	18c0      	adds	r0, r0, r3
 800582a:	8803      	ldrh	r3, [r0, #0]
 800582c:	401f      	ands	r7, r3
 800582e:	433a      	orrs	r2, r7
 8005830:	b292      	uxth	r2, r2
 8005832:	8002      	strh	r2, [r0, #0]
 8005834:	2000      	movs	r0, #0
 8005836:	bdf0      	pop	{r4, r5, r6, r7, pc}
 8005838:	881c      	ldrh	r4, [r3, #0]
 800583a:	4234      	tst	r4, r6
 800583c:	d005      	beq.n	800584a <USB_DeactivateEndpoint+0xd2>
 800583e:	881e      	ldrh	r6, [r3, #0]
 8005840:	4c17      	ldr	r4, [pc, #92]	; (80058a0 <USB_DeactivateEndpoint+0x128>)
 8005842:	402e      	ands	r6, r5
 8005844:	4326      	orrs	r6, r4
 8005846:	b2b6      	uxth	r6, r6
 8005848:	801e      	strh	r6, [r3, #0]
 800584a:	780b      	ldrb	r3, [r1, #0]
 800584c:	009b      	lsls	r3, r3, #2
 800584e:	18c3      	adds	r3, r0, r3
 8005850:	881e      	ldrh	r6, [r3, #0]
 8005852:	0674      	lsls	r4, r6, #25
 8005854:	d504      	bpl.n	8005860 <USB_DeactivateEndpoint+0xe8>
 8005856:	881e      	ldrh	r6, [r3, #0]
 8005858:	4c0c      	ldr	r4, [pc, #48]	; (800588c <USB_DeactivateEndpoint+0x114>)
 800585a:	402e      	ands	r6, r5
 800585c:	4326      	orrs	r6, r4
 800585e:	801e      	strh	r6, [r3, #0]
 8005860:	780b      	ldrb	r3, [r1, #0]
 8005862:	4c0f      	ldr	r4, [pc, #60]	; (80058a0 <USB_DeactivateEndpoint+0x128>)
 8005864:	009b      	lsls	r3, r3, #2
 8005866:	18c3      	adds	r3, r0, r3
 8005868:	881e      	ldrh	r6, [r3, #0]
 800586a:	4035      	ands	r5, r6
 800586c:	432c      	orrs	r4, r5
 800586e:	b2a4      	uxth	r4, r4
 8005870:	801c      	strh	r4, [r3, #0]
 8005872:	780b      	ldrb	r3, [r1, #0]
 8005874:	009b      	lsls	r3, r3, #2
 8005876:	18c3      	adds	r3, r0, r3
 8005878:	881c      	ldrh	r4, [r3, #0]
 800587a:	4027      	ands	r7, r4
 800587c:	4317      	orrs	r7, r2
 800587e:	b2bf      	uxth	r7, r7
 8005880:	801f      	strh	r7, [r3, #0]
 8005882:	e79e      	b.n	80057c2 <USB_DeactivateEndpoint+0x4a>
 8005884:	ffff8080 	.word	0xffff8080
 8005888:	ffff8f8f 	.word	0xffff8f8f
 800588c:	000080c0 	.word	0x000080c0
 8005890:	ffff8fbf 	.word	0xffff8fbf
 8005894:	0000c080 	.word	0x0000c080
 8005898:	ffffbf8f 	.word	0xffffbf8f
 800589c:	ffff80c0 	.word	0xffff80c0
 80058a0:	ffffc080 	.word	0xffffc080

080058a4 <USB_EPSetStall>:
 80058a4:	780b      	ldrb	r3, [r1, #0]
 80058a6:	4a0b      	ldr	r2, [pc, #44]	; (80058d4 <USB_EPSetStall+0x30>)
 80058a8:	009b      	lsls	r3, r3, #2
 80058aa:	18c0      	adds	r0, r0, r3
 80058ac:	784b      	ldrb	r3, [r1, #1]
 80058ae:	2b00      	cmp	r3, #0
 80058b0:	d009      	beq.n	80058c6 <USB_EPSetStall+0x22>
 80058b2:	8803      	ldrh	r3, [r0, #0]
 80058b4:	4908      	ldr	r1, [pc, #32]	; (80058d8 <USB_EPSetStall+0x34>)
 80058b6:	4019      	ands	r1, r3
 80058b8:	2310      	movs	r3, #16
 80058ba:	404b      	eors	r3, r1
 80058bc:	4313      	orrs	r3, r2
 80058be:	b29b      	uxth	r3, r3
 80058c0:	8003      	strh	r3, [r0, #0]
 80058c2:	2000      	movs	r0, #0
 80058c4:	4770      	bx	lr
 80058c6:	8803      	ldrh	r3, [r0, #0]
 80058c8:	4904      	ldr	r1, [pc, #16]	; (80058dc <USB_EPSetStall+0x38>)
 80058ca:	4019      	ands	r1, r3
 80058cc:	2380      	movs	r3, #128	; 0x80
 80058ce:	015b      	lsls	r3, r3, #5
 80058d0:	e7f3      	b.n	80058ba <USB_EPSetStall+0x16>
 80058d2:	46c0      	nop			; (mov r8, r8)
 80058d4:	ffff8080 	.word	0xffff8080
 80058d8:	ffff8fbf 	.word	0xffff8fbf
 80058dc:	ffffbf8f 	.word	0xffffbf8f

080058e0 <USB_EPClearStall>:
 80058e0:	7b0b      	ldrb	r3, [r1, #12]
 80058e2:	b510      	push	{r4, lr}
 80058e4:	2b00      	cmp	r3, #0
 80058e6:	d11c      	bne.n	8005922 <USB_EPClearStall+0x42>
 80058e8:	780b      	ldrb	r3, [r1, #0]
 80058ea:	784a      	ldrb	r2, [r1, #1]
 80058ec:	009b      	lsls	r3, r3, #2
 80058ee:	18c3      	adds	r3, r0, r3
 80058f0:	2a00      	cmp	r2, #0
 80058f2:	d018      	beq.n	8005926 <USB_EPClearStall+0x46>
 80058f4:	881a      	ldrh	r2, [r3, #0]
 80058f6:	0652      	lsls	r2, r2, #25
 80058f8:	d505      	bpl.n	8005906 <USB_EPClearStall+0x26>
 80058fa:	881a      	ldrh	r2, [r3, #0]
 80058fc:	4c13      	ldr	r4, [pc, #76]	; (800594c <USB_EPClearStall+0x6c>)
 80058fe:	4022      	ands	r2, r4
 8005900:	4c13      	ldr	r4, [pc, #76]	; (8005950 <USB_EPClearStall+0x70>)
 8005902:	4322      	orrs	r2, r4
 8005904:	801a      	strh	r2, [r3, #0]
 8005906:	78cb      	ldrb	r3, [r1, #3]
 8005908:	2b01      	cmp	r3, #1
 800590a:	d00a      	beq.n	8005922 <USB_EPClearStall+0x42>
 800590c:	780b      	ldrb	r3, [r1, #0]
 800590e:	4a11      	ldr	r2, [pc, #68]	; (8005954 <USB_EPClearStall+0x74>)
 8005910:	009b      	lsls	r3, r3, #2
 8005912:	18c0      	adds	r0, r0, r3
 8005914:	8803      	ldrh	r3, [r0, #0]
 8005916:	401a      	ands	r2, r3
 8005918:	2320      	movs	r3, #32
 800591a:	4053      	eors	r3, r2
 800591c:	4a0e      	ldr	r2, [pc, #56]	; (8005958 <USB_EPClearStall+0x78>)
 800591e:	4313      	orrs	r3, r2
 8005920:	8003      	strh	r3, [r0, #0]
 8005922:	2000      	movs	r0, #0
 8005924:	bd10      	pop	{r4, pc}
 8005926:	881a      	ldrh	r2, [r3, #0]
 8005928:	0452      	lsls	r2, r2, #17
 800592a:	d505      	bpl.n	8005938 <USB_EPClearStall+0x58>
 800592c:	881a      	ldrh	r2, [r3, #0]
 800592e:	4c07      	ldr	r4, [pc, #28]	; (800594c <USB_EPClearStall+0x6c>)
 8005930:	4022      	ands	r2, r4
 8005932:	4c0a      	ldr	r4, [pc, #40]	; (800595c <USB_EPClearStall+0x7c>)
 8005934:	4322      	orrs	r2, r4
 8005936:	801a      	strh	r2, [r3, #0]
 8005938:	780b      	ldrb	r3, [r1, #0]
 800593a:	4a09      	ldr	r2, [pc, #36]	; (8005960 <USB_EPClearStall+0x80>)
 800593c:	009b      	lsls	r3, r3, #2
 800593e:	18c0      	adds	r0, r0, r3
 8005940:	8803      	ldrh	r3, [r0, #0]
 8005942:	401a      	ands	r2, r3
 8005944:	23c0      	movs	r3, #192	; 0xc0
 8005946:	019b      	lsls	r3, r3, #6
 8005948:	e7e7      	b.n	800591a <USB_EPClearStall+0x3a>
 800594a:	46c0      	nop			; (mov r8, r8)
 800594c:	ffff8f8f 	.word	0xffff8f8f
 8005950:	000080c0 	.word	0x000080c0
 8005954:	ffff8fbf 	.word	0xffff8fbf
 8005958:	00008080 	.word	0x00008080
 800595c:	0000c080 	.word	0x0000c080
 8005960:	ffffbf8f 	.word	0xffffbf8f

08005964 <USB_SetDevAddress>:
 8005964:	2900      	cmp	r1, #0
 8005966:	d102      	bne.n	800596e <USB_SetDevAddress+0xa>
 8005968:	2380      	movs	r3, #128	; 0x80
 800596a:	304c      	adds	r0, #76	; 0x4c
 800596c:	8003      	strh	r3, [r0, #0]
 800596e:	2000      	movs	r0, #0
 8005970:	4770      	bx	lr

08005972 <USB_DevConnect>:
 8005972:	2280      	movs	r2, #128	; 0x80
 8005974:	3058      	adds	r0, #88	; 0x58
 8005976:	8803      	ldrh	r3, [r0, #0]
 8005978:	0212      	lsls	r2, r2, #8
 800597a:	4313      	orrs	r3, r2
 800597c:	8003      	strh	r3, [r0, #0]
 800597e:	2000      	movs	r0, #0
 8005980:	4770      	bx	lr

08005982 <USB_ReadInterrupts>:
 8005982:	3006      	adds	r0, #6
 8005984:	8fc0      	ldrh	r0, [r0, #62]	; 0x3e
 8005986:	b280      	uxth	r0, r0
 8005988:	4770      	bx	lr

0800598a <USB_WritePMA>:
 800598a:	b530      	push	{r4, r5, lr}
 800598c:	2480      	movs	r4, #128	; 0x80
 800598e:	00e4      	lsls	r4, r4, #3
 8005990:	1912      	adds	r2, r2, r4
 8005992:	3301      	adds	r3, #1
 8005994:	1880      	adds	r0, r0, r2
 8005996:	085b      	lsrs	r3, r3, #1
 8005998:	1a40      	subs	r0, r0, r1
 800599a:	1844      	adds	r4, r0, r1
 800599c:	2b00      	cmp	r3, #0
 800599e:	d100      	bne.n	80059a2 <USB_WritePMA+0x18>
 80059a0:	bd30      	pop	{r4, r5, pc}
 80059a2:	784a      	ldrb	r2, [r1, #1]
 80059a4:	780d      	ldrb	r5, [r1, #0]
 80059a6:	0212      	lsls	r2, r2, #8
 80059a8:	432a      	orrs	r2, r5
 80059aa:	8022      	strh	r2, [r4, #0]
 80059ac:	3b01      	subs	r3, #1
 80059ae:	3102      	adds	r1, #2
 80059b0:	e7f3      	b.n	800599a <USB_WritePMA+0x10>
	...

080059b4 <USB_EPStartXfer>:
 80059b4:	b5f7      	push	{r0, r1, r2, r4, r5, r6, r7, lr}
 80059b6:	000c      	movs	r4, r1
 80059b8:	7849      	ldrb	r1, [r1, #1]
 80059ba:	0005      	movs	r5, r0
 80059bc:	7b20      	ldrb	r0, [r4, #12]
 80059be:	2901      	cmp	r1, #1
 80059c0:	d000      	beq.n	80059c4 <USB_EPStartXfer+0x10>
 80059c2:	e1a1      	b.n	8005d08 <USB_EPStartXfer+0x354>
 80059c4:	6927      	ldr	r7, [r4, #16]
 80059c6:	69a6      	ldr	r6, [r4, #24]
 80059c8:	42be      	cmp	r6, r7
 80059ca:	d900      	bls.n	80059ce <USB_EPStartXfer+0x1a>
 80059cc:	003e      	movs	r6, r7
 80059ce:	6961      	ldr	r1, [r4, #20]
 80059d0:	2800      	cmp	r0, #0
 80059d2:	d11d      	bne.n	8005a10 <USB_EPStartXfer+0x5c>
 80059d4:	b2b6      	uxth	r6, r6
 80059d6:	88e2      	ldrh	r2, [r4, #6]
 80059d8:	0033      	movs	r3, r6
 80059da:	0028      	movs	r0, r5
 80059dc:	f7ff ffd5 	bl	800598a <USB_WritePMA>
 80059e0:	002b      	movs	r3, r5
 80059e2:	4abe      	ldr	r2, [pc, #760]	; (8005cdc <USB_EPStartXfer+0x328>)
 80059e4:	3350      	adds	r3, #80	; 0x50
 80059e6:	8819      	ldrh	r1, [r3, #0]
 80059e8:	7823      	ldrb	r3, [r4, #0]
 80059ea:	18aa      	adds	r2, r5, r2
 80059ec:	00db      	lsls	r3, r3, #3
 80059ee:	1852      	adds	r2, r2, r1
 80059f0:	189b      	adds	r3, r3, r2
 80059f2:	801e      	strh	r6, [r3, #0]
 80059f4:	7823      	ldrb	r3, [r4, #0]
 80059f6:	4aba      	ldr	r2, [pc, #744]	; (8005ce0 <USB_EPStartXfer+0x32c>)
 80059f8:	009b      	lsls	r3, r3, #2
 80059fa:	18ed      	adds	r5, r5, r3
 80059fc:	882b      	ldrh	r3, [r5, #0]
 80059fe:	401a      	ands	r2, r3
 8005a00:	2330      	movs	r3, #48	; 0x30
 8005a02:	4053      	eors	r3, r2
 8005a04:	4ab7      	ldr	r2, [pc, #732]	; (8005ce4 <USB_EPStartXfer+0x330>)
 8005a06:	4313      	orrs	r3, r2
 8005a08:	b29b      	uxth	r3, r3
 8005a0a:	2000      	movs	r0, #0
 8005a0c:	802b      	strh	r3, [r5, #0]
 8005a0e:	bdfe      	pop	{r1, r2, r3, r4, r5, r6, r7, pc}
 8005a10:	7820      	ldrb	r0, [r4, #0]
 8005a12:	78e3      	ldrb	r3, [r4, #3]
 8005a14:	0082      	lsls	r2, r0, #2
 8005a16:	18aa      	adds	r2, r5, r2
 8005a18:	2b02      	cmp	r3, #2
 8005a1a:	d000      	beq.n	8005a1e <USB_EPStartXfer+0x6a>
 8005a1c:	e12f      	b.n	8005c7e <USB_EPStartXfer+0x2ca>
 8005a1e:	6a23      	ldr	r3, [r4, #32]
 8005a20:	8810      	ldrh	r0, [r2, #0]
 8005a22:	429f      	cmp	r7, r3
 8005a24:	d300      	bcc.n	8005a28 <USB_EPStartXfer+0x74>
 8005a26:	e119      	b.n	8005c5c <USB_EPStartXfer+0x2a8>
 8005a28:	4faf      	ldr	r7, [pc, #700]	; (8005ce8 <USB_EPStartXfer+0x334>)
 8005a2a:	1b9b      	subs	r3, r3, r6
 8005a2c:	4038      	ands	r0, r7
 8005a2e:	4faf      	ldr	r7, [pc, #700]	; (8005cec <USB_EPStartXfer+0x338>)
 8005a30:	4338      	orrs	r0, r7
 8005a32:	8010      	strh	r0, [r2, #0]
 8005a34:	7820      	ldrb	r0, [r4, #0]
 8005a36:	6223      	str	r3, [r4, #32]
 8005a38:	0083      	lsls	r3, r0, #2
 8005a3a:	18eb      	adds	r3, r5, r3
 8005a3c:	881f      	ldrh	r7, [r3, #0]
 8005a3e:	b2b3      	uxth	r3, r6
 8005a40:	9301      	str	r3, [sp, #4]
 8005a42:	7862      	ldrb	r2, [r4, #1]
 8005a44:	067b      	lsls	r3, r7, #25
 8005a46:	d400      	bmi.n	8005a4a <USB_EPStartXfer+0x96>
 8005a48:	e082      	b.n	8005b50 <USB_EPStartXfer+0x19c>
 8005a4a:	2a00      	cmp	r2, #0
 8005a4c:	d14e      	bne.n	8005aec <USB_EPStartXfer+0x138>
 8005a4e:	002a      	movs	r2, r5
 8005a50:	3250      	adds	r2, #80	; 0x50
 8005a52:	8817      	ldrh	r7, [r2, #0]
 8005a54:	4aa6      	ldr	r2, [pc, #664]	; (8005cf0 <USB_EPStartXfer+0x33c>)
 8005a56:	00c0      	lsls	r0, r0, #3
 8005a58:	18aa      	adds	r2, r5, r2
 8005a5a:	19d2      	adds	r2, r2, r7
 8005a5c:	1812      	adds	r2, r2, r0
 8005a5e:	2e00      	cmp	r6, #0
 8005a60:	d131      	bne.n	8005ac6 <USB_EPStartXfer+0x112>
 8005a62:	8810      	ldrh	r0, [r2, #0]
 8005a64:	4fa3      	ldr	r7, [pc, #652]	; (8005cf4 <USB_EPStartXfer+0x340>)
 8005a66:	4038      	ands	r0, r7
 8005a68:	2780      	movs	r7, #128	; 0x80
 8005a6a:	8010      	strh	r0, [r2, #0]
 8005a6c:	8810      	ldrh	r0, [r2, #0]
 8005a6e:	023f      	lsls	r7, r7, #8
 8005a70:	4338      	orrs	r0, r7
 8005a72:	8010      	strh	r0, [r2, #0]
 8005a74:	8962      	ldrh	r2, [r4, #10]
 8005a76:	b2b3      	uxth	r3, r6
 8005a78:	0028      	movs	r0, r5
 8005a7a:	f7ff ff86 	bl	800598a <USB_WritePMA>
 8005a7e:	6963      	ldr	r3, [r4, #20]
 8005a80:	6a22      	ldr	r2, [r4, #32]
 8005a82:	1999      	adds	r1, r3, r6
 8005a84:	6923      	ldr	r3, [r4, #16]
 8005a86:	6161      	str	r1, [r4, #20]
 8005a88:	429a      	cmp	r2, r3
 8005a8a:	d93c      	bls.n	8005b06 <USB_EPStartXfer+0x152>
 8005a8c:	1b92      	subs	r2, r2, r6
 8005a8e:	6222      	str	r2, [r4, #32]
 8005a90:	0032      	movs	r2, r6
 8005a92:	7860      	ldrb	r0, [r4, #1]
 8005a94:	b293      	uxth	r3, r2
 8005a96:	2800      	cmp	r0, #0
 8005a98:	d14d      	bne.n	8005b36 <USB_EPStartXfer+0x182>
 8005a9a:	0028      	movs	r0, r5
 8005a9c:	3050      	adds	r0, #80	; 0x50
 8005a9e:	8807      	ldrh	r7, [r0, #0]
 8005aa0:	488e      	ldr	r0, [pc, #568]	; (8005cdc <USB_EPStartXfer+0x328>)
 8005aa2:	7826      	ldrb	r6, [r4, #0]
 8005aa4:	1828      	adds	r0, r5, r0
 8005aa6:	00f6      	lsls	r6, r6, #3
 8005aa8:	19c0      	adds	r0, r0, r7
 8005aaa:	1830      	adds	r0, r6, r0
 8005aac:	2a00      	cmp	r2, #0
 8005aae:	d12d      	bne.n	8005b0c <USB_EPStartXfer+0x158>
 8005ab0:	8802      	ldrh	r2, [r0, #0]
 8005ab2:	4e90      	ldr	r6, [pc, #576]	; (8005cf4 <USB_EPStartXfer+0x340>)
 8005ab4:	4032      	ands	r2, r6
 8005ab6:	2680      	movs	r6, #128	; 0x80
 8005ab8:	8002      	strh	r2, [r0, #0]
 8005aba:	8802      	ldrh	r2, [r0, #0]
 8005abc:	0236      	lsls	r6, r6, #8
 8005abe:	4332      	orrs	r2, r6
 8005ac0:	8002      	strh	r2, [r0, #0]
 8005ac2:	8922      	ldrh	r2, [r4, #8]
 8005ac4:	e081      	b.n	8005bca <USB_EPStartXfer+0x216>
 8005ac6:	2e3e      	cmp	r6, #62	; 0x3e
 8005ac8:	d806      	bhi.n	8005ad8 <USB_EPStartXfer+0x124>
 8005aca:	2701      	movs	r7, #1
 8005acc:	0870      	lsrs	r0, r6, #1
 8005ace:	4037      	ands	r7, r6
 8005ad0:	19c0      	adds	r0, r0, r7
 8005ad2:	0280      	lsls	r0, r0, #10
 8005ad4:	b280      	uxth	r0, r0
 8005ad6:	e7cc      	b.n	8005a72 <USB_EPStartXfer+0xbe>
 8005ad8:	271f      	movs	r7, #31
 8005ada:	4037      	ands	r7, r6
 8005adc:	427b      	negs	r3, r7
 8005ade:	417b      	adcs	r3, r7
 8005ae0:	0970      	lsrs	r0, r6, #5
 8005ae2:	1ac0      	subs	r0, r0, r3
 8005ae4:	0287      	lsls	r7, r0, #10
 8005ae6:	4884      	ldr	r0, [pc, #528]	; (8005cf8 <USB_EPStartXfer+0x344>)
 8005ae8:	4338      	orrs	r0, r7
 8005aea:	e7f3      	b.n	8005ad4 <USB_EPStartXfer+0x120>
 8005aec:	2a01      	cmp	r2, #1
 8005aee:	d1c1      	bne.n	8005a74 <USB_EPStartXfer+0xc0>
 8005af0:	002a      	movs	r2, r5
 8005af2:	4b7f      	ldr	r3, [pc, #508]	; (8005cf0 <USB_EPStartXfer+0x33c>)
 8005af4:	3250      	adds	r2, #80	; 0x50
 8005af6:	8812      	ldrh	r2, [r2, #0]
 8005af8:	18ef      	adds	r7, r5, r3
 8005afa:	18bf      	adds	r7, r7, r2
 8005afc:	00c0      	lsls	r0, r0, #3
 8005afe:	1838      	adds	r0, r7, r0
 8005b00:	b2b3      	uxth	r3, r6
 8005b02:	8003      	strh	r3, [r0, #0]
 8005b04:	e7b6      	b.n	8005a74 <USB_EPStartXfer+0xc0>
 8005b06:	2300      	movs	r3, #0
 8005b08:	6223      	str	r3, [r4, #32]
 8005b0a:	e7c2      	b.n	8005a92 <USB_EPStartXfer+0xde>
 8005b0c:	2a3e      	cmp	r2, #62	; 0x3e
 8005b0e:	d806      	bhi.n	8005b1e <USB_EPStartXfer+0x16a>
 8005b10:	2701      	movs	r7, #1
 8005b12:	0856      	lsrs	r6, r2, #1
 8005b14:	403a      	ands	r2, r7
 8005b16:	18b6      	adds	r6, r6, r2
 8005b18:	02b6      	lsls	r6, r6, #10
 8005b1a:	b2b2      	uxth	r2, r6
 8005b1c:	e7d0      	b.n	8005ac0 <USB_EPStartXfer+0x10c>
 8005b1e:	271f      	movs	r7, #31
 8005b20:	0956      	lsrs	r6, r2, #5
 8005b22:	403a      	ands	r2, r7
 8005b24:	4257      	negs	r7, r2
 8005b26:	417a      	adcs	r2, r7
 8005b28:	1ab6      	subs	r6, r6, r2
 8005b2a:	02b2      	lsls	r2, r6, #10
 8005b2c:	4e72      	ldr	r6, [pc, #456]	; (8005cf8 <USB_EPStartXfer+0x344>)
 8005b2e:	4316      	orrs	r6, r2
 8005b30:	b2b6      	uxth	r6, r6
 8005b32:	8006      	strh	r6, [r0, #0]
 8005b34:	e7c5      	b.n	8005ac2 <USB_EPStartXfer+0x10e>
 8005b36:	2801      	cmp	r0, #1
 8005b38:	d1c3      	bne.n	8005ac2 <USB_EPStartXfer+0x10e>
 8005b3a:	002a      	movs	r2, r5
 8005b3c:	4867      	ldr	r0, [pc, #412]	; (8005cdc <USB_EPStartXfer+0x328>)
 8005b3e:	3250      	adds	r2, #80	; 0x50
 8005b40:	8816      	ldrh	r6, [r2, #0]
 8005b42:	7822      	ldrb	r2, [r4, #0]
 8005b44:	1828      	adds	r0, r5, r0
 8005b46:	00d2      	lsls	r2, r2, #3
 8005b48:	1980      	adds	r0, r0, r6
 8005b4a:	1812      	adds	r2, r2, r0
 8005b4c:	8013      	strh	r3, [r2, #0]
 8005b4e:	e7b8      	b.n	8005ac2 <USB_EPStartXfer+0x10e>
 8005b50:	2a00      	cmp	r2, #0
 8005b52:	d151      	bne.n	8005bf8 <USB_EPStartXfer+0x244>
 8005b54:	002a      	movs	r2, r5
 8005b56:	4b61      	ldr	r3, [pc, #388]	; (8005cdc <USB_EPStartXfer+0x328>)
 8005b58:	3250      	adds	r2, #80	; 0x50
 8005b5a:	8817      	ldrh	r7, [r2, #0]
 8005b5c:	18ea      	adds	r2, r5, r3
 8005b5e:	19d2      	adds	r2, r2, r7
 8005b60:	00c0      	lsls	r0, r0, #3
 8005b62:	1812      	adds	r2, r2, r0
 8005b64:	2e00      	cmp	r6, #0
 8005b66:	d134      	bne.n	8005bd2 <USB_EPStartXfer+0x21e>
 8005b68:	8810      	ldrh	r0, [r2, #0]
 8005b6a:	4f62      	ldr	r7, [pc, #392]	; (8005cf4 <USB_EPStartXfer+0x340>)
 8005b6c:	4038      	ands	r0, r7
 8005b6e:	2780      	movs	r7, #128	; 0x80
 8005b70:	8010      	strh	r0, [r2, #0]
 8005b72:	8810      	ldrh	r0, [r2, #0]
 8005b74:	023f      	lsls	r7, r7, #8
 8005b76:	4338      	orrs	r0, r7
 8005b78:	8010      	strh	r0, [r2, #0]
 8005b7a:	8922      	ldrh	r2, [r4, #8]
 8005b7c:	b2b3      	uxth	r3, r6
 8005b7e:	0028      	movs	r0, r5
 8005b80:	f7ff ff03 	bl	800598a <USB_WritePMA>
 8005b84:	6963      	ldr	r3, [r4, #20]
 8005b86:	6a22      	ldr	r2, [r4, #32]
 8005b88:	1999      	adds	r1, r3, r6
 8005b8a:	6923      	ldr	r3, [r4, #16]
 8005b8c:	6161      	str	r1, [r4, #20]
 8005b8e:	429a      	cmp	r2, r3
 8005b90:	d93f      	bls.n	8005c12 <USB_EPStartXfer+0x25e>
 8005b92:	1b92      	subs	r2, r2, r6
 8005b94:	6222      	str	r2, [r4, #32]
 8005b96:	0032      	movs	r2, r6
 8005b98:	7860      	ldrb	r0, [r4, #1]
 8005b9a:	b293      	uxth	r3, r2
 8005b9c:	2800      	cmp	r0, #0
 8005b9e:	d150      	bne.n	8005c42 <USB_EPStartXfer+0x28e>
 8005ba0:	0028      	movs	r0, r5
 8005ba2:	3050      	adds	r0, #80	; 0x50
 8005ba4:	8807      	ldrh	r7, [r0, #0]
 8005ba6:	4852      	ldr	r0, [pc, #328]	; (8005cf0 <USB_EPStartXfer+0x33c>)
 8005ba8:	7826      	ldrb	r6, [r4, #0]
 8005baa:	1828      	adds	r0, r5, r0
 8005bac:	00f6      	lsls	r6, r6, #3
 8005bae:	19c0      	adds	r0, r0, r7
 8005bb0:	1830      	adds	r0, r6, r0
 8005bb2:	2a00      	cmp	r2, #0
 8005bb4:	d130      	bne.n	8005c18 <USB_EPStartXfer+0x264>
 8005bb6:	8802      	ldrh	r2, [r0, #0]
 8005bb8:	4e4e      	ldr	r6, [pc, #312]	; (8005cf4 <USB_EPStartXfer+0x340>)
 8005bba:	4032      	ands	r2, r6
 8005bbc:	2680      	movs	r6, #128	; 0x80
 8005bbe:	8002      	strh	r2, [r0, #0]
 8005bc0:	8802      	ldrh	r2, [r0, #0]
 8005bc2:	0236      	lsls	r6, r6, #8
 8005bc4:	4332      	orrs	r2, r6
 8005bc6:	8002      	strh	r2, [r0, #0]
 8005bc8:	8962      	ldrh	r2, [r4, #10]
 8005bca:	0028      	movs	r0, r5
 8005bcc:	f7ff fedd 	bl	800598a <USB_WritePMA>
 8005bd0:	e710      	b.n	80059f4 <USB_EPStartXfer+0x40>
 8005bd2:	2e3e      	cmp	r6, #62	; 0x3e
 8005bd4:	d806      	bhi.n	8005be4 <USB_EPStartXfer+0x230>
 8005bd6:	2701      	movs	r7, #1
 8005bd8:	0870      	lsrs	r0, r6, #1
 8005bda:	4037      	ands	r7, r6
 8005bdc:	19c0      	adds	r0, r0, r7
 8005bde:	0280      	lsls	r0, r0, #10
 8005be0:	b280      	uxth	r0, r0
 8005be2:	e7c9      	b.n	8005b78 <USB_EPStartXfer+0x1c4>
 8005be4:	271f      	movs	r7, #31
 8005be6:	4037      	ands	r7, r6
 8005be8:	427b      	negs	r3, r7
 8005bea:	417b      	adcs	r3, r7
 8005bec:	0970      	lsrs	r0, r6, #5
 8005bee:	1ac0      	subs	r0, r0, r3
 8005bf0:	0287      	lsls	r7, r0, #10
 8005bf2:	4841      	ldr	r0, [pc, #260]	; (8005cf8 <USB_EPStartXfer+0x344>)
 8005bf4:	4338      	orrs	r0, r7
 8005bf6:	e7f3      	b.n	8005be0 <USB_EPStartXfer+0x22c>
 8005bf8:	2a01      	cmp	r2, #1
 8005bfa:	d1be      	bne.n	8005b7a <USB_EPStartXfer+0x1c6>
 8005bfc:	002a      	movs	r2, r5
 8005bfe:	4b37      	ldr	r3, [pc, #220]	; (8005cdc <USB_EPStartXfer+0x328>)
 8005c00:	3250      	adds	r2, #80	; 0x50
 8005c02:	8817      	ldrh	r7, [r2, #0]
 8005c04:	18ea      	adds	r2, r5, r3
 8005c06:	19d2      	adds	r2, r2, r7
 8005c08:	00c0      	lsls	r0, r0, #3
 8005c0a:	1810      	adds	r0, r2, r0
 8005c0c:	b2b3      	uxth	r3, r6
 8005c0e:	8003      	strh	r3, [r0, #0]
 8005c10:	e7b3      	b.n	8005b7a <USB_EPStartXfer+0x1c6>
 8005c12:	2300      	movs	r3, #0
 8005c14:	6223      	str	r3, [r4, #32]
 8005c16:	e7bf      	b.n	8005b98 <USB_EPStartXfer+0x1e4>
 8005c18:	2a3e      	cmp	r2, #62	; 0x3e
 8005c1a:	d806      	bhi.n	8005c2a <USB_EPStartXfer+0x276>
 8005c1c:	2701      	movs	r7, #1
 8005c1e:	0856      	lsrs	r6, r2, #1
 8005c20:	403a      	ands	r2, r7
 8005c22:	18b6      	adds	r6, r6, r2
 8005c24:	02b6      	lsls	r6, r6, #10
 8005c26:	b2b2      	uxth	r2, r6
 8005c28:	e7cd      	b.n	8005bc6 <USB_EPStartXfer+0x212>
 8005c2a:	271f      	movs	r7, #31
 8005c2c:	0956      	lsrs	r6, r2, #5
 8005c2e:	403a      	ands	r2, r7
 8005c30:	4257      	negs	r7, r2
 8005c32:	417a      	adcs	r2, r7
 8005c34:	1ab6      	subs	r6, r6, r2
 8005c36:	02b2      	lsls	r2, r6, #10
 8005c38:	4e2f      	ldr	r6, [pc, #188]	; (8005cf8 <USB_EPStartXfer+0x344>)
 8005c3a:	4316      	orrs	r6, r2
 8005c3c:	b2b6      	uxth	r6, r6
 8005c3e:	8006      	strh	r6, [r0, #0]
 8005c40:	e7c2      	b.n	8005bc8 <USB_EPStartXfer+0x214>
 8005c42:	2801      	cmp	r0, #1
 8005c44:	d1c0      	bne.n	8005bc8 <USB_EPStartXfer+0x214>
 8005c46:	002a      	movs	r2, r5
 8005c48:	4829      	ldr	r0, [pc, #164]	; (8005cf0 <USB_EPStartXfer+0x33c>)
 8005c4a:	3250      	adds	r2, #80	; 0x50
 8005c4c:	8816      	ldrh	r6, [r2, #0]
 8005c4e:	7822      	ldrb	r2, [r4, #0]
 8005c50:	1828      	adds	r0, r5, r0
 8005c52:	00d2      	lsls	r2, r2, #3
 8005c54:	1980      	adds	r0, r0, r6
 8005c56:	1812      	adds	r2, r2, r0
 8005c58:	8013      	strh	r3, [r2, #0]
 8005c5a:	e7b5      	b.n	8005bc8 <USB_EPStartXfer+0x214>
 8005c5c:	4e27      	ldr	r6, [pc, #156]	; (8005cfc <USB_EPStartXfer+0x348>)
 8005c5e:	b29b      	uxth	r3, r3
 8005c60:	4030      	ands	r0, r6
 8005c62:	4e20      	ldr	r6, [pc, #128]	; (8005ce4 <USB_EPStartXfer+0x330>)
 8005c64:	4330      	orrs	r0, r6
 8005c66:	b280      	uxth	r0, r0
 8005c68:	8010      	strh	r0, [r2, #0]
 8005c6a:	002a      	movs	r2, r5
 8005c6c:	481b      	ldr	r0, [pc, #108]	; (8005cdc <USB_EPStartXfer+0x328>)
 8005c6e:	3250      	adds	r2, #80	; 0x50
 8005c70:	8816      	ldrh	r6, [r2, #0]
 8005c72:	7822      	ldrb	r2, [r4, #0]
 8005c74:	1828      	adds	r0, r5, r0
 8005c76:	00d2      	lsls	r2, r2, #3
 8005c78:	1980      	adds	r0, r0, r6
 8005c7a:	1812      	adds	r2, r2, r0
 8005c7c:	e766      	b.n	8005b4c <USB_EPStartXfer+0x198>
 8005c7e:	b2b3      	uxth	r3, r6
 8005c80:	002e      	movs	r6, r5
 8005c82:	8812      	ldrh	r2, [r2, #0]
 8005c84:	3650      	adds	r6, #80	; 0x50
 8005c86:	00c0      	lsls	r0, r0, #3
 8005c88:	8836      	ldrh	r6, [r6, #0]
 8005c8a:	0652      	lsls	r2, r2, #25
 8005c8c:	d515      	bpl.n	8005cba <USB_EPStartXfer+0x306>
 8005c8e:	4a18      	ldr	r2, [pc, #96]	; (8005cf0 <USB_EPStartXfer+0x33c>)
 8005c90:	18aa      	adds	r2, r5, r2
 8005c92:	1992      	adds	r2, r2, r6
 8005c94:	1812      	adds	r2, r2, r0
 8005c96:	8013      	strh	r3, [r2, #0]
 8005c98:	8962      	ldrh	r2, [r4, #10]
 8005c9a:	0028      	movs	r0, r5
 8005c9c:	f7ff fe75 	bl	800598a <USB_WritePMA>
 8005ca0:	7862      	ldrb	r2, [r4, #1]
 8005ca2:	7823      	ldrb	r3, [r4, #0]
 8005ca4:	2a00      	cmp	r2, #0
 8005ca6:	d10f      	bne.n	8005cc8 <USB_EPStartXfer+0x314>
 8005ca8:	009b      	lsls	r3, r3, #2
 8005caa:	18eb      	adds	r3, r5, r3
 8005cac:	490e      	ldr	r1, [pc, #56]	; (8005ce8 <USB_EPStartXfer+0x334>)
 8005cae:	881a      	ldrh	r2, [r3, #0]
 8005cb0:	400a      	ands	r2, r1
 8005cb2:	4913      	ldr	r1, [pc, #76]	; (8005d00 <USB_EPStartXfer+0x34c>)
 8005cb4:	430a      	orrs	r2, r1
 8005cb6:	801a      	strh	r2, [r3, #0]
 8005cb8:	e69c      	b.n	80059f4 <USB_EPStartXfer+0x40>
 8005cba:	4a08      	ldr	r2, [pc, #32]	; (8005cdc <USB_EPStartXfer+0x328>)
 8005cbc:	18aa      	adds	r2, r5, r2
 8005cbe:	1992      	adds	r2, r2, r6
 8005cc0:	1812      	adds	r2, r2, r0
 8005cc2:	8013      	strh	r3, [r2, #0]
 8005cc4:	8922      	ldrh	r2, [r4, #8]
 8005cc6:	e7e8      	b.n	8005c9a <USB_EPStartXfer+0x2e6>
 8005cc8:	2a01      	cmp	r2, #1
 8005cca:	d000      	beq.n	8005cce <USB_EPStartXfer+0x31a>
 8005ccc:	e692      	b.n	80059f4 <USB_EPStartXfer+0x40>
 8005cce:	009b      	lsls	r3, r3, #2
 8005cd0:	18eb      	adds	r3, r5, r3
 8005cd2:	4905      	ldr	r1, [pc, #20]	; (8005ce8 <USB_EPStartXfer+0x334>)
 8005cd4:	881a      	ldrh	r2, [r3, #0]
 8005cd6:	400a      	ands	r2, r1
 8005cd8:	490a      	ldr	r1, [pc, #40]	; (8005d04 <USB_EPStartXfer+0x350>)
 8005cda:	e7eb      	b.n	8005cb4 <USB_EPStartXfer+0x300>
 8005cdc:	00000402 	.word	0x00000402
 8005ce0:	ffff8fbf 	.word	0xffff8fbf
 8005ce4:	ffff8080 	.word	0xffff8080
 8005ce8:	ffff8f8f 	.word	0xffff8f8f
 8005cec:	00008180 	.word	0x00008180
 8005cf0:	00000406 	.word	0x00000406
 8005cf4:	ffff83ff 	.word	0xffff83ff
 8005cf8:	ffff8000 	.word	0xffff8000
 8005cfc:	ffff8e8f 	.word	0xffff8e8f
 8005d00:	000080c0 	.word	0x000080c0
 8005d04:	0000c080 	.word	0x0000c080
 8005d08:	2800      	cmp	r0, #0
 8005d0a:	d11e      	bne.n	8005d4a <USB_EPStartXfer+0x396>
 8005d0c:	69a2      	ldr	r2, [r4, #24]
 8005d0e:	6923      	ldr	r3, [r4, #16]
 8005d10:	429a      	cmp	r2, r3
 8005d12:	d917      	bls.n	8005d44 <USB_EPStartXfer+0x390>
 8005d14:	1ad2      	subs	r2, r2, r3
 8005d16:	61a2      	str	r2, [r4, #24]
 8005d18:	002a      	movs	r2, r5
 8005d1a:	4983      	ldr	r1, [pc, #524]	; (8005f28 <USB_EPStartXfer+0x574>)
 8005d1c:	3250      	adds	r2, #80	; 0x50
 8005d1e:	8810      	ldrh	r0, [r2, #0]
 8005d20:	7822      	ldrb	r2, [r4, #0]
 8005d22:	1869      	adds	r1, r5, r1
 8005d24:	00d2      	lsls	r2, r2, #3
 8005d26:	1809      	adds	r1, r1, r0
 8005d28:	1889      	adds	r1, r1, r2
 8005d2a:	2b00      	cmp	r3, #0
 8005d2c:	d000      	beq.n	8005d30 <USB_EPStartXfer+0x37c>
 8005d2e:	e0d9      	b.n	8005ee4 <USB_EPStartXfer+0x530>
 8005d30:	880b      	ldrh	r3, [r1, #0]
 8005d32:	4a7e      	ldr	r2, [pc, #504]	; (8005f2c <USB_EPStartXfer+0x578>)
 8005d34:	4013      	ands	r3, r2
 8005d36:	2280      	movs	r2, #128	; 0x80
 8005d38:	800b      	strh	r3, [r1, #0]
 8005d3a:	880b      	ldrh	r3, [r1, #0]
 8005d3c:	0212      	lsls	r2, r2, #8
 8005d3e:	4313      	orrs	r3, r2
 8005d40:	800b      	strh	r3, [r1, #0]
 8005d42:	e067      	b.n	8005e14 <USB_EPStartXfer+0x460>
 8005d44:	61a0      	str	r0, [r4, #24]
 8005d46:	0013      	movs	r3, r2
 8005d48:	e7e6      	b.n	8005d18 <USB_EPStartXfer+0x364>
 8005d4a:	78e3      	ldrb	r3, [r4, #3]
 8005d4c:	2b02      	cmp	r3, #2
 8005d4e:	d000      	beq.n	8005d52 <USB_EPStartXfer+0x39e>
 8005d50:	e085      	b.n	8005e5e <USB_EPStartXfer+0x4aa>
 8005d52:	2900      	cmp	r1, #0
 8005d54:	d11e      	bne.n	8005d94 <USB_EPStartXfer+0x3e0>
 8005d56:	002b      	movs	r3, r5
 8005d58:	4a75      	ldr	r2, [pc, #468]	; (8005f30 <USB_EPStartXfer+0x57c>)
 8005d5a:	3350      	adds	r3, #80	; 0x50
 8005d5c:	8819      	ldrh	r1, [r3, #0]
 8005d5e:	7823      	ldrb	r3, [r4, #0]
 8005d60:	18aa      	adds	r2, r5, r2
 8005d62:	00db      	lsls	r3, r3, #3
 8005d64:	1852      	adds	r2, r2, r1
 8005d66:	189a      	adds	r2, r3, r2
 8005d68:	6923      	ldr	r3, [r4, #16]
 8005d6a:	2b00      	cmp	r3, #0
 8005d6c:	d109      	bne.n	8005d82 <USB_EPStartXfer+0x3ce>
 8005d6e:	8813      	ldrh	r3, [r2, #0]
 8005d70:	496e      	ldr	r1, [pc, #440]	; (8005f2c <USB_EPStartXfer+0x578>)
 8005d72:	400b      	ands	r3, r1
 8005d74:	2180      	movs	r1, #128	; 0x80
 8005d76:	8013      	strh	r3, [r2, #0]
 8005d78:	8813      	ldrh	r3, [r2, #0]
 8005d7a:	0209      	lsls	r1, r1, #8
 8005d7c:	430b      	orrs	r3, r1
 8005d7e:	8013      	strh	r3, [r2, #0]
 8005d80:	e008      	b.n	8005d94 <USB_EPStartXfer+0x3e0>
 8005d82:	2b3e      	cmp	r3, #62	; 0x3e
 8005d84:	d81f      	bhi.n	8005dc6 <USB_EPStartXfer+0x412>
 8005d86:	2001      	movs	r0, #1
 8005d88:	0859      	lsrs	r1, r3, #1
 8005d8a:	4003      	ands	r3, r0
 8005d8c:	18c9      	adds	r1, r1, r3
 8005d8e:	0289      	lsls	r1, r1, #10
 8005d90:	b289      	uxth	r1, r1
 8005d92:	8011      	strh	r1, [r2, #0]
 8005d94:	7862      	ldrb	r2, [r4, #1]
 8005d96:	7823      	ldrb	r3, [r4, #0]
 8005d98:	2a00      	cmp	r2, #0
 8005d9a:	d152      	bne.n	8005e42 <USB_EPStartXfer+0x48e>
 8005d9c:	002a      	movs	r2, r5
 8005d9e:	3250      	adds	r2, #80	; 0x50
 8005da0:	8811      	ldrh	r1, [r2, #0]
 8005da2:	4a61      	ldr	r2, [pc, #388]	; (8005f28 <USB_EPStartXfer+0x574>)
 8005da4:	00db      	lsls	r3, r3, #3
 8005da6:	18aa      	adds	r2, r5, r2
 8005da8:	1852      	adds	r2, r2, r1
 8005daa:	18d2      	adds	r2, r2, r3
 8005dac:	6923      	ldr	r3, [r4, #16]
 8005dae:	2b00      	cmp	r3, #0
 8005db0:	d114      	bne.n	8005ddc <USB_EPStartXfer+0x428>
 8005db2:	8813      	ldrh	r3, [r2, #0]
 8005db4:	495d      	ldr	r1, [pc, #372]	; (8005f2c <USB_EPStartXfer+0x578>)
 8005db6:	400b      	ands	r3, r1
 8005db8:	2180      	movs	r1, #128	; 0x80
 8005dba:	8013      	strh	r3, [r2, #0]
 8005dbc:	8813      	ldrh	r3, [r2, #0]
 8005dbe:	0209      	lsls	r1, r1, #8
 8005dc0:	430b      	orrs	r3, r1
 8005dc2:	8013      	strh	r3, [r2, #0]
 8005dc4:	e013      	b.n	8005dee <USB_EPStartXfer+0x43a>
 8005dc6:	201f      	movs	r0, #31
 8005dc8:	0959      	lsrs	r1, r3, #5
 8005dca:	4003      	ands	r3, r0
 8005dcc:	4258      	negs	r0, r3
 8005dce:	4143      	adcs	r3, r0
 8005dd0:	1ac9      	subs	r1, r1, r3
 8005dd2:	4b58      	ldr	r3, [pc, #352]	; (8005f34 <USB_EPStartXfer+0x580>)
 8005dd4:	0289      	lsls	r1, r1, #10
 8005dd6:	430b      	orrs	r3, r1
 8005dd8:	b29b      	uxth	r3, r3
 8005dda:	e7d0      	b.n	8005d7e <USB_EPStartXfer+0x3ca>
 8005ddc:	2b3e      	cmp	r3, #62	; 0x3e
 8005dde:	d825      	bhi.n	8005e2c <USB_EPStartXfer+0x478>
 8005de0:	2001      	movs	r0, #1
 8005de2:	0859      	lsrs	r1, r3, #1
 8005de4:	4003      	ands	r3, r0
 8005de6:	18c9      	adds	r1, r1, r3
 8005de8:	0289      	lsls	r1, r1, #10
 8005dea:	b289      	uxth	r1, r1
 8005dec:	8011      	strh	r1, [r2, #0]
 8005dee:	69e3      	ldr	r3, [r4, #28]
 8005df0:	2b00      	cmp	r3, #0
 8005df2:	d00f      	beq.n	8005e14 <USB_EPStartXfer+0x460>
 8005df4:	7823      	ldrb	r3, [r4, #0]
 8005df6:	4950      	ldr	r1, [pc, #320]	; (8005f38 <USB_EPStartXfer+0x584>)
 8005df8:	009b      	lsls	r3, r3, #2
 8005dfa:	18eb      	adds	r3, r5, r3
 8005dfc:	881a      	ldrh	r2, [r3, #0]
 8005dfe:	400a      	ands	r2, r1
 8005e00:	428a      	cmp	r2, r1
 8005e02:	d001      	beq.n	8005e08 <USB_EPStartXfer+0x454>
 8005e04:	2a00      	cmp	r2, #0
 8005e06:	d105      	bne.n	8005e14 <USB_EPStartXfer+0x460>
 8005e08:	881a      	ldrh	r2, [r3, #0]
 8005e0a:	494c      	ldr	r1, [pc, #304]	; (8005f3c <USB_EPStartXfer+0x588>)
 8005e0c:	400a      	ands	r2, r1
 8005e0e:	494c      	ldr	r1, [pc, #304]	; (8005f40 <USB_EPStartXfer+0x58c>)
 8005e10:	430a      	orrs	r2, r1
 8005e12:	801a      	strh	r2, [r3, #0]
 8005e14:	7823      	ldrb	r3, [r4, #0]
 8005e16:	4a4b      	ldr	r2, [pc, #300]	; (8005f44 <USB_EPStartXfer+0x590>)
 8005e18:	009b      	lsls	r3, r3, #2
 8005e1a:	18ed      	adds	r5, r5, r3
 8005e1c:	882b      	ldrh	r3, [r5, #0]
 8005e1e:	401a      	ands	r2, r3
 8005e20:	23c0      	movs	r3, #192	; 0xc0
 8005e22:	019b      	lsls	r3, r3, #6
 8005e24:	4053      	eors	r3, r2
 8005e26:	4a48      	ldr	r2, [pc, #288]	; (8005f48 <USB_EPStartXfer+0x594>)
 8005e28:	4313      	orrs	r3, r2
 8005e2a:	e5ee      	b.n	8005a0a <USB_EPStartXfer+0x56>
 8005e2c:	201f      	movs	r0, #31
 8005e2e:	0959      	lsrs	r1, r3, #5
 8005e30:	4003      	ands	r3, r0
 8005e32:	4258      	negs	r0, r3
 8005e34:	4143      	adcs	r3, r0
 8005e36:	1ac9      	subs	r1, r1, r3
 8005e38:	4b3e      	ldr	r3, [pc, #248]	; (8005f34 <USB_EPStartXfer+0x580>)
 8005e3a:	0289      	lsls	r1, r1, #10
 8005e3c:	430b      	orrs	r3, r1
 8005e3e:	b29b      	uxth	r3, r3
 8005e40:	e7bf      	b.n	8005dc2 <USB_EPStartXfer+0x40e>
 8005e42:	2a01      	cmp	r2, #1
 8005e44:	d1d3      	bne.n	8005dee <USB_EPStartXfer+0x43a>
 8005e46:	002a      	movs	r2, r5
 8005e48:	4937      	ldr	r1, [pc, #220]	; (8005f28 <USB_EPStartXfer+0x574>)
 8005e4a:	3250      	adds	r2, #80	; 0x50
 8005e4c:	8812      	ldrh	r2, [r2, #0]
 8005e4e:	1869      	adds	r1, r5, r1
 8005e50:	1889      	adds	r1, r1, r2
 8005e52:	6922      	ldr	r2, [r4, #16]
 8005e54:	00db      	lsls	r3, r3, #3
 8005e56:	18cb      	adds	r3, r1, r3
 8005e58:	b292      	uxth	r2, r2
 8005e5a:	801a      	strh	r2, [r3, #0]
 8005e5c:	e7c7      	b.n	8005dee <USB_EPStartXfer+0x43a>
 8005e5e:	2001      	movs	r0, #1
 8005e60:	4283      	cmp	r3, r0
 8005e62:	d000      	beq.n	8005e66 <USB_EPStartXfer+0x4b2>
 8005e64:	e5d3      	b.n	8005a0e <USB_EPStartXfer+0x5a>
 8005e66:	69a2      	ldr	r2, [r4, #24]
 8005e68:	6923      	ldr	r3, [r4, #16]
 8005e6a:	429a      	cmp	r2, r3
 8005e6c:	d923      	bls.n	8005eb6 <USB_EPStartXfer+0x502>
 8005e6e:	1ad2      	subs	r2, r2, r3
 8005e70:	61a2      	str	r2, [r4, #24]
 8005e72:	2900      	cmp	r1, #0
 8005e74:	d113      	bne.n	8005e9e <USB_EPStartXfer+0x4ea>
 8005e76:	002a      	movs	r2, r5
 8005e78:	492d      	ldr	r1, [pc, #180]	; (8005f30 <USB_EPStartXfer+0x57c>)
 8005e7a:	3250      	adds	r2, #80	; 0x50
 8005e7c:	8810      	ldrh	r0, [r2, #0]
 8005e7e:	7822      	ldrb	r2, [r4, #0]
 8005e80:	1869      	adds	r1, r5, r1
 8005e82:	00d2      	lsls	r2, r2, #3
 8005e84:	1809      	adds	r1, r1, r0
 8005e86:	1851      	adds	r1, r2, r1
 8005e88:	2b00      	cmp	r3, #0
 8005e8a:	d118      	bne.n	8005ebe <USB_EPStartXfer+0x50a>
 8005e8c:	880a      	ldrh	r2, [r1, #0]
 8005e8e:	4827      	ldr	r0, [pc, #156]	; (8005f2c <USB_EPStartXfer+0x578>)
 8005e90:	4002      	ands	r2, r0
 8005e92:	2080      	movs	r0, #128	; 0x80
 8005e94:	800a      	strh	r2, [r1, #0]
 8005e96:	880a      	ldrh	r2, [r1, #0]
 8005e98:	0200      	lsls	r0, r0, #8
 8005e9a:	4302      	orrs	r2, r0
 8005e9c:	800a      	strh	r2, [r1, #0]
 8005e9e:	7861      	ldrb	r1, [r4, #1]
 8005ea0:	7822      	ldrb	r2, [r4, #0]
 8005ea2:	2900      	cmp	r1, #0
 8005ea4:	d133      	bne.n	8005f0e <USB_EPStartXfer+0x55a>
 8005ea6:	0029      	movs	r1, r5
 8005ea8:	481f      	ldr	r0, [pc, #124]	; (8005f28 <USB_EPStartXfer+0x574>)
 8005eaa:	3150      	adds	r1, #80	; 0x50
 8005eac:	8809      	ldrh	r1, [r1, #0]
 8005eae:	1828      	adds	r0, r5, r0
 8005eb0:	1841      	adds	r1, r0, r1
 8005eb2:	00d2      	lsls	r2, r2, #3
 8005eb4:	e738      	b.n	8005d28 <USB_EPStartXfer+0x374>
 8005eb6:	2300      	movs	r3, #0
 8005eb8:	61a3      	str	r3, [r4, #24]
 8005eba:	0013      	movs	r3, r2
 8005ebc:	e7d9      	b.n	8005e72 <USB_EPStartXfer+0x4be>
 8005ebe:	2b3e      	cmp	r3, #62	; 0x3e
 8005ec0:	d806      	bhi.n	8005ed0 <USB_EPStartXfer+0x51c>
 8005ec2:	2001      	movs	r0, #1
 8005ec4:	085a      	lsrs	r2, r3, #1
 8005ec6:	4018      	ands	r0, r3
 8005ec8:	1812      	adds	r2, r2, r0
 8005eca:	0292      	lsls	r2, r2, #10
 8005ecc:	b292      	uxth	r2, r2
 8005ece:	e7e5      	b.n	8005e9c <USB_EPStartXfer+0x4e8>
 8005ed0:	201f      	movs	r0, #31
 8005ed2:	4018      	ands	r0, r3
 8005ed4:	4246      	negs	r6, r0
 8005ed6:	4170      	adcs	r0, r6
 8005ed8:	095a      	lsrs	r2, r3, #5
 8005eda:	1a12      	subs	r2, r2, r0
 8005edc:	0290      	lsls	r0, r2, #10
 8005ede:	4a15      	ldr	r2, [pc, #84]	; (8005f34 <USB_EPStartXfer+0x580>)
 8005ee0:	4302      	orrs	r2, r0
 8005ee2:	e7f3      	b.n	8005ecc <USB_EPStartXfer+0x518>
 8005ee4:	2b3e      	cmp	r3, #62	; 0x3e
 8005ee6:	d807      	bhi.n	8005ef8 <USB_EPStartXfer+0x544>
 8005ee8:	2001      	movs	r0, #1
 8005eea:	085a      	lsrs	r2, r3, #1
 8005eec:	4003      	ands	r3, r0
 8005eee:	18d2      	adds	r2, r2, r3
 8005ef0:	0292      	lsls	r2, r2, #10
 8005ef2:	b292      	uxth	r2, r2
 8005ef4:	800a      	strh	r2, [r1, #0]
 8005ef6:	e78d      	b.n	8005e14 <USB_EPStartXfer+0x460>
 8005ef8:	201f      	movs	r0, #31
 8005efa:	095a      	lsrs	r2, r3, #5
 8005efc:	4003      	ands	r3, r0
 8005efe:	4258      	negs	r0, r3
 8005f00:	4143      	adcs	r3, r0
 8005f02:	1ad2      	subs	r2, r2, r3
 8005f04:	4b0b      	ldr	r3, [pc, #44]	; (8005f34 <USB_EPStartXfer+0x580>)
 8005f06:	0292      	lsls	r2, r2, #10
 8005f08:	4313      	orrs	r3, r2
 8005f0a:	b29b      	uxth	r3, r3
 8005f0c:	e718      	b.n	8005d40 <USB_EPStartXfer+0x38c>
 8005f0e:	2901      	cmp	r1, #1
 8005f10:	d000      	beq.n	8005f14 <USB_EPStartXfer+0x560>
 8005f12:	e77f      	b.n	8005e14 <USB_EPStartXfer+0x460>
 8005f14:	0029      	movs	r1, r5
 8005f16:	3150      	adds	r1, #80	; 0x50
 8005f18:	8808      	ldrh	r0, [r1, #0]
 8005f1a:	4903      	ldr	r1, [pc, #12]	; (8005f28 <USB_EPStartXfer+0x574>)
 8005f1c:	00d2      	lsls	r2, r2, #3
 8005f1e:	1869      	adds	r1, r5, r1
 8005f20:	1809      	adds	r1, r1, r0
 8005f22:	1889      	adds	r1, r1, r2
 8005f24:	e7f1      	b.n	8005f0a <USB_EPStartXfer+0x556>
 8005f26:	46c0      	nop			; (mov r8, r8)
 8005f28:	00000406 	.word	0x00000406
 8005f2c:	ffff83ff 	.word	0xffff83ff
 8005f30:	00000402 	.word	0x00000402
 8005f34:	ffff8000 	.word	0xffff8000
 8005f38:	00004040 	.word	0x00004040
 8005f3c:	ffff8f8f 	.word	0xffff8f8f
 8005f40:	000080c0 	.word	0x000080c0
 8005f44:	ffffbf8f 	.word	0xffffbf8f
 8005f48:	00008080 	.word	0x00008080

08005f4c <USB_ReadPMA>:
 8005f4c:	b5f0      	push	{r4, r5, r6, r7, lr}
 8005f4e:	2580      	movs	r5, #128	; 0x80
 8005f50:	085c      	lsrs	r4, r3, #1
 8005f52:	00ed      	lsls	r5, r5, #3
 8005f54:	1952      	adds	r2, r2, r5
 8005f56:	0026      	movs	r6, r4
 8005f58:	000d      	movs	r5, r1
 8005f5a:	1880      	adds	r0, r0, r2
 8005f5c:	1a47      	subs	r7, r0, r1
 8005f5e:	197a      	adds	r2, r7, r5
 8005f60:	2e00      	cmp	r6, #0
 8005f62:	d107      	bne.n	8005f74 <USB_ReadPMA+0x28>
 8005f64:	0064      	lsls	r4, r4, #1
 8005f66:	1900      	adds	r0, r0, r4
 8005f68:	1909      	adds	r1, r1, r4
 8005f6a:	07db      	lsls	r3, r3, #31
 8005f6c:	d501      	bpl.n	8005f72 <USB_ReadPMA+0x26>
 8005f6e:	8803      	ldrh	r3, [r0, #0]
 8005f70:	700b      	strb	r3, [r1, #0]
 8005f72:	bdf0      	pop	{r4, r5, r6, r7, pc}
 8005f74:	8812      	ldrh	r2, [r2, #0]
 8005f76:	3e01      	subs	r6, #1
 8005f78:	b292      	uxth	r2, r2
 8005f7a:	702a      	strb	r2, [r5, #0]
 8005f7c:	0a12      	lsrs	r2, r2, #8
 8005f7e:	706a      	strb	r2, [r5, #1]
 8005f80:	3502      	adds	r5, #2
 8005f82:	e7ec      	b.n	8005f5e <USB_ReadPMA+0x12>

08005f84 <USBD_CDC_EP0_RxReady>:
 8005f84:	23af      	movs	r3, #175	; 0xaf
 8005f86:	009b      	lsls	r3, r3, #2
 8005f88:	58c3      	ldr	r3, [r0, r3]
 8005f8a:	b570      	push	{r4, r5, r6, lr}
 8005f8c:	2b00      	cmp	r3, #0
 8005f8e:	d00e      	beq.n	8005fae <USBD_CDC_EP0_RxReady+0x2a>
 8005f90:	22ae      	movs	r2, #174	; 0xae
 8005f92:	2580      	movs	r5, #128	; 0x80
 8005f94:	0092      	lsls	r2, r2, #2
 8005f96:	5884      	ldr	r4, [r0, r2]
 8005f98:	00ad      	lsls	r5, r5, #2
 8005f9a:	5d60      	ldrb	r0, [r4, r5]
 8005f9c:	28ff      	cmp	r0, #255	; 0xff
 8005f9e:	d006      	beq.n	8005fae <USBD_CDC_EP0_RxReady+0x2a>
 8005fa0:	4a04      	ldr	r2, [pc, #16]	; (8005fb4 <USBD_CDC_EP0_RxReady+0x30>)
 8005fa2:	689b      	ldr	r3, [r3, #8]
 8005fa4:	5ca2      	ldrb	r2, [r4, r2]
 8005fa6:	0021      	movs	r1, r4
 8005fa8:	4798      	blx	r3
 8005faa:	23ff      	movs	r3, #255	; 0xff
 8005fac:	5563      	strb	r3, [r4, r5]
 8005fae:	2000      	movs	r0, #0
 8005fb0:	bd70      	pop	{r4, r5, r6, pc}
 8005fb2:	46c0      	nop			; (mov r8, r8)
 8005fb4:	00000201 	.word	0x00000201

08005fb8 <USBD_CDC_GetFSCfgDesc>:
 8005fb8:	2343      	movs	r3, #67	; 0x43
 8005fba:	8003      	strh	r3, [r0, #0]
 8005fbc:	4800      	ldr	r0, [pc, #0]	; (8005fc0 <USBD_CDC_GetFSCfgDesc+0x8>)
 8005fbe:	4770      	bx	lr
 8005fc0:	20000054 	.word	0x20000054

08005fc4 <USBD_CDC_GetHSCfgDesc>:
 8005fc4:	2343      	movs	r3, #67	; 0x43
 8005fc6:	8003      	strh	r3, [r0, #0]
 8005fc8:	4800      	ldr	r0, [pc, #0]	; (8005fcc <USBD_CDC_GetHSCfgDesc+0x8>)
 8005fca:	4770      	bx	lr
 8005fcc:	20000098 	.word	0x20000098

08005fd0 <USBD_CDC_GetOtherSpeedCfgDesc>:
 8005fd0:	2343      	movs	r3, #67	; 0x43
 8005fd2:	8003      	strh	r3, [r0, #0]
 8005fd4:	4800      	ldr	r0, [pc, #0]	; (8005fd8 <USBD_CDC_GetOtherSpeedCfgDesc+0x8>)
 8005fd6:	4770      	bx	lr
 8005fd8:	200000e8 	.word	0x200000e8

08005fdc <USBD_CDC_GetDeviceQualifierDescriptor>:
 8005fdc:	230a      	movs	r3, #10
 8005fde:	8003      	strh	r3, [r0, #0]
 8005fe0:	4800      	ldr	r0, [pc, #0]	; (8005fe4 <USBD_CDC_GetDeviceQualifierDescriptor+0x8>)
 8005fe2:	4770      	bx	lr
 8005fe4:	200000dc 	.word	0x200000dc

08005fe8 <USBD_CDC_DataOut>:
 8005fe8:	b570      	push	{r4, r5, r6, lr}
 8005fea:	26ae      	movs	r6, #174	; 0xae
 8005fec:	00b6      	lsls	r6, r6, #2
 8005fee:	0004      	movs	r4, r0
 8005ff0:	5985      	ldr	r5, [r0, r6]
 8005ff2:	f000 ff85 	bl	8006f00 <USBD_LL_GetRxDataSize>
 8005ff6:	2383      	movs	r3, #131	; 0x83
 8005ff8:	009b      	lsls	r3, r3, #2
 8005ffa:	50e8      	str	r0, [r5, r3]
 8005ffc:	59a3      	ldr	r3, [r4, r6]
 8005ffe:	2002      	movs	r0, #2
 8006000:	2b00      	cmp	r3, #0
 8006002:	d00a      	beq.n	800601a <USBD_CDC_DataOut+0x32>
 8006004:	2383      	movs	r3, #131	; 0x83
 8006006:	2281      	movs	r2, #129	; 0x81
 8006008:	009b      	lsls	r3, r3, #2
 800600a:	18e9      	adds	r1, r5, r3
 800600c:	33b0      	adds	r3, #176	; 0xb0
 800600e:	58e3      	ldr	r3, [r4, r3]
 8006010:	0092      	lsls	r2, r2, #2
 8006012:	68db      	ldr	r3, [r3, #12]
 8006014:	58a8      	ldr	r0, [r5, r2]
 8006016:	4798      	blx	r3
 8006018:	2000      	movs	r0, #0
 800601a:	bd70      	pop	{r4, r5, r6, pc}

0800601c <USBD_CDC_DataIn>:
 800601c:	23ae      	movs	r3, #174	; 0xae
 800601e:	b5f7      	push	{r0, r1, r2, r4, r5, r6, r7, lr}
 8006020:	009b      	lsls	r3, r3, #2
 8006022:	58c3      	ldr	r3, [r0, r3]
 8006024:	0006      	movs	r6, r0
 8006026:	000f      	movs	r7, r1
 8006028:	9301      	str	r3, [sp, #4]
 800602a:	2002      	movs	r0, #2
 800602c:	2b00      	cmp	r3, #0
 800602e:	d018      	beq.n	8006062 <USBD_CDC_DataIn+0x46>
 8006030:	2514      	movs	r5, #20
 8006032:	434d      	muls	r5, r1
 8006034:	1975      	adds	r5, r6, r5
 8006036:	69e8      	ldr	r0, [r5, #28]
 8006038:	2800      	cmp	r0, #0
 800603a:	d013      	beq.n	8006064 <USBD_CDC_DataIn+0x48>
 800603c:	2228      	movs	r2, #40	; 0x28
 800603e:	23b0      	movs	r3, #176	; 0xb0
 8006040:	434a      	muls	r2, r1
 8006042:	009b      	lsls	r3, r3, #2
 8006044:	58f3      	ldr	r3, [r6, r3]
 8006046:	189b      	adds	r3, r3, r2
 8006048:	6b99      	ldr	r1, [r3, #56]	; 0x38
 800604a:	f7fa f901 	bl	8000250 <__aeabi_uidivmod>
 800604e:	1e0c      	subs	r4, r1, #0
 8006050:	d108      	bne.n	8006064 <USBD_CDC_DataIn+0x48>
 8006052:	61e9      	str	r1, [r5, #28]
 8006054:	000b      	movs	r3, r1
 8006056:	000a      	movs	r2, r1
 8006058:	0030      	movs	r0, r6
 800605a:	0039      	movs	r1, r7
 800605c:	f000 ff30 	bl	8006ec0 <USBD_LL_Transmit>
 8006060:	0020      	movs	r0, r4
 8006062:	bdfe      	pop	{r1, r2, r3, r4, r5, r6, r7, pc}
 8006064:	2385      	movs	r3, #133	; 0x85
 8006066:	2000      	movs	r0, #0
 8006068:	9a01      	ldr	r2, [sp, #4]
 800606a:	009b      	lsls	r3, r3, #2
 800606c:	50d0      	str	r0, [r2, r3]
 800606e:	e7f8      	b.n	8006062 <USBD_CDC_DataIn+0x46>

08006070 <USBD_CDC_Setup>:
 8006070:	23ae      	movs	r3, #174	; 0xae
 8006072:	b5f7      	push	{r0, r1, r2, r4, r5, r6, r7, lr}
 8006074:	009b      	lsls	r3, r3, #2
 8006076:	58c7      	ldr	r7, [r0, r3]
 8006078:	466b      	mov	r3, sp
 800607a:	466a      	mov	r2, sp
 800607c:	000e      	movs	r6, r1
 800607e:	1d59      	adds	r1, r3, #5
 8006080:	2300      	movs	r3, #0
 8006082:	2460      	movs	r4, #96	; 0x60
 8006084:	0005      	movs	r5, r0
 8006086:	1d90      	adds	r0, r2, #6
 8006088:	700b      	strb	r3, [r1, #0]
 800608a:	8003      	strh	r3, [r0, #0]
 800608c:	7833      	ldrb	r3, [r6, #0]
 800608e:	401c      	ands	r4, r3
 8006090:	d029      	beq.n	80060e6 <USBD_CDC_Setup+0x76>
 8006092:	2c20      	cmp	r4, #32
 8006094:	d142      	bne.n	800611c <USBD_CDC_Setup+0xac>
 8006096:	88f4      	ldrh	r4, [r6, #6]
 8006098:	7870      	ldrb	r0, [r6, #1]
 800609a:	2c00      	cmp	r4, #0
 800609c:	d01b      	beq.n	80060d6 <USBD_CDC_Setup+0x66>
 800609e:	b25b      	sxtb	r3, r3
 80060a0:	2b00      	cmp	r3, #0
 80060a2:	da0c      	bge.n	80060be <USBD_CDC_Setup+0x4e>
 80060a4:	23af      	movs	r3, #175	; 0xaf
 80060a6:	009b      	lsls	r3, r3, #2
 80060a8:	58eb      	ldr	r3, [r5, r3]
 80060aa:	0022      	movs	r2, r4
 80060ac:	0039      	movs	r1, r7
 80060ae:	689b      	ldr	r3, [r3, #8]
 80060b0:	4798      	blx	r3
 80060b2:	0039      	movs	r1, r7
 80060b4:	88f2      	ldrh	r2, [r6, #6]
 80060b6:	0028      	movs	r0, r5
 80060b8:	f000 fc9a 	bl	80069f0 <USBD_CtlSendData>
 80060bc:	e009      	b.n	80060d2 <USBD_CDC_Setup+0x62>
 80060be:	2380      	movs	r3, #128	; 0x80
 80060c0:	009b      	lsls	r3, r3, #2
 80060c2:	54f8      	strb	r0, [r7, r3]
 80060c4:	4b18      	ldr	r3, [pc, #96]	; (8006128 <USBD_CDC_Setup+0xb8>)
 80060c6:	0022      	movs	r2, r4
 80060c8:	54fc      	strb	r4, [r7, r3]
 80060ca:	0039      	movs	r1, r7
 80060cc:	0028      	movs	r0, r5
 80060ce:	f000 fca5 	bl	8006a1c <USBD_CtlPrepareRx>
 80060d2:	2000      	movs	r0, #0
 80060d4:	bdfe      	pop	{r1, r2, r3, r4, r5, r6, r7, pc}
 80060d6:	23af      	movs	r3, #175	; 0xaf
 80060d8:	009b      	lsls	r3, r3, #2
 80060da:	58eb      	ldr	r3, [r5, r3]
 80060dc:	0022      	movs	r2, r4
 80060de:	689b      	ldr	r3, [r3, #8]
 80060e0:	0031      	movs	r1, r6
 80060e2:	4798      	blx	r3
 80060e4:	e7f5      	b.n	80060d2 <USBD_CDC_Setup+0x62>
 80060e6:	7877      	ldrb	r7, [r6, #1]
 80060e8:	2f0a      	cmp	r7, #10
 80060ea:	d00b      	beq.n	8006104 <USBD_CDC_Setup+0x94>
 80060ec:	2f0b      	cmp	r7, #11
 80060ee:	d010      	beq.n	8006112 <USBD_CDC_Setup+0xa2>
 80060f0:	2f00      	cmp	r7, #0
 80060f2:	d113      	bne.n	800611c <USBD_CDC_Setup+0xac>
 80060f4:	23a7      	movs	r3, #167	; 0xa7
 80060f6:	009b      	lsls	r3, r3, #2
 80060f8:	5ceb      	ldrb	r3, [r5, r3]
 80060fa:	2b03      	cmp	r3, #3
 80060fc:	d10e      	bne.n	800611c <USBD_CDC_Setup+0xac>
 80060fe:	2202      	movs	r2, #2
 8006100:	0001      	movs	r1, r0
 8006102:	e7d8      	b.n	80060b6 <USBD_CDC_Setup+0x46>
 8006104:	23a7      	movs	r3, #167	; 0xa7
 8006106:	009b      	lsls	r3, r3, #2
 8006108:	5ceb      	ldrb	r3, [r5, r3]
 800610a:	2b03      	cmp	r3, #3
 800610c:	d106      	bne.n	800611c <USBD_CDC_Setup+0xac>
 800610e:	2201      	movs	r2, #1
 8006110:	e7d1      	b.n	80060b6 <USBD_CDC_Setup+0x46>
 8006112:	23a7      	movs	r3, #167	; 0xa7
 8006114:	009b      	lsls	r3, r3, #2
 8006116:	5ceb      	ldrb	r3, [r5, r3]
 8006118:	2b03      	cmp	r3, #3
 800611a:	d0da      	beq.n	80060d2 <USBD_CDC_Setup+0x62>
 800611c:	0028      	movs	r0, r5
 800611e:	0031      	movs	r1, r6
 8006120:	f000 fc3f 	bl	80069a2 <USBD_CtlError>
 8006124:	2002      	movs	r0, #2
 8006126:	e7d5      	b.n	80060d4 <USBD_CDC_Setup+0x64>
 8006128:	00000201 	.word	0x00000201

0800612c <USBD_CDC_DeInit>:
 800612c:	b570      	push	{r4, r5, r6, lr}
 800612e:	0004      	movs	r4, r0
 8006130:	2500      	movs	r5, #0
 8006132:	2181      	movs	r1, #129	; 0x81
 8006134:	f000 fe6e 	bl	8006e14 <USBD_LL_CloseEP>
 8006138:	2101      	movs	r1, #1
 800613a:	62e5      	str	r5, [r4, #44]	; 0x2c
 800613c:	0020      	movs	r0, r4
 800613e:	f000 fe69 	bl	8006e14 <USBD_LL_CloseEP>
 8006142:	0023      	movs	r3, r4
 8006144:	26ae      	movs	r6, #174	; 0xae
 8006146:	33fc      	adds	r3, #252	; 0xfc
 8006148:	671d      	str	r5, [r3, #112]	; 0x70
 800614a:	2182      	movs	r1, #130	; 0x82
 800614c:	0020      	movs	r0, r4
 800614e:	00b6      	lsls	r6, r6, #2
 8006150:	f000 fe60 	bl	8006e14 <USBD_LL_CloseEP>
 8006154:	59a3      	ldr	r3, [r4, r6]
 8006156:	6425      	str	r5, [r4, #64]	; 0x40
 8006158:	42ab      	cmp	r3, r5
 800615a:	d008      	beq.n	800616e <USBD_CDC_DeInit+0x42>
 800615c:	23af      	movs	r3, #175	; 0xaf
 800615e:	009b      	lsls	r3, r3, #2
 8006160:	58e3      	ldr	r3, [r4, r3]
 8006162:	685b      	ldr	r3, [r3, #4]
 8006164:	4798      	blx	r3
 8006166:	59a0      	ldr	r0, [r4, r6]
 8006168:	f000 fed6 	bl	8006f18 <USBD_static_free>
 800616c:	51a5      	str	r5, [r4, r6]
 800616e:	2000      	movs	r0, #0
 8006170:	bd70      	pop	{r4, r5, r6, pc}

08006172 <USBD_CDC_Init>:
 8006172:	b5f7      	push	{r0, r1, r2, r4, r5, r6, r7, lr}
 8006174:	0006      	movs	r6, r0
 8006176:	7c03      	ldrb	r3, [r0, #16]
 8006178:	0004      	movs	r4, r0
 800617a:	36fc      	adds	r6, #252	; 0xfc
 800617c:	2b00      	cmp	r3, #0
 800617e:	d13b      	bne.n	80061f8 <USBD_CDC_Init+0x86>
 8006180:	2380      	movs	r3, #128	; 0x80
 8006182:	2202      	movs	r2, #2
 8006184:	009b      	lsls	r3, r3, #2
 8006186:	2181      	movs	r1, #129	; 0x81
 8006188:	f000 fe32 	bl	8006df0 <USBD_LL_OpenEP>
 800618c:	2501      	movs	r5, #1
 800618e:	2380      	movs	r3, #128	; 0x80
 8006190:	62e5      	str	r5, [r4, #44]	; 0x2c
 8006192:	009b      	lsls	r3, r3, #2
 8006194:	0029      	movs	r1, r5
 8006196:	2202      	movs	r2, #2
 8006198:	0020      	movs	r0, r4
 800619a:	f000 fe29 	bl	8006df0 <USBD_LL_OpenEP>
 800619e:	6735      	str	r5, [r6, #112]	; 0x70
 80061a0:	2308      	movs	r3, #8
 80061a2:	2203      	movs	r2, #3
 80061a4:	2182      	movs	r1, #130	; 0x82
 80061a6:	0020      	movs	r0, r4
 80061a8:	f000 fe22 	bl	8006df0 <USBD_LL_OpenEP>
 80061ac:	2601      	movs	r6, #1
 80061ae:	2087      	movs	r0, #135	; 0x87
 80061b0:	6426      	str	r6, [r4, #64]	; 0x40
 80061b2:	0080      	lsls	r0, r0, #2
 80061b4:	f000 feac 	bl	8006f10 <USBD_static_malloc>
 80061b8:	23ae      	movs	r3, #174	; 0xae
 80061ba:	009b      	lsls	r3, r3, #2
 80061bc:	0005      	movs	r5, r0
 80061be:	50e0      	str	r0, [r4, r3]
 80061c0:	0030      	movs	r0, r6
 80061c2:	2d00      	cmp	r5, #0
 80061c4:	d017      	beq.n	80061f6 <USBD_CDC_Init+0x84>
 80061c6:	3304      	adds	r3, #4
 80061c8:	58e3      	ldr	r3, [r4, r3]
 80061ca:	2700      	movs	r7, #0
 80061cc:	681b      	ldr	r3, [r3, #0]
 80061ce:	4798      	blx	r3
 80061d0:	2385      	movs	r3, #133	; 0x85
 80061d2:	2281      	movs	r2, #129	; 0x81
 80061d4:	009b      	lsls	r3, r3, #2
 80061d6:	50ef      	str	r7, [r5, r3]
 80061d8:	3304      	adds	r3, #4
 80061da:	50ef      	str	r7, [r5, r3]
 80061dc:	7c23      	ldrb	r3, [r4, #16]
 80061de:	0092      	lsls	r2, r2, #2
 80061e0:	9301      	str	r3, [sp, #4]
 80061e2:	42bb      	cmp	r3, r7
 80061e4:	d111      	bne.n	800620a <USBD_CDC_Init+0x98>
 80061e6:	2380      	movs	r3, #128	; 0x80
 80061e8:	58aa      	ldr	r2, [r5, r2]
 80061ea:	009b      	lsls	r3, r3, #2
 80061ec:	0031      	movs	r1, r6
 80061ee:	0020      	movs	r0, r4
 80061f0:	f000 fe76 	bl	8006ee0 <USBD_LL_PrepareReceive>
 80061f4:	9801      	ldr	r0, [sp, #4]
 80061f6:	bdfe      	pop	{r1, r2, r3, r4, r5, r6, r7, pc}
 80061f8:	2501      	movs	r5, #1
 80061fa:	2340      	movs	r3, #64	; 0x40
 80061fc:	2202      	movs	r2, #2
 80061fe:	2181      	movs	r1, #129	; 0x81
 8006200:	f000 fdf6 	bl	8006df0 <USBD_LL_OpenEP>
 8006204:	62e5      	str	r5, [r4, #44]	; 0x2c
 8006206:	2340      	movs	r3, #64	; 0x40
 8006208:	e7c4      	b.n	8006194 <USBD_CDC_Init+0x22>
 800620a:	2340      	movs	r3, #64	; 0x40
 800620c:	58aa      	ldr	r2, [r5, r2]
 800620e:	0031      	movs	r1, r6
 8006210:	0020      	movs	r0, r4
 8006212:	f000 fe65 	bl	8006ee0 <USBD_LL_PrepareReceive>
 8006216:	0038      	movs	r0, r7
 8006218:	e7ed      	b.n	80061f6 <USBD_CDC_Init+0x84>

0800621a <USBD_CDC_RegisterInterface>:
 800621a:	2302      	movs	r3, #2
 800621c:	2900      	cmp	r1, #0
 800621e:	d003      	beq.n	8006228 <USBD_CDC_RegisterInterface+0xe>
 8006220:	23af      	movs	r3, #175	; 0xaf
 8006222:	009b      	lsls	r3, r3, #2
 8006224:	50c1      	str	r1, [r0, r3]
 8006226:	2300      	movs	r3, #0
 8006228:	0018      	movs	r0, r3
 800622a:	4770      	bx	lr

0800622c <USBD_CDC_SetTxBuffer>:
 800622c:	23ae      	movs	r3, #174	; 0xae
 800622e:	009b      	lsls	r3, r3, #2
 8006230:	58c3      	ldr	r3, [r0, r3]
 8006232:	2082      	movs	r0, #130	; 0x82
 8006234:	0080      	lsls	r0, r0, #2
 8006236:	5019      	str	r1, [r3, r0]
 8006238:	2184      	movs	r1, #132	; 0x84
 800623a:	0089      	lsls	r1, r1, #2
 800623c:	2000      	movs	r0, #0
 800623e:	505a      	str	r2, [r3, r1]
 8006240:	4770      	bx	lr

08006242 <USBD_CDC_SetRxBuffer>:
 8006242:	23ae      	movs	r3, #174	; 0xae
 8006244:	009b      	lsls	r3, r3, #2
 8006246:	58c2      	ldr	r2, [r0, r3]
 8006248:	3bb4      	subs	r3, #180	; 0xb4
 800624a:	2000      	movs	r0, #0
 800624c:	50d1      	str	r1, [r2, r3]
 800624e:	4770      	bx	lr

08006250 <USBD_CDC_TransmitPacket>:
 8006250:	23ae      	movs	r3, #174	; 0xae
 8006252:	009b      	lsls	r3, r3, #2
 8006254:	58c2      	ldr	r2, [r0, r3]
 8006256:	b510      	push	{r4, lr}
 8006258:	2302      	movs	r3, #2
 800625a:	2a00      	cmp	r2, #0
 800625c:	d012      	beq.n	8006284 <USBD_CDC_TransmitPacket+0x34>
 800625e:	2185      	movs	r1, #133	; 0x85
 8006260:	0089      	lsls	r1, r1, #2
 8006262:	5854      	ldr	r4, [r2, r1]
 8006264:	3b01      	subs	r3, #1
 8006266:	2c00      	cmp	r4, #0
 8006268:	d10c      	bne.n	8006284 <USBD_CDC_TransmitPacket+0x34>
 800626a:	5053      	str	r3, [r2, r1]
 800626c:	2384      	movs	r3, #132	; 0x84
 800626e:	009b      	lsls	r3, r3, #2
 8006270:	58d3      	ldr	r3, [r2, r3]
 8006272:	390c      	subs	r1, #12
 8006274:	5852      	ldr	r2, [r2, r1]
 8006276:	3988      	subs	r1, #136	; 0x88
 8006278:	6303      	str	r3, [r0, #48]	; 0x30
 800627a:	39ff      	subs	r1, #255	; 0xff
 800627c:	b29b      	uxth	r3, r3
 800627e:	f000 fe1f 	bl	8006ec0 <USBD_LL_Transmit>
 8006282:	0023      	movs	r3, r4
 8006284:	0018      	movs	r0, r3
 8006286:	bd10      	pop	{r4, pc}

08006288 <USBD_CDC_ReceivePacket>:
 8006288:	23ae      	movs	r3, #174	; 0xae
 800628a:	009b      	lsls	r3, r3, #2
 800628c:	58c2      	ldr	r2, [r0, r3]
 800628e:	b510      	push	{r4, lr}
 8006290:	2402      	movs	r4, #2
 8006292:	2a00      	cmp	r2, #0
 8006294:	d008      	beq.n	80062a8 <USBD_CDC_ReceivePacket+0x20>
 8006296:	7c04      	ldrb	r4, [r0, #16]
 8006298:	3bb4      	subs	r3, #180	; 0xb4
 800629a:	58d2      	ldr	r2, [r2, r3]
 800629c:	2c00      	cmp	r4, #0
 800629e:	d105      	bne.n	80062ac <USBD_CDC_ReceivePacket+0x24>
 80062a0:	3b04      	subs	r3, #4
 80062a2:	2101      	movs	r1, #1
 80062a4:	f000 fe1c 	bl	8006ee0 <USBD_LL_PrepareReceive>
 80062a8:	0020      	movs	r0, r4
 80062aa:	bd10      	pop	{r4, pc}
 80062ac:	2340      	movs	r3, #64	; 0x40
 80062ae:	2101      	movs	r1, #1
 80062b0:	f000 fe16 	bl	8006ee0 <USBD_LL_PrepareReceive>
 80062b4:	2400      	movs	r4, #0
 80062b6:	e7f7      	b.n	80062a8 <USBD_CDC_ReceivePacket+0x20>

080062b8 <USBD_Init>:
 80062b8:	b510      	push	{r4, lr}
 80062ba:	2302      	movs	r3, #2
 80062bc:	2800      	cmp	r0, #0
 80062be:	d013      	beq.n	80062e8 <USBD_Init+0x30>
 80062c0:	23ad      	movs	r3, #173	; 0xad
 80062c2:	009b      	lsls	r3, r3, #2
 80062c4:	58c4      	ldr	r4, [r0, r3]
 80062c6:	2c00      	cmp	r4, #0
 80062c8:	d001      	beq.n	80062ce <USBD_Init+0x16>
 80062ca:	2400      	movs	r4, #0
 80062cc:	50c4      	str	r4, [r0, r3]
 80062ce:	2900      	cmp	r1, #0
 80062d0:	d002      	beq.n	80062d8 <USBD_Init+0x20>
 80062d2:	23ac      	movs	r3, #172	; 0xac
 80062d4:	009b      	lsls	r3, r3, #2
 80062d6:	50c1      	str	r1, [r0, r3]
 80062d8:	23a7      	movs	r3, #167	; 0xa7
 80062da:	2101      	movs	r1, #1
 80062dc:	009b      	lsls	r3, r3, #2
 80062de:	54c1      	strb	r1, [r0, r3]
 80062e0:	7002      	strb	r2, [r0, #0]
 80062e2:	f000 fd35 	bl	8006d50 <USBD_LL_Init>
 80062e6:	2300      	movs	r3, #0
 80062e8:	0018      	movs	r0, r3
 80062ea:	bd10      	pop	{r4, pc}

080062ec <USBD_RegisterClass>:
 80062ec:	2302      	movs	r3, #2
 80062ee:	2900      	cmp	r1, #0
 80062f0:	d003      	beq.n	80062fa <USBD_RegisterClass+0xe>
 80062f2:	23ad      	movs	r3, #173	; 0xad
 80062f4:	009b      	lsls	r3, r3, #2
 80062f6:	50c1      	str	r1, [r0, r3]
 80062f8:	2300      	movs	r3, #0
 80062fa:	0018      	movs	r0, r3
 80062fc:	4770      	bx	lr

080062fe <USBD_Start>:
 80062fe:	b510      	push	{r4, lr}
 8006300:	f000 fd66 	bl	8006dd0 <USBD_LL_Start>
 8006304:	2000      	movs	r0, #0
 8006306:	bd10      	pop	{r4, pc}

08006308 <USBD_SetClassConfig>:
 8006308:	23ad      	movs	r3, #173	; 0xad
 800630a:	009b      	lsls	r3, r3, #2
 800630c:	58c3      	ldr	r3, [r0, r3]
 800630e:	b510      	push	{r4, lr}
 8006310:	2b00      	cmp	r3, #0
 8006312:	d101      	bne.n	8006318 <USBD_SetClassConfig+0x10>
 8006314:	2002      	movs	r0, #2
 8006316:	bd10      	pop	{r4, pc}
 8006318:	681b      	ldr	r3, [r3, #0]
 800631a:	4798      	blx	r3
 800631c:	2800      	cmp	r0, #0
 800631e:	d0fa      	beq.n	8006316 <USBD_SetClassConfig+0xe>
 8006320:	e7f8      	b.n	8006314 <USBD_SetClassConfig+0xc>

08006322 <USBD_ClrClassConfig>:
 8006322:	23ad      	movs	r3, #173	; 0xad
 8006324:	b510      	push	{r4, lr}
 8006326:	009b      	lsls	r3, r3, #2
 8006328:	58c3      	ldr	r3, [r0, r3]
 800632a:	685b      	ldr	r3, [r3, #4]
 800632c:	4798      	blx	r3
 800632e:	2000      	movs	r0, #0
 8006330:	bd10      	pop	{r4, pc}
	...

08006334 <USBD_LL_SetupStage>:
 8006334:	23aa      	movs	r3, #170	; 0xaa
 8006336:	009b      	lsls	r3, r3, #2
 8006338:	b570      	push	{r4, r5, r6, lr}
 800633a:	18c5      	adds	r5, r0, r3
 800633c:	0004      	movs	r4, r0
 800633e:	0028      	movs	r0, r5
 8006340:	f000 fb1b 	bl	800697a <USBD_ParseSetupRequest>
 8006344:	23a5      	movs	r3, #165	; 0xa5
 8006346:	2201      	movs	r2, #1
 8006348:	009b      	lsls	r3, r3, #2
 800634a:	50e2      	str	r2, [r4, r3]
 800634c:	4b11      	ldr	r3, [pc, #68]	; (8006394 <USBD_LL_SetupStage+0x60>)
 800634e:	5ae2      	ldrh	r2, [r4, r3]
 8006350:	3b16      	subs	r3, #22
 8006352:	50e2      	str	r2, [r4, r3]
 8006354:	3310      	adds	r3, #16
 8006356:	5ce1      	ldrb	r1, [r4, r3]
 8006358:	231f      	movs	r3, #31
 800635a:	400b      	ands	r3, r1
 800635c:	2b01      	cmp	r3, #1
 800635e:	d00f      	beq.n	8006380 <USBD_LL_SetupStage+0x4c>
 8006360:	2b00      	cmp	r3, #0
 8006362:	d007      	beq.n	8006374 <USBD_LL_SetupStage+0x40>
 8006364:	2b02      	cmp	r3, #2
 8006366:	d010      	beq.n	800638a <USBD_LL_SetupStage+0x56>
 8006368:	237f      	movs	r3, #127	; 0x7f
 800636a:	0020      	movs	r0, r4
 800636c:	4399      	bics	r1, r3
 800636e:	f000 fd61 	bl	8006e34 <USBD_LL_StallEP>
 8006372:	e003      	b.n	800637c <USBD_LL_SetupStage+0x48>
 8006374:	0029      	movs	r1, r5
 8006376:	0020      	movs	r0, r4
 8006378:	f000 f914 	bl	80065a4 <USBD_StdDevReq>
 800637c:	2000      	movs	r0, #0
 800637e:	bd70      	pop	{r4, r5, r6, pc}
 8006380:	0029      	movs	r1, r5
 8006382:	0020      	movs	r0, r4
 8006384:	f000 fa3c 	bl	8006800 <USBD_StdItfReq>
 8006388:	e7f8      	b.n	800637c <USBD_LL_SetupStage+0x48>
 800638a:	0029      	movs	r1, r5
 800638c:	0020      	movs	r0, r4
 800638e:	f000 fa61 	bl	8006854 <USBD_StdEPReq>
 8006392:	e7f3      	b.n	800637c <USBD_LL_SetupStage+0x48>
 8006394:	000002ae 	.word	0x000002ae

08006398 <USBD_LL_DataOutStage>:
 8006398:	b570      	push	{r4, r5, r6, lr}
 800639a:	0004      	movs	r4, r0
 800639c:	0015      	movs	r5, r2
 800639e:	2900      	cmp	r1, #0
 80063a0:	d130      	bne.n	8006404 <USBD_LL_DataOutStage+0x6c>
 80063a2:	23a5      	movs	r3, #165	; 0xa5
 80063a4:	009b      	lsls	r3, r3, #2
 80063a6:	58c2      	ldr	r2, [r0, r3]
 80063a8:	2a03      	cmp	r2, #3
 80063aa:	d123      	bne.n	80063f4 <USBD_LL_DataOutStage+0x5c>
 80063ac:	0002      	movs	r2, r0
 80063ae:	3255      	adds	r2, #85	; 0x55
 80063b0:	32ff      	adds	r2, #255	; 0xff
 80063b2:	68d3      	ldr	r3, [r2, #12]
 80063b4:	6910      	ldr	r0, [r2, #16]
 80063b6:	4283      	cmp	r3, r0
 80063b8:	d90b      	bls.n	80063d2 <USBD_LL_DataOutStage+0x3a>
 80063ba:	1a1b      	subs	r3, r3, r0
 80063bc:	60d3      	str	r3, [r2, #12]
 80063be:	b282      	uxth	r2, r0
 80063c0:	4298      	cmp	r0, r3
 80063c2:	d900      	bls.n	80063c6 <USBD_LL_DataOutStage+0x2e>
 80063c4:	b29a      	uxth	r2, r3
 80063c6:	0029      	movs	r1, r5
 80063c8:	0020      	movs	r0, r4
 80063ca:	f000 fb37 	bl	8006a3c <USBD_CtlContinueRx>
 80063ce:	2500      	movs	r5, #0
 80063d0:	e016      	b.n	8006400 <USBD_LL_DataOutStage+0x68>
 80063d2:	23ad      	movs	r3, #173	; 0xad
 80063d4:	009b      	lsls	r3, r3, #2
 80063d6:	58e3      	ldr	r3, [r4, r3]
 80063d8:	691b      	ldr	r3, [r3, #16]
 80063da:	2b00      	cmp	r3, #0
 80063dc:	d006      	beq.n	80063ec <USBD_LL_DataOutStage+0x54>
 80063de:	22a7      	movs	r2, #167	; 0xa7
 80063e0:	0092      	lsls	r2, r2, #2
 80063e2:	5ca2      	ldrb	r2, [r4, r2]
 80063e4:	2a03      	cmp	r2, #3
 80063e6:	d101      	bne.n	80063ec <USBD_LL_DataOutStage+0x54>
 80063e8:	0020      	movs	r0, r4
 80063ea:	4798      	blx	r3
 80063ec:	0020      	movs	r0, r4
 80063ee:	f000 fb2d 	bl	8006a4c <USBD_CtlSendStatus>
 80063f2:	e7ec      	b.n	80063ce <USBD_LL_DataOutStage+0x36>
 80063f4:	000d      	movs	r5, r1
 80063f6:	2a05      	cmp	r2, #5
 80063f8:	d102      	bne.n	8006400 <USBD_LL_DataOutStage+0x68>
 80063fa:	50e1      	str	r1, [r4, r3]
 80063fc:	f000 fd1a 	bl	8006e34 <USBD_LL_StallEP>
 8006400:	0028      	movs	r0, r5
 8006402:	bd70      	pop	{r4, r5, r6, pc}
 8006404:	23ad      	movs	r3, #173	; 0xad
 8006406:	009b      	lsls	r3, r3, #2
 8006408:	58c3      	ldr	r3, [r0, r3]
 800640a:	2502      	movs	r5, #2
 800640c:	699b      	ldr	r3, [r3, #24]
 800640e:	2b00      	cmp	r3, #0
 8006410:	d0f6      	beq.n	8006400 <USBD_LL_DataOutStage+0x68>
 8006412:	22a7      	movs	r2, #167	; 0xa7
 8006414:	0092      	lsls	r2, r2, #2
 8006416:	5c82      	ldrb	r2, [r0, r2]
 8006418:	2a03      	cmp	r2, #3
 800641a:	d1f1      	bne.n	8006400 <USBD_LL_DataOutStage+0x68>
 800641c:	4798      	blx	r3
 800641e:	e7d6      	b.n	80063ce <USBD_LL_DataOutStage+0x36>

08006420 <USBD_LL_DataInStage>:
 8006420:	b5f8      	push	{r3, r4, r5, r6, r7, lr}
 8006422:	000d      	movs	r5, r1
 8006424:	0004      	movs	r4, r0
 8006426:	0011      	movs	r1, r2
 8006428:	2d00      	cmp	r5, #0
 800642a:	d14b      	bne.n	80064c4 <USBD_LL_DataInStage+0xa4>
 800642c:	23a5      	movs	r3, #165	; 0xa5
 800642e:	009b      	lsls	r3, r3, #2
 8006430:	58c3      	ldr	r3, [r0, r3]
 8006432:	2b02      	cmp	r3, #2
 8006434:	d13f      	bne.n	80064b6 <USBD_LL_DataInStage+0x96>
 8006436:	6a02      	ldr	r2, [r0, #32]
 8006438:	6a46      	ldr	r6, [r0, #36]	; 0x24
 800643a:	42b2      	cmp	r2, r6
 800643c:	d912      	bls.n	8006464 <USBD_LL_DataInStage+0x44>
 800643e:	1b92      	subs	r2, r2, r6
 8006440:	6202      	str	r2, [r0, #32]
 8006442:	b292      	uxth	r2, r2
 8006444:	f000 fae2 	bl	8006a0c <USBD_CtlContinueSendData>
 8006448:	002b      	movs	r3, r5
 800644a:	002a      	movs	r2, r5
 800644c:	0029      	movs	r1, r5
 800644e:	0020      	movs	r0, r4
 8006450:	f000 fd46 	bl	8006ee0 <USBD_LL_PrepareReceive>
 8006454:	23a8      	movs	r3, #168	; 0xa8
 8006456:	009b      	lsls	r3, r3, #2
 8006458:	5ce2      	ldrb	r2, [r4, r3]
 800645a:	2000      	movs	r0, #0
 800645c:	2a01      	cmp	r2, #1
 800645e:	d100      	bne.n	8006462 <USBD_LL_DataInStage+0x42>
 8006460:	54e0      	strb	r0, [r4, r3]
 8006462:	bdf8      	pop	{r3, r4, r5, r6, r7, pc}
 8006464:	69c7      	ldr	r7, [r0, #28]
 8006466:	0031      	movs	r1, r6
 8006468:	0038      	movs	r0, r7
 800646a:	f7f9 fef1 	bl	8000250 <__aeabi_uidivmod>
 800646e:	1e0d      	subs	r5, r1, #0
 8006470:	d10c      	bne.n	800648c <USBD_LL_DataInStage+0x6c>
 8006472:	42be      	cmp	r6, r7
 8006474:	d80a      	bhi.n	800648c <USBD_LL_DataInStage+0x6c>
 8006476:	26a6      	movs	r6, #166	; 0xa6
 8006478:	00b6      	lsls	r6, r6, #2
 800647a:	59a3      	ldr	r3, [r4, r6]
 800647c:	429f      	cmp	r7, r3
 800647e:	d205      	bcs.n	800648c <USBD_LL_DataInStage+0x6c>
 8006480:	000a      	movs	r2, r1
 8006482:	0020      	movs	r0, r4
 8006484:	f000 fac2 	bl	8006a0c <USBD_CtlContinueSendData>
 8006488:	51a5      	str	r5, [r4, r6]
 800648a:	e7dd      	b.n	8006448 <USBD_LL_DataInStage+0x28>
 800648c:	23ad      	movs	r3, #173	; 0xad
 800648e:	009b      	lsls	r3, r3, #2
 8006490:	58e3      	ldr	r3, [r4, r3]
 8006492:	68db      	ldr	r3, [r3, #12]
 8006494:	2b00      	cmp	r3, #0
 8006496:	d006      	beq.n	80064a6 <USBD_LL_DataInStage+0x86>
 8006498:	22a7      	movs	r2, #167	; 0xa7
 800649a:	0092      	lsls	r2, r2, #2
 800649c:	5ca2      	ldrb	r2, [r4, r2]
 800649e:	2a03      	cmp	r2, #3
 80064a0:	d101      	bne.n	80064a6 <USBD_LL_DataInStage+0x86>
 80064a2:	0020      	movs	r0, r4
 80064a4:	4798      	blx	r3
 80064a6:	2180      	movs	r1, #128	; 0x80
 80064a8:	0020      	movs	r0, r4
 80064aa:	f000 fcc3 	bl	8006e34 <USBD_LL_StallEP>
 80064ae:	0020      	movs	r0, r4
 80064b0:	f000 fad8 	bl	8006a64 <USBD_CtlReceiveStatus>
 80064b4:	e7ce      	b.n	8006454 <USBD_LL_DataInStage+0x34>
 80064b6:	2204      	movs	r2, #4
 80064b8:	4393      	bics	r3, r2
 80064ba:	d1cb      	bne.n	8006454 <USBD_LL_DataInStage+0x34>
 80064bc:	2180      	movs	r1, #128	; 0x80
 80064be:	f000 fcb9 	bl	8006e34 <USBD_LL_StallEP>
 80064c2:	e7c7      	b.n	8006454 <USBD_LL_DataInStage+0x34>
 80064c4:	23ad      	movs	r3, #173	; 0xad
 80064c6:	009b      	lsls	r3, r3, #2
 80064c8:	58c3      	ldr	r3, [r0, r3]
 80064ca:	2002      	movs	r0, #2
 80064cc:	695b      	ldr	r3, [r3, #20]
 80064ce:	2b00      	cmp	r3, #0
 80064d0:	d0c7      	beq.n	8006462 <USBD_LL_DataInStage+0x42>
 80064d2:	22a7      	movs	r2, #167	; 0xa7
 80064d4:	0092      	lsls	r2, r2, #2
 80064d6:	5ca2      	ldrb	r2, [r4, r2]
 80064d8:	2a03      	cmp	r2, #3
 80064da:	d1c2      	bne.n	8006462 <USBD_LL_DataInStage+0x42>
 80064dc:	0029      	movs	r1, r5
 80064de:	0020      	movs	r0, r4
 80064e0:	4798      	blx	r3
 80064e2:	2000      	movs	r0, #0
 80064e4:	e7bd      	b.n	8006462 <USBD_LL_DataInStage+0x42>

080064e6 <USBD_LL_Reset>:
 80064e6:	2200      	movs	r2, #0
 80064e8:	b570      	push	{r4, r5, r6, lr}
 80064ea:	0004      	movs	r4, r0
 80064ec:	0011      	movs	r1, r2
 80064ee:	2340      	movs	r3, #64	; 0x40
 80064f0:	f000 fc7e 	bl	8006df0 <USBD_LL_OpenEP>
 80064f4:	0023      	movs	r3, r4
 80064f6:	2501      	movs	r5, #1
 80064f8:	2640      	movs	r6, #64	; 0x40
 80064fa:	33fc      	adds	r3, #252	; 0xfc
 80064fc:	65dd      	str	r5, [r3, #92]	; 0x5c
 80064fe:	669e      	str	r6, [r3, #104]	; 0x68
 8006500:	2180      	movs	r1, #128	; 0x80
 8006502:	0033      	movs	r3, r6
 8006504:	2200      	movs	r2, #0
 8006506:	0020      	movs	r0, r4
 8006508:	f000 fc72 	bl	8006df0 <USBD_LL_OpenEP>
 800650c:	23a7      	movs	r3, #167	; 0xa7
 800650e:	2100      	movs	r1, #0
 8006510:	009b      	lsls	r3, r3, #2
 8006512:	61a5      	str	r5, [r4, #24]
 8006514:	6266      	str	r6, [r4, #36]	; 0x24
 8006516:	54e5      	strb	r5, [r4, r3]
 8006518:	3b08      	subs	r3, #8
 800651a:	50e1      	str	r1, [r4, r3]
 800651c:	3310      	adds	r3, #16
 800651e:	6061      	str	r1, [r4, #4]
 8006520:	50e1      	str	r1, [r4, r3]
 8006522:	3314      	adds	r3, #20
 8006524:	58e3      	ldr	r3, [r4, r3]
 8006526:	428b      	cmp	r3, r1
 8006528:	d005      	beq.n	8006536 <USBD_LL_Reset+0x50>
 800652a:	23ad      	movs	r3, #173	; 0xad
 800652c:	009b      	lsls	r3, r3, #2
 800652e:	58e3      	ldr	r3, [r4, r3]
 8006530:	0020      	movs	r0, r4
 8006532:	685b      	ldr	r3, [r3, #4]
 8006534:	4798      	blx	r3
 8006536:	2000      	movs	r0, #0
 8006538:	bd70      	pop	{r4, r5, r6, pc}

0800653a <USBD_LL_SetSpeed>:
 800653a:	7401      	strb	r1, [r0, #16]
 800653c:	2000      	movs	r0, #0
 800653e:	4770      	bx	lr

08006540 <USBD_LL_Suspend>:
 8006540:	23a7      	movs	r3, #167	; 0xa7
 8006542:	009b      	lsls	r3, r3, #2
 8006544:	5cc1      	ldrb	r1, [r0, r3]
 8006546:	4a03      	ldr	r2, [pc, #12]	; (8006554 <USBD_LL_Suspend+0x14>)
 8006548:	5481      	strb	r1, [r0, r2]
 800654a:	2204      	movs	r2, #4
 800654c:	54c2      	strb	r2, [r0, r3]
 800654e:	2000      	movs	r0, #0
 8006550:	4770      	bx	lr
 8006552:	46c0      	nop			; (mov r8, r8)
 8006554:	0000029d 	.word	0x0000029d

08006558 <USBD_LL_Resume>:
 8006558:	23a7      	movs	r3, #167	; 0xa7
 800655a:	009b      	lsls	r3, r3, #2
 800655c:	5cc2      	ldrb	r2, [r0, r3]
 800655e:	2a04      	cmp	r2, #4
 8006560:	d102      	bne.n	8006568 <USBD_LL_Resume+0x10>
 8006562:	4a02      	ldr	r2, [pc, #8]	; (800656c <USBD_LL_Resume+0x14>)
 8006564:	5c82      	ldrb	r2, [r0, r2]
 8006566:	54c2      	strb	r2, [r0, r3]
 8006568:	2000      	movs	r0, #0
 800656a:	4770      	bx	lr
 800656c:	0000029d 	.word	0x0000029d

08006570 <USBD_LL_SOF>:
 8006570:	23a7      	movs	r3, #167	; 0xa7
 8006572:	b510      	push	{r4, lr}
 8006574:	009b      	lsls	r3, r3, #2
 8006576:	5cc3      	ldrb	r3, [r0, r3]
 8006578:	2b03      	cmp	r3, #3
 800657a:	d106      	bne.n	800658a <USBD_LL_SOF+0x1a>
 800657c:	23ad      	movs	r3, #173	; 0xad
 800657e:	009b      	lsls	r3, r3, #2
 8006580:	58c3      	ldr	r3, [r0, r3]
 8006582:	69db      	ldr	r3, [r3, #28]
 8006584:	2b00      	cmp	r3, #0
 8006586:	d000      	beq.n	800658a <USBD_LL_SOF+0x1a>
 8006588:	4798      	blx	r3
 800658a:	2000      	movs	r0, #0
 800658c:	bd10      	pop	{r4, pc}

0800658e <USBD_CtlError.constprop.1>:
 800658e:	b510      	push	{r4, lr}
 8006590:	0004      	movs	r4, r0
 8006592:	2180      	movs	r1, #128	; 0x80
 8006594:	f000 fc4e 	bl	8006e34 <USBD_LL_StallEP>
 8006598:	2100      	movs	r1, #0
 800659a:	0020      	movs	r0, r4
 800659c:	f000 fc4a 	bl	8006e34 <USBD_LL_StallEP>
 80065a0:	bd10      	pop	{r4, pc}
	...

080065a4 <USBD_StdDevReq>:
 80065a4:	2260      	movs	r2, #96	; 0x60
 80065a6:	780b      	ldrb	r3, [r1, #0]
 80065a8:	b573      	push	{r0, r1, r4, r5, r6, lr}
 80065aa:	4013      	ands	r3, r2
 80065ac:	0004      	movs	r4, r0
 80065ae:	000d      	movs	r5, r1
 80065b0:	2b20      	cmp	r3, #32
 80065b2:	d014      	beq.n	80065de <USBD_StdDevReq+0x3a>
 80065b4:	2b40      	cmp	r3, #64	; 0x40
 80065b6:	d012      	beq.n	80065de <USBD_StdDevReq+0x3a>
 80065b8:	2b00      	cmp	r3, #0
 80065ba:	d000      	beq.n	80065be <USBD_StdDevReq+0x1a>
 80065bc:	e090      	b.n	80066e0 <USBD_StdDevReq+0x13c>
 80065be:	7848      	ldrb	r0, [r1, #1]
 80065c0:	2809      	cmp	r0, #9
 80065c2:	d900      	bls.n	80065c6 <USBD_StdDevReq+0x22>
 80065c4:	e08c      	b.n	80066e0 <USBD_StdDevReq+0x13c>
 80065c6:	f7f9 fdb3 	bl	8000130 <__gnu_thumb1_case_uhi>
 80065ca:	00e9      	.short	0x00e9
 80065cc:	008b0107 	.word	0x008b0107
 80065d0:	008b00ff 	.word	0x008b00ff
 80065d4:	0013007d 	.word	0x0013007d
 80065d8:	00d3008b 	.word	0x00d3008b
 80065dc:	009e      	.short	0x009e
 80065de:	23ad      	movs	r3, #173	; 0xad
 80065e0:	009b      	lsls	r3, r3, #2
 80065e2:	58e3      	ldr	r3, [r4, r3]
 80065e4:	0029      	movs	r1, r5
 80065e6:	689b      	ldr	r3, [r3, #8]
 80065e8:	0020      	movs	r0, r4
 80065ea:	4798      	blx	r3
 80065ec:	2000      	movs	r0, #0
 80065ee:	bd76      	pop	{r1, r2, r4, r5, r6, pc}
 80065f0:	466b      	mov	r3, sp
 80065f2:	1d9e      	adds	r6, r3, #6
 80065f4:	2300      	movs	r3, #0
 80065f6:	8033      	strh	r3, [r6, #0]
 80065f8:	884b      	ldrh	r3, [r1, #2]
 80065fa:	0a18      	lsrs	r0, r3, #8
 80065fc:	3801      	subs	r0, #1
 80065fe:	2806      	cmp	r0, #6
 8006600:	d86e      	bhi.n	80066e0 <USBD_StdDevReq+0x13c>
 8006602:	f7f9 fd8b 	bl	800011c <__gnu_thumb1_case_uqi>
 8006606:	2204      	.short	0x2204
 8006608:	4a6d6d30 	.word	0x4a6d6d30
 800660c:	54          	.byte	0x54
 800660d:	00          	.byte	0x00
 800660e:	23ac      	movs	r3, #172	; 0xac
 8006610:	009b      	lsls	r3, r3, #2
 8006612:	58e3      	ldr	r3, [r4, r3]
 8006614:	7c20      	ldrb	r0, [r4, #16]
 8006616:	681b      	ldr	r3, [r3, #0]
 8006618:	0031      	movs	r1, r6
 800661a:	4798      	blx	r3
 800661c:	8831      	ldrh	r1, [r6, #0]
 800661e:	2900      	cmp	r1, #0
 8006620:	d00c      	beq.n	800663c <USBD_StdDevReq+0x98>
 8006622:	88ea      	ldrh	r2, [r5, #6]
 8006624:	2a00      	cmp	r2, #0
 8006626:	d009      	beq.n	800663c <USBD_StdDevReq+0x98>
 8006628:	1c0b      	adds	r3, r1, #0
 800662a:	4291      	cmp	r1, r2
 800662c:	d900      	bls.n	8006630 <USBD_StdDevReq+0x8c>
 800662e:	1c13      	adds	r3, r2, #0
 8006630:	0001      	movs	r1, r0
 8006632:	b29a      	uxth	r2, r3
 8006634:	0020      	movs	r0, r4
 8006636:	8033      	strh	r3, [r6, #0]
 8006638:	f000 f9da 	bl	80069f0 <USBD_CtlSendData>
 800663c:	88eb      	ldrh	r3, [r5, #6]
 800663e:	2b00      	cmp	r3, #0
 8006640:	d1d4      	bne.n	80065ec <USBD_StdDevReq+0x48>
 8006642:	0020      	movs	r0, r4
 8006644:	f000 fa02 	bl	8006a4c <USBD_CtlSendStatus>
 8006648:	e7d0      	b.n	80065ec <USBD_StdDevReq+0x48>
 800664a:	23ad      	movs	r3, #173	; 0xad
 800664c:	7c22      	ldrb	r2, [r4, #16]
 800664e:	009b      	lsls	r3, r3, #2
 8006650:	58e3      	ldr	r3, [r4, r3]
 8006652:	2a00      	cmp	r2, #0
 8006654:	d105      	bne.n	8006662 <USBD_StdDevReq+0xbe>
 8006656:	6a9b      	ldr	r3, [r3, #40]	; 0x28
 8006658:	0030      	movs	r0, r6
 800665a:	4798      	blx	r3
 800665c:	2302      	movs	r3, #2
 800665e:	7043      	strb	r3, [r0, #1]
 8006660:	e7dc      	b.n	800661c <USBD_StdDevReq+0x78>
 8006662:	6adb      	ldr	r3, [r3, #44]	; 0x2c
 8006664:	e7f8      	b.n	8006658 <USBD_StdDevReq+0xb4>
 8006666:	b2d8      	uxtb	r0, r3
 8006668:	2805      	cmp	r0, #5
 800666a:	d839      	bhi.n	80066e0 <USBD_StdDevReq+0x13c>
 800666c:	23ac      	movs	r3, #172	; 0xac
 800666e:	009b      	lsls	r3, r3, #2
 8006670:	58e3      	ldr	r3, [r4, r3]
 8006672:	f7f9 fd53 	bl	800011c <__gnu_thumb1_case_uqi>
 8006676:	0803      	.short	0x0803
 8006678:	100e0c0a 	.word	0x100e0c0a
 800667c:	685b      	ldr	r3, [r3, #4]
 800667e:	2b00      	cmp	r3, #0
 8006680:	d02e      	beq.n	80066e0 <USBD_StdDevReq+0x13c>
 8006682:	7c20      	ldrb	r0, [r4, #16]
 8006684:	e7c8      	b.n	8006618 <USBD_StdDevReq+0x74>
 8006686:	689b      	ldr	r3, [r3, #8]
 8006688:	e7f9      	b.n	800667e <USBD_StdDevReq+0xda>
 800668a:	68db      	ldr	r3, [r3, #12]
 800668c:	e7f7      	b.n	800667e <USBD_StdDevReq+0xda>
 800668e:	691b      	ldr	r3, [r3, #16]
 8006690:	e7f5      	b.n	800667e <USBD_StdDevReq+0xda>
 8006692:	695b      	ldr	r3, [r3, #20]
 8006694:	e7f3      	b.n	800667e <USBD_StdDevReq+0xda>
 8006696:	699b      	ldr	r3, [r3, #24]
 8006698:	e7f1      	b.n	800667e <USBD_StdDevReq+0xda>
 800669a:	7c23      	ldrb	r3, [r4, #16]
 800669c:	2b00      	cmp	r3, #0
 800669e:	d11f      	bne.n	80066e0 <USBD_StdDevReq+0x13c>
 80066a0:	23ad      	movs	r3, #173	; 0xad
 80066a2:	009b      	lsls	r3, r3, #2
 80066a4:	58e3      	ldr	r3, [r4, r3]
 80066a6:	0030      	movs	r0, r6
 80066a8:	6b5b      	ldr	r3, [r3, #52]	; 0x34
 80066aa:	4798      	blx	r3
 80066ac:	e7b6      	b.n	800661c <USBD_StdDevReq+0x78>
 80066ae:	7c23      	ldrb	r3, [r4, #16]
 80066b0:	2b00      	cmp	r3, #0
 80066b2:	d115      	bne.n	80066e0 <USBD_StdDevReq+0x13c>
 80066b4:	23ad      	movs	r3, #173	; 0xad
 80066b6:	009b      	lsls	r3, r3, #2
 80066b8:	58e3      	ldr	r3, [r4, r3]
 80066ba:	0030      	movs	r0, r6
 80066bc:	6b1b      	ldr	r3, [r3, #48]	; 0x30
 80066be:	4798      	blx	r3
 80066c0:	2307      	movs	r3, #7
 80066c2:	e7cc      	b.n	800665e <USBD_StdDevReq+0xba>
 80066c4:	888b      	ldrh	r3, [r1, #4]
 80066c6:	2b00      	cmp	r3, #0
 80066c8:	d10a      	bne.n	80066e0 <USBD_StdDevReq+0x13c>
 80066ca:	88cb      	ldrh	r3, [r1, #6]
 80066cc:	2b00      	cmp	r3, #0
 80066ce:	d107      	bne.n	80066e0 <USBD_StdDevReq+0x13c>
 80066d0:	884e      	ldrh	r6, [r1, #2]
 80066d2:	2e7f      	cmp	r6, #127	; 0x7f
 80066d4:	d804      	bhi.n	80066e0 <USBD_StdDevReq+0x13c>
 80066d6:	25a7      	movs	r5, #167	; 0xa7
 80066d8:	00ad      	lsls	r5, r5, #2
 80066da:	5d63      	ldrb	r3, [r4, r5]
 80066dc:	2b03      	cmp	r3, #3
 80066de:	d103      	bne.n	80066e8 <USBD_StdDevReq+0x144>
 80066e0:	0020      	movs	r0, r4
 80066e2:	f7ff ff54 	bl	800658e <USBD_CtlError.constprop.1>
 80066e6:	e781      	b.n	80065ec <USBD_StdDevReq+0x48>
 80066e8:	4b43      	ldr	r3, [pc, #268]	; (80067f8 <USBD_StdDevReq+0x254>)
 80066ea:	b2f1      	uxtb	r1, r6
 80066ec:	54e1      	strb	r1, [r4, r3]
 80066ee:	0020      	movs	r0, r4
 80066f0:	f000 fbd6 	bl	8006ea0 <USBD_LL_SetUSBAddress>
 80066f4:	0020      	movs	r0, r4
 80066f6:	f000 f9a9 	bl	8006a4c <USBD_CtlSendStatus>
 80066fa:	2302      	movs	r3, #2
 80066fc:	2e00      	cmp	r6, #0
 80066fe:	d100      	bne.n	8006702 <USBD_StdDevReq+0x15e>
 8006700:	2301      	movs	r3, #1
 8006702:	5563      	strb	r3, [r4, r5]
 8006704:	e772      	b.n	80065ec <USBD_StdDevReq+0x48>
 8006706:	7889      	ldrb	r1, [r1, #2]
 8006708:	4d3c      	ldr	r5, [pc, #240]	; (80067fc <USBD_StdDevReq+0x258>)
 800670a:	7029      	strb	r1, [r5, #0]
 800670c:	2901      	cmp	r1, #1
 800670e:	d8e7      	bhi.n	80066e0 <USBD_StdDevReq+0x13c>
 8006710:	23a7      	movs	r3, #167	; 0xa7
 8006712:	009b      	lsls	r3, r3, #2
 8006714:	5ce2      	ldrb	r2, [r4, r3]
 8006716:	2a02      	cmp	r2, #2
 8006718:	d009      	beq.n	800672e <USBD_StdDevReq+0x18a>
 800671a:	2a03      	cmp	r2, #3
 800671c:	d014      	beq.n	8006748 <USBD_StdDevReq+0x1a4>
 800671e:	0020      	movs	r0, r4
 8006720:	f7ff ff35 	bl	800658e <USBD_CtlError.constprop.1>
 8006724:	7829      	ldrb	r1, [r5, #0]
 8006726:	0020      	movs	r0, r4
 8006728:	f7ff fdfb 	bl	8006322 <USBD_ClrClassConfig>
 800672c:	e75e      	b.n	80065ec <USBD_StdDevReq+0x48>
 800672e:	2900      	cmp	r1, #0
 8006730:	d087      	beq.n	8006642 <USBD_StdDevReq+0x9e>
 8006732:	2101      	movs	r1, #1
 8006734:	2203      	movs	r2, #3
 8006736:	6061      	str	r1, [r4, #4]
 8006738:	54e2      	strb	r2, [r4, r3]
 800673a:	0020      	movs	r0, r4
 800673c:	f7ff fde4 	bl	8006308 <USBD_SetClassConfig>
 8006740:	2802      	cmp	r0, #2
 8006742:	d000      	beq.n	8006746 <USBD_StdDevReq+0x1a2>
 8006744:	e77d      	b.n	8006642 <USBD_StdDevReq+0x9e>
 8006746:	e7cb      	b.n	80066e0 <USBD_StdDevReq+0x13c>
 8006748:	2900      	cmp	r1, #0
 800674a:	d106      	bne.n	800675a <USBD_StdDevReq+0x1b6>
 800674c:	2202      	movs	r2, #2
 800674e:	0020      	movs	r0, r4
 8006750:	54e2      	strb	r2, [r4, r3]
 8006752:	6061      	str	r1, [r4, #4]
 8006754:	f7ff fde5 	bl	8006322 <USBD_ClrClassConfig>
 8006758:	e773      	b.n	8006642 <USBD_StdDevReq+0x9e>
 800675a:	6861      	ldr	r1, [r4, #4]
 800675c:	2901      	cmp	r1, #1
 800675e:	d100      	bne.n	8006762 <USBD_StdDevReq+0x1be>
 8006760:	e76f      	b.n	8006642 <USBD_StdDevReq+0x9e>
 8006762:	b2c9      	uxtb	r1, r1
 8006764:	0020      	movs	r0, r4
 8006766:	f7ff fddc 	bl	8006322 <USBD_ClrClassConfig>
 800676a:	7829      	ldrb	r1, [r5, #0]
 800676c:	6061      	str	r1, [r4, #4]
 800676e:	e7e4      	b.n	800673a <USBD_StdDevReq+0x196>
 8006770:	88ca      	ldrh	r2, [r1, #6]
 8006772:	2a01      	cmp	r2, #1
 8006774:	d1b4      	bne.n	80066e0 <USBD_StdDevReq+0x13c>
 8006776:	23a7      	movs	r3, #167	; 0xa7
 8006778:	009b      	lsls	r3, r3, #2
 800677a:	5ce3      	ldrb	r3, [r4, r3]
 800677c:	2b00      	cmp	r3, #0
 800677e:	d0af      	beq.n	80066e0 <USBD_StdDevReq+0x13c>
 8006780:	2b02      	cmp	r3, #2
 8006782:	d906      	bls.n	8006792 <USBD_StdDevReq+0x1ee>
 8006784:	1d21      	adds	r1, r4, #4
 8006786:	2b03      	cmp	r3, #3
 8006788:	d1aa      	bne.n	80066e0 <USBD_StdDevReq+0x13c>
 800678a:	0020      	movs	r0, r4
 800678c:	f000 f930 	bl	80069f0 <USBD_CtlSendData>
 8006790:	e72c      	b.n	80065ec <USBD_StdDevReq+0x48>
 8006792:	2300      	movs	r3, #0
 8006794:	0021      	movs	r1, r4
 8006796:	60a3      	str	r3, [r4, #8]
 8006798:	3108      	adds	r1, #8
 800679a:	e7f6      	b.n	800678a <USBD_StdDevReq+0x1e6>
 800679c:	23a7      	movs	r3, #167	; 0xa7
 800679e:	009b      	lsls	r3, r3, #2
 80067a0:	5ce3      	ldrb	r3, [r4, r3]
 80067a2:	3b01      	subs	r3, #1
 80067a4:	2b02      	cmp	r3, #2
 80067a6:	d89b      	bhi.n	80066e0 <USBD_StdDevReq+0x13c>
 80067a8:	88cb      	ldrh	r3, [r1, #6]
 80067aa:	2b02      	cmp	r3, #2
 80067ac:	d198      	bne.n	80066e0 <USBD_StdDevReq+0x13c>
 80067ae:	3b01      	subs	r3, #1
 80067b0:	60e3      	str	r3, [r4, #12]
 80067b2:	23a9      	movs	r3, #169	; 0xa9
 80067b4:	009b      	lsls	r3, r3, #2
 80067b6:	58e3      	ldr	r3, [r4, r3]
 80067b8:	2b00      	cmp	r3, #0
 80067ba:	d001      	beq.n	80067c0 <USBD_StdDevReq+0x21c>
 80067bc:	2303      	movs	r3, #3
 80067be:	60e3      	str	r3, [r4, #12]
 80067c0:	0021      	movs	r1, r4
 80067c2:	2202      	movs	r2, #2
 80067c4:	310c      	adds	r1, #12
 80067c6:	e7e0      	b.n	800678a <USBD_StdDevReq+0x1e6>
 80067c8:	884b      	ldrh	r3, [r1, #2]
 80067ca:	2b01      	cmp	r3, #1
 80067cc:	d000      	beq.n	80067d0 <USBD_StdDevReq+0x22c>
 80067ce:	e70d      	b.n	80065ec <USBD_StdDevReq+0x48>
 80067d0:	22a9      	movs	r2, #169	; 0xa9
 80067d2:	0092      	lsls	r2, r2, #2
 80067d4:	50a3      	str	r3, [r4, r2]
 80067d6:	e734      	b.n	8006642 <USBD_StdDevReq+0x9e>
 80067d8:	23a7      	movs	r3, #167	; 0xa7
 80067da:	009b      	lsls	r3, r3, #2
 80067dc:	5ce3      	ldrb	r3, [r4, r3]
 80067de:	3b01      	subs	r3, #1
 80067e0:	2b02      	cmp	r3, #2
 80067e2:	d900      	bls.n	80067e6 <USBD_StdDevReq+0x242>
 80067e4:	e77c      	b.n	80066e0 <USBD_StdDevReq+0x13c>
 80067e6:	884b      	ldrh	r3, [r1, #2]
 80067e8:	2b01      	cmp	r3, #1
 80067ea:	d000      	beq.n	80067ee <USBD_StdDevReq+0x24a>
 80067ec:	e6fe      	b.n	80065ec <USBD_StdDevReq+0x48>
 80067ee:	23a9      	movs	r3, #169	; 0xa9
 80067f0:	2200      	movs	r2, #0
 80067f2:	009b      	lsls	r3, r3, #2
 80067f4:	50e2      	str	r2, [r4, r3]
 80067f6:	e724      	b.n	8006642 <USBD_StdDevReq+0x9e>
 80067f8:	0000029e 	.word	0x0000029e
 80067fc:	2000020e 	.word	0x2000020e

08006800 <USBD_StdItfReq>:
 8006800:	2260      	movs	r2, #96	; 0x60
 8006802:	780b      	ldrb	r3, [r1, #0]
 8006804:	b570      	push	{r4, r5, r6, lr}
 8006806:	4013      	ands	r3, r2
 8006808:	0004      	movs	r4, r0
 800680a:	000d      	movs	r5, r1
 800680c:	2b20      	cmp	r3, #32
 800680e:	d003      	beq.n	8006818 <USBD_StdItfReq+0x18>
 8006810:	2b40      	cmp	r3, #64	; 0x40
 8006812:	d001      	beq.n	8006818 <USBD_StdItfReq+0x18>
 8006814:	2b00      	cmp	r3, #0
 8006816:	d119      	bne.n	800684c <USBD_StdItfReq+0x4c>
 8006818:	23a7      	movs	r3, #167	; 0xa7
 800681a:	009b      	lsls	r3, r3, #2
 800681c:	5ce3      	ldrb	r3, [r4, r3]
 800681e:	3b01      	subs	r3, #1
 8006820:	2b02      	cmp	r3, #2
 8006822:	d813      	bhi.n	800684c <USBD_StdItfReq+0x4c>
 8006824:	792b      	ldrb	r3, [r5, #4]
 8006826:	2b01      	cmp	r3, #1
 8006828:	d810      	bhi.n	800684c <USBD_StdItfReq+0x4c>
 800682a:	23ad      	movs	r3, #173	; 0xad
 800682c:	009b      	lsls	r3, r3, #2
 800682e:	58e3      	ldr	r3, [r4, r3]
 8006830:	0029      	movs	r1, r5
 8006832:	689b      	ldr	r3, [r3, #8]
 8006834:	0020      	movs	r0, r4
 8006836:	4798      	blx	r3
 8006838:	88eb      	ldrh	r3, [r5, #6]
 800683a:	2b00      	cmp	r3, #0
 800683c:	d104      	bne.n	8006848 <USBD_StdItfReq+0x48>
 800683e:	2800      	cmp	r0, #0
 8006840:	d102      	bne.n	8006848 <USBD_StdItfReq+0x48>
 8006842:	0020      	movs	r0, r4
 8006844:	f000 f902 	bl	8006a4c <USBD_CtlSendStatus>
 8006848:	2000      	movs	r0, #0
 800684a:	bd70      	pop	{r4, r5, r6, pc}
 800684c:	0020      	movs	r0, r4
 800684e:	f7ff fe9e 	bl	800658e <USBD_CtlError.constprop.1>
 8006852:	e7f9      	b.n	8006848 <USBD_StdItfReq+0x48>

08006854 <USBD_StdEPReq>:
 8006854:	780a      	ldrb	r2, [r1, #0]
 8006856:	000b      	movs	r3, r1
 8006858:	2160      	movs	r1, #96	; 0x60
 800685a:	b570      	push	{r4, r5, r6, lr}
 800685c:	400a      	ands	r2, r1
 800685e:	0004      	movs	r4, r0
 8006860:	2a20      	cmp	r2, #32
 8006862:	d017      	beq.n	8006894 <USBD_StdEPReq+0x40>
 8006864:	2a40      	cmp	r2, #64	; 0x40
 8006866:	d015      	beq.n	8006894 <USBD_StdEPReq+0x40>
 8006868:	2a00      	cmp	r2, #0
 800686a:	d10f      	bne.n	800688c <USBD_StdEPReq+0x38>
 800686c:	8898      	ldrh	r0, [r3, #4]
 800686e:	785a      	ldrb	r2, [r3, #1]
 8006870:	b2c1      	uxtb	r1, r0
 8006872:	2a01      	cmp	r2, #1
 8006874:	d026      	beq.n	80068c4 <USBD_StdEPReq+0x70>
 8006876:	2a00      	cmp	r2, #0
 8006878:	d03e      	beq.n	80068f8 <USBD_StdEPReq+0xa4>
 800687a:	2a03      	cmp	r2, #3
 800687c:	d106      	bne.n	800688c <USBD_StdEPReq+0x38>
 800687e:	22a7      	movs	r2, #167	; 0xa7
 8006880:	0092      	lsls	r2, r2, #2
 8006882:	5ca2      	ldrb	r2, [r4, r2]
 8006884:	2a02      	cmp	r2, #2
 8006886:	d02d      	beq.n	80068e4 <USBD_StdEPReq+0x90>
 8006888:	2a03      	cmp	r2, #3
 800688a:	d00c      	beq.n	80068a6 <USBD_StdEPReq+0x52>
 800688c:	0020      	movs	r0, r4
 800688e:	f7ff fe7e 	bl	800658e <USBD_CtlError.constprop.1>
 8006892:	e006      	b.n	80068a2 <USBD_StdEPReq+0x4e>
 8006894:	22ad      	movs	r2, #173	; 0xad
 8006896:	0092      	lsls	r2, r2, #2
 8006898:	58a2      	ldr	r2, [r4, r2]
 800689a:	0019      	movs	r1, r3
 800689c:	6892      	ldr	r2, [r2, #8]
 800689e:	0020      	movs	r0, r4
 80068a0:	4790      	blx	r2
 80068a2:	2000      	movs	r0, #0
 80068a4:	bd70      	pop	{r4, r5, r6, pc}
 80068a6:	885a      	ldrh	r2, [r3, #2]
 80068a8:	2a00      	cmp	r2, #0
 80068aa:	d107      	bne.n	80068bc <USBD_StdEPReq+0x68>
 80068ac:	064a      	lsls	r2, r1, #25
 80068ae:	d005      	beq.n	80068bc <USBD_StdEPReq+0x68>
 80068b0:	88db      	ldrh	r3, [r3, #6]
 80068b2:	2b00      	cmp	r3, #0
 80068b4:	d102      	bne.n	80068bc <USBD_StdEPReq+0x68>
 80068b6:	0020      	movs	r0, r4
 80068b8:	f000 fabc 	bl	8006e34 <USBD_LL_StallEP>
 80068bc:	0020      	movs	r0, r4
 80068be:	f000 f8c5 	bl	8006a4c <USBD_CtlSendStatus>
 80068c2:	e7ee      	b.n	80068a2 <USBD_StdEPReq+0x4e>
 80068c4:	22a7      	movs	r2, #167	; 0xa7
 80068c6:	0092      	lsls	r2, r2, #2
 80068c8:	5ca2      	ldrb	r2, [r4, r2]
 80068ca:	2a02      	cmp	r2, #2
 80068cc:	d00a      	beq.n	80068e4 <USBD_StdEPReq+0x90>
 80068ce:	2a03      	cmp	r2, #3
 80068d0:	d1dc      	bne.n	800688c <USBD_StdEPReq+0x38>
 80068d2:	885b      	ldrh	r3, [r3, #2]
 80068d4:	2b00      	cmp	r3, #0
 80068d6:	d1e4      	bne.n	80068a2 <USBD_StdEPReq+0x4e>
 80068d8:	064b      	lsls	r3, r1, #25
 80068da:	d0ef      	beq.n	80068bc <USBD_StdEPReq+0x68>
 80068dc:	0020      	movs	r0, r4
 80068de:	f000 fab9 	bl	8006e54 <USBD_LL_ClearStallEP>
 80068e2:	e7eb      	b.n	80068bc <USBD_StdEPReq+0x68>
 80068e4:	064b      	lsls	r3, r1, #25
 80068e6:	d0d1      	beq.n	800688c <USBD_StdEPReq+0x38>
 80068e8:	0020      	movs	r0, r4
 80068ea:	f000 faa3 	bl	8006e34 <USBD_LL_StallEP>
 80068ee:	2180      	movs	r1, #128	; 0x80
 80068f0:	0020      	movs	r0, r4
 80068f2:	f000 fa9f 	bl	8006e34 <USBD_LL_StallEP>
 80068f6:	e7d4      	b.n	80068a2 <USBD_StdEPReq+0x4e>
 80068f8:	23a7      	movs	r3, #167	; 0xa7
 80068fa:	009b      	lsls	r3, r3, #2
 80068fc:	5ce3      	ldrb	r3, [r4, r3]
 80068fe:	2b02      	cmp	r3, #2
 8006900:	d017      	beq.n	8006932 <USBD_StdEPReq+0xde>
 8006902:	2b03      	cmp	r3, #3
 8006904:	d1c2      	bne.n	800688c <USBD_StdEPReq+0x38>
 8006906:	220f      	movs	r2, #15
 8006908:	2314      	movs	r3, #20
 800690a:	400a      	ands	r2, r1
 800690c:	435a      	muls	r2, r3
 800690e:	18a2      	adds	r2, r4, r2
 8006910:	0600      	lsls	r0, r0, #24
 8006912:	d51e      	bpl.n	8006952 <USBD_StdEPReq+0xfe>
 8006914:	6992      	ldr	r2, [r2, #24]
 8006916:	2a00      	cmp	r2, #0
 8006918:	d0b8      	beq.n	800688c <USBD_StdEPReq+0x38>
 800691a:	257f      	movs	r5, #127	; 0x7f
 800691c:	400d      	ands	r5, r1
 800691e:	3501      	adds	r5, #1
 8006920:	435d      	muls	r5, r3
 8006922:	237f      	movs	r3, #127	; 0x7f
 8006924:	1965      	adds	r5, r4, r5
 8006926:	400b      	ands	r3, r1
 8006928:	d11e      	bne.n	8006968 <USBD_StdEPReq+0x114>
 800692a:	602b      	str	r3, [r5, #0]
 800692c:	2202      	movs	r2, #2
 800692e:	0029      	movs	r1, r5
 8006930:	e00b      	b.n	800694a <USBD_StdEPReq+0xf6>
 8006932:	064b      	lsls	r3, r1, #25
 8006934:	d1aa      	bne.n	800688c <USBD_StdEPReq+0x38>
 8006936:	0021      	movs	r1, r4
 8006938:	3155      	adds	r1, #85	; 0x55
 800693a:	31ff      	adds	r1, #255	; 0xff
 800693c:	0603      	lsls	r3, r0, #24
 800693e:	d501      	bpl.n	8006944 <USBD_StdEPReq+0xf0>
 8006940:	3941      	subs	r1, #65	; 0x41
 8006942:	39ff      	subs	r1, #255	; 0xff
 8006944:	2300      	movs	r3, #0
 8006946:	2202      	movs	r2, #2
 8006948:	600b      	str	r3, [r1, #0]
 800694a:	0020      	movs	r0, r4
 800694c:	f000 f850 	bl	80069f0 <USBD_CtlSendData>
 8006950:	e7a7      	b.n	80068a2 <USBD_StdEPReq+0x4e>
 8006952:	32fc      	adds	r2, #252	; 0xfc
 8006954:	6dd2      	ldr	r2, [r2, #92]	; 0x5c
 8006956:	2a00      	cmp	r2, #0
 8006958:	d100      	bne.n	800695c <USBD_StdEPReq+0x108>
 800695a:	e797      	b.n	800688c <USBD_StdEPReq+0x38>
 800695c:	257f      	movs	r5, #127	; 0x7f
 800695e:	400d      	ands	r5, r1
 8006960:	435d      	muls	r5, r3
 8006962:	3555      	adds	r5, #85	; 0x55
 8006964:	35ff      	adds	r5, #255	; 0xff
 8006966:	e7dc      	b.n	8006922 <USBD_StdEPReq+0xce>
 8006968:	0020      	movs	r0, r4
 800696a:	f000 fa83 	bl	8006e74 <USBD_LL_IsStallEP>
 800696e:	2800      	cmp	r0, #0
 8006970:	d001      	beq.n	8006976 <USBD_StdEPReq+0x122>
 8006972:	2301      	movs	r3, #1
 8006974:	e7d9      	b.n	800692a <USBD_StdEPReq+0xd6>
 8006976:	6028      	str	r0, [r5, #0]
 8006978:	e7d8      	b.n	800692c <USBD_StdEPReq+0xd8>

0800697a <USBD_ParseSetupRequest>:
 800697a:	780b      	ldrb	r3, [r1, #0]
 800697c:	7003      	strb	r3, [r0, #0]
 800697e:	784b      	ldrb	r3, [r1, #1]
 8006980:	7043      	strb	r3, [r0, #1]
 8006982:	78ca      	ldrb	r2, [r1, #3]
 8006984:	788b      	ldrb	r3, [r1, #2]
 8006986:	0212      	lsls	r2, r2, #8
 8006988:	189b      	adds	r3, r3, r2
 800698a:	8043      	strh	r3, [r0, #2]
 800698c:	794a      	ldrb	r2, [r1, #5]
 800698e:	790b      	ldrb	r3, [r1, #4]
 8006990:	0212      	lsls	r2, r2, #8
 8006992:	189b      	adds	r3, r3, r2
 8006994:	8083      	strh	r3, [r0, #4]
 8006996:	79ca      	ldrb	r2, [r1, #7]
 8006998:	798b      	ldrb	r3, [r1, #6]
 800699a:	0212      	lsls	r2, r2, #8
 800699c:	189b      	adds	r3, r3, r2
 800699e:	80c3      	strh	r3, [r0, #6]
 80069a0:	4770      	bx	lr

080069a2 <USBD_CtlError>:
 80069a2:	b510      	push	{r4, lr}
 80069a4:	0004      	movs	r4, r0
 80069a6:	2180      	movs	r1, #128	; 0x80
 80069a8:	f000 fa44 	bl	8006e34 <USBD_LL_StallEP>
 80069ac:	2100      	movs	r1, #0
 80069ae:	0020      	movs	r0, r4
 80069b0:	f000 fa40 	bl	8006e34 <USBD_LL_StallEP>
 80069b4:	bd10      	pop	{r4, pc}

080069b6 <USBD_GetString>:
 80069b6:	2300      	movs	r3, #0
 80069b8:	b530      	push	{r4, r5, lr}
 80069ba:	4298      	cmp	r0, r3
 80069bc:	d101      	bne.n	80069c2 <USBD_GetString+0xc>
 80069be:	bd30      	pop	{r4, r5, pc}
 80069c0:	002b      	movs	r3, r5
 80069c2:	5cc4      	ldrb	r4, [r0, r3]
 80069c4:	1c5d      	adds	r5, r3, #1
 80069c6:	2c00      	cmp	r4, #0
 80069c8:	d1fa      	bne.n	80069c0 <USBD_GetString+0xa>
 80069ca:	b2db      	uxtb	r3, r3
 80069cc:	3301      	adds	r3, #1
 80069ce:	005b      	lsls	r3, r3, #1
 80069d0:	8013      	strh	r3, [r2, #0]
 80069d2:	700b      	strb	r3, [r1, #0]
 80069d4:	2303      	movs	r3, #3
 80069d6:	704b      	strb	r3, [r1, #1]
 80069d8:	3b01      	subs	r3, #1
 80069da:	7805      	ldrb	r5, [r0, #0]
 80069dc:	2d00      	cmp	r5, #0
 80069de:	d0ee      	beq.n	80069be <USBD_GetString+0x8>
 80069e0:	1c5a      	adds	r2, r3, #1
 80069e2:	54cd      	strb	r5, [r1, r3]
 80069e4:	b2d2      	uxtb	r2, r2
 80069e6:	3302      	adds	r3, #2
 80069e8:	3001      	adds	r0, #1
 80069ea:	b2db      	uxtb	r3, r3
 80069ec:	548c      	strb	r4, [r1, r2]
 80069ee:	e7f4      	b.n	80069da <USBD_GetString+0x24>

080069f0 <USBD_CtlSendData>:
 80069f0:	0013      	movs	r3, r2
 80069f2:	22a5      	movs	r2, #165	; 0xa5
 80069f4:	b510      	push	{r4, lr}
 80069f6:	2402      	movs	r4, #2
 80069f8:	0092      	lsls	r2, r2, #2
 80069fa:	5084      	str	r4, [r0, r2]
 80069fc:	000a      	movs	r2, r1
 80069fe:	61c3      	str	r3, [r0, #28]
 8006a00:	6203      	str	r3, [r0, #32]
 8006a02:	2100      	movs	r1, #0
 8006a04:	f000 fa5c 	bl	8006ec0 <USBD_LL_Transmit>
 8006a08:	2000      	movs	r0, #0
 8006a0a:	bd10      	pop	{r4, pc}

08006a0c <USBD_CtlContinueSendData>:
 8006a0c:	b510      	push	{r4, lr}
 8006a0e:	0013      	movs	r3, r2
 8006a10:	000a      	movs	r2, r1
 8006a12:	2100      	movs	r1, #0
 8006a14:	f000 fa54 	bl	8006ec0 <USBD_LL_Transmit>
 8006a18:	2000      	movs	r0, #0
 8006a1a:	bd10      	pop	{r4, pc}

08006a1c <USBD_CtlPrepareRx>:
 8006a1c:	0013      	movs	r3, r2
 8006a1e:	22a5      	movs	r2, #165	; 0xa5
 8006a20:	b510      	push	{r4, lr}
 8006a22:	2403      	movs	r4, #3
 8006a24:	0092      	lsls	r2, r2, #2
 8006a26:	5084      	str	r4, [r0, r2]
 8006a28:	0002      	movs	r2, r0
 8006a2a:	32fc      	adds	r2, #252	; 0xfc
 8006a2c:	6613      	str	r3, [r2, #96]	; 0x60
 8006a2e:	6653      	str	r3, [r2, #100]	; 0x64
 8006a30:	000a      	movs	r2, r1
 8006a32:	2100      	movs	r1, #0
 8006a34:	f000 fa54 	bl	8006ee0 <USBD_LL_PrepareReceive>
 8006a38:	2000      	movs	r0, #0
 8006a3a:	bd10      	pop	{r4, pc}

08006a3c <USBD_CtlContinueRx>:
 8006a3c:	b510      	push	{r4, lr}
 8006a3e:	0013      	movs	r3, r2
 8006a40:	000a      	movs	r2, r1
 8006a42:	2100      	movs	r1, #0
 8006a44:	f000 fa4c 	bl	8006ee0 <USBD_LL_PrepareReceive>
 8006a48:	2000      	movs	r0, #0
 8006a4a:	bd10      	pop	{r4, pc}

08006a4c <USBD_CtlSendStatus>:
 8006a4c:	23a5      	movs	r3, #165	; 0xa5
 8006a4e:	2204      	movs	r2, #4
 8006a50:	009b      	lsls	r3, r3, #2
 8006a52:	b510      	push	{r4, lr}
 8006a54:	50c2      	str	r2, [r0, r3]
 8006a56:	2300      	movs	r3, #0
 8006a58:	001a      	movs	r2, r3
 8006a5a:	0019      	movs	r1, r3
 8006a5c:	f000 fa30 	bl	8006ec0 <USBD_LL_Transmit>
 8006a60:	2000      	movs	r0, #0
 8006a62:	bd10      	pop	{r4, pc}

08006a64 <USBD_CtlReceiveStatus>:
 8006a64:	23a5      	movs	r3, #165	; 0xa5
 8006a66:	2205      	movs	r2, #5
 8006a68:	009b      	lsls	r3, r3, #2
 8006a6a:	b510      	push	{r4, lr}
 8006a6c:	50c2      	str	r2, [r0, r3]
 8006a6e:	2300      	movs	r3, #0
 8006a70:	001a      	movs	r2, r3
 8006a72:	0019      	movs	r1, r3
 8006a74:	f000 fa34 	bl	8006ee0 <USBD_LL_PrepareReceive>
 8006a78:	2000      	movs	r0, #0
 8006a7a:	bd10      	pop	{r4, pc}

08006a7c <MX_USB_DEVICE_Init>:
 8006a7c:	b510      	push	{r4, lr}
 8006a7e:	4c11      	ldr	r4, [pc, #68]	; (8006ac4 <MX_USB_DEVICE_Init+0x48>)
 8006a80:	2200      	movs	r2, #0
 8006a82:	4911      	ldr	r1, [pc, #68]	; (8006ac8 <MX_USB_DEVICE_Init+0x4c>)
 8006a84:	0020      	movs	r0, r4
 8006a86:	f7ff fc17 	bl	80062b8 <USBD_Init>
 8006a8a:	2800      	cmp	r0, #0
 8006a8c:	d001      	beq.n	8006a92 <MX_USB_DEVICE_Init+0x16>
 8006a8e:	f7fa f8e7 	bl	8000c60 <Error_Handler>
 8006a92:	490e      	ldr	r1, [pc, #56]	; (8006acc <MX_USB_DEVICE_Init+0x50>)
 8006a94:	0020      	movs	r0, r4
 8006a96:	f7ff fc29 	bl	80062ec <USBD_RegisterClass>
 8006a9a:	2800      	cmp	r0, #0
 8006a9c:	d001      	beq.n	8006aa2 <MX_USB_DEVICE_Init+0x26>
 8006a9e:	f7fa f8df 	bl	8000c60 <Error_Handler>
 8006aa2:	490b      	ldr	r1, [pc, #44]	; (8006ad0 <MX_USB_DEVICE_Init+0x54>)
 8006aa4:	0020      	movs	r0, r4
 8006aa6:	f7ff fbb8 	bl	800621a <USBD_CDC_RegisterInterface>
 8006aaa:	2800      	cmp	r0, #0
 8006aac:	d001      	beq.n	8006ab2 <MX_USB_DEVICE_Init+0x36>
 8006aae:	f7fa f8d7 	bl	8000c60 <Error_Handler>
 8006ab2:	0020      	movs	r0, r4
 8006ab4:	f7ff fc23 	bl	80062fe <USBD_Start>
 8006ab8:	2800      	cmp	r0, #0
 8006aba:	d001      	beq.n	8006ac0 <MX_USB_DEVICE_Init+0x44>
 8006abc:	f7fa f8d0 	bl	8000c60 <Error_Handler>
 8006ac0:	bd10      	pop	{r4, pc}
 8006ac2:	46c0      	nop			; (mov r8, r8)
 8006ac4:	20000894 	.word	0x20000894
 8006ac8:	2000013c 	.word	0x2000013c
 8006acc:	2000001c 	.word	0x2000001c
 8006ad0:	2000012c 	.word	0x2000012c

08006ad4 <CDC_DeInit_FS>:
 8006ad4:	2000      	movs	r0, #0
 8006ad6:	4770      	bx	lr

08006ad8 <CDC_Control_FS>:
 8006ad8:	2000      	movs	r0, #0
 8006ada:	4770      	bx	lr

08006adc <CDC_Receive_FS>:
 8006adc:	b570      	push	{r4, r5, r6, lr}
 8006ade:	000e      	movs	r6, r1
 8006ae0:	0004      	movs	r4, r0
 8006ae2:	4d08      	ldr	r5, [pc, #32]	; (8006b04 <CDC_Receive_FS+0x28>)
 8006ae4:	0001      	movs	r1, r0
 8006ae6:	0028      	movs	r0, r5
 8006ae8:	f7ff fbab 	bl	8006242 <USBD_CDC_SetRxBuffer>
 8006aec:	0028      	movs	r0, r5
 8006aee:	f7ff fbcb 	bl	8006288 <USBD_CDC_ReceivePacket>
 8006af2:	6832      	ldr	r2, [r6, #0]
 8006af4:	0021      	movs	r1, r4
 8006af6:	b2d2      	uxtb	r2, r2
 8006af8:	4803      	ldr	r0, [pc, #12]	; (8006b08 <CDC_Receive_FS+0x2c>)
 8006afa:	f7fa fbf1 	bl	80012e0 <usb_addToQueue>
 8006afe:	2000      	movs	r0, #0
 8006b00:	bd70      	pop	{r4, r5, r6, pc}
 8006b02:	46c0      	nop			; (mov r8, r8)
 8006b04:	20000894 	.word	0x20000894
 8006b08:	200005e0 	.word	0x200005e0

08006b0c <CDC_Init_FS>:
 8006b0c:	b510      	push	{r4, lr}
 8006b0e:	4c06      	ldr	r4, [pc, #24]	; (8006b28 <CDC_Init_FS+0x1c>)
 8006b10:	2200      	movs	r2, #0
 8006b12:	4906      	ldr	r1, [pc, #24]	; (8006b2c <CDC_Init_FS+0x20>)
 8006b14:	0020      	movs	r0, r4
 8006b16:	f7ff fb89 	bl	800622c <USBD_CDC_SetTxBuffer>
 8006b1a:	4905      	ldr	r1, [pc, #20]	; (8006b30 <CDC_Init_FS+0x24>)
 8006b1c:	0020      	movs	r0, r4
 8006b1e:	f7ff fb90 	bl	8006242 <USBD_CDC_SetRxBuffer>
 8006b22:	2000      	movs	r0, #0
 8006b24:	bd10      	pop	{r4, pc}
 8006b26:	46c0      	nop			; (mov r8, r8)
 8006b28:	20000894 	.word	0x20000894
 8006b2c:	20000f40 	.word	0x20000f40
 8006b30:	20000b58 	.word	0x20000b58

08006b34 <CDC_Transmit_FS>:
 8006b34:	000a      	movs	r2, r1
 8006b36:	21ae      	movs	r1, #174	; 0xae
 8006b38:	b510      	push	{r4, lr}
 8006b3a:	4c08      	ldr	r4, [pc, #32]	; (8006b5c <CDC_Transmit_FS+0x28>)
 8006b3c:	0089      	lsls	r1, r1, #2
 8006b3e:	0003      	movs	r3, r0
 8006b40:	5860      	ldr	r0, [r4, r1]
 8006b42:	39a4      	subs	r1, #164	; 0xa4
 8006b44:	5841      	ldr	r1, [r0, r1]
 8006b46:	2001      	movs	r0, #1
 8006b48:	2900      	cmp	r1, #0
 8006b4a:	d106      	bne.n	8006b5a <CDC_Transmit_FS+0x26>
 8006b4c:	0019      	movs	r1, r3
 8006b4e:	0020      	movs	r0, r4
 8006b50:	f7ff fb6c 	bl	800622c <USBD_CDC_SetTxBuffer>
 8006b54:	0020      	movs	r0, r4
 8006b56:	f7ff fb7b 	bl	8006250 <USBD_CDC_TransmitPacket>
 8006b5a:	bd10      	pop	{r4, pc}
 8006b5c:	20000894 	.word	0x20000894

08006b60 <USBD_FS_DeviceDescriptor>:
 8006b60:	2312      	movs	r3, #18
 8006b62:	4801      	ldr	r0, [pc, #4]	; (8006b68 <USBD_FS_DeviceDescriptor+0x8>)
 8006b64:	800b      	strh	r3, [r1, #0]
 8006b66:	4770      	bx	lr
 8006b68:	20000158 	.word	0x20000158

08006b6c <USBD_FS_LangIDStrDescriptor>:
 8006b6c:	2304      	movs	r3, #4
 8006b6e:	4801      	ldr	r0, [pc, #4]	; (8006b74 <USBD_FS_LangIDStrDescriptor+0x8>)
 8006b70:	800b      	strh	r3, [r1, #0]
 8006b72:	4770      	bx	lr
 8006b74:	2000016c 	.word	0x2000016c

08006b78 <IntToUnicode>:
 8006b78:	b530      	push	{r4, r5, lr}
 8006b7a:	2500      	movs	r5, #0
 8006b7c:	3a01      	subs	r2, #1
 8006b7e:	b2d2      	uxtb	r2, r2
 8006b80:	0052      	lsls	r2, r2, #1
 8006b82:	1c8b      	adds	r3, r1, #2
 8006b84:	18d2      	adds	r2, r2, r3
 8006b86:	0f04      	lsrs	r4, r0, #28
 8006b88:	b2e3      	uxtb	r3, r4
 8006b8a:	2c09      	cmp	r4, #9
 8006b8c:	d807      	bhi.n	8006b9e <IntToUnicode+0x26>
 8006b8e:	3330      	adds	r3, #48	; 0x30
 8006b90:	700b      	strb	r3, [r1, #0]
 8006b92:	704d      	strb	r5, [r1, #1]
 8006b94:	3102      	adds	r1, #2
 8006b96:	0100      	lsls	r0, r0, #4
 8006b98:	428a      	cmp	r2, r1
 8006b9a:	d1f4      	bne.n	8006b86 <IntToUnicode+0xe>
 8006b9c:	bd30      	pop	{r4, r5, pc}
 8006b9e:	3337      	adds	r3, #55	; 0x37
 8006ba0:	e7f6      	b.n	8006b90 <IntToUnicode+0x18>
	...

08006ba4 <USBD_FS_SerialStrDescriptor>:
 8006ba4:	231a      	movs	r3, #26
 8006ba6:	b570      	push	{r4, r5, r6, lr}
 8006ba8:	800b      	strh	r3, [r1, #0]
 8006baa:	4b0b      	ldr	r3, [pc, #44]	; (8006bd8 <USBD_FS_SerialStrDescriptor+0x34>)
 8006bac:	4c0b      	ldr	r4, [pc, #44]	; (8006bdc <USBD_FS_SerialStrDescriptor+0x38>)
 8006bae:	6818      	ldr	r0, [r3, #0]
 8006bb0:	4b0b      	ldr	r3, [pc, #44]	; (8006be0 <USBD_FS_SerialStrDescriptor+0x3c>)
 8006bb2:	681b      	ldr	r3, [r3, #0]
 8006bb4:	18c0      	adds	r0, r0, r3
 8006bb6:	2800      	cmp	r0, #0
 8006bb8:	d00b      	beq.n	8006bd2 <USBD_FS_SerialStrDescriptor+0x2e>
 8006bba:	4b0a      	ldr	r3, [pc, #40]	; (8006be4 <USBD_FS_SerialStrDescriptor+0x40>)
 8006bbc:	1ca1      	adds	r1, r4, #2
 8006bbe:	2208      	movs	r2, #8
 8006bc0:	681d      	ldr	r5, [r3, #0]
 8006bc2:	f7ff ffd9 	bl	8006b78 <IntToUnicode>
 8006bc6:	0021      	movs	r1, r4
 8006bc8:	2204      	movs	r2, #4
 8006bca:	3112      	adds	r1, #18
 8006bcc:	0028      	movs	r0, r5
 8006bce:	f7ff ffd3 	bl	8006b78 <IntToUnicode>
 8006bd2:	0020      	movs	r0, r4
 8006bd4:	bd70      	pop	{r4, r5, r6, pc}
 8006bd6:	46c0      	nop			; (mov r8, r8)
 8006bd8:	1ffff7ac 	.word	0x1ffff7ac
 8006bdc:	20000170 	.word	0x20000170
 8006be0:	1ffff7b4 	.word	0x1ffff7b4
 8006be4:	1ffff7b0 	.word	0x1ffff7b0

08006be8 <USBD_FS_ManufacturerStrDescriptor>:
 8006be8:	b510      	push	{r4, lr}
 8006bea:	4c04      	ldr	r4, [pc, #16]	; (8006bfc <USBD_FS_ManufacturerStrDescriptor+0x14>)
 8006bec:	000a      	movs	r2, r1
 8006bee:	4804      	ldr	r0, [pc, #16]	; (8006c00 <USBD_FS_ManufacturerStrDescriptor+0x18>)
 8006bf0:	0021      	movs	r1, r4
 8006bf2:	f7ff fee0 	bl	80069b6 <USBD_GetString>
 8006bf6:	0020      	movs	r0, r4
 8006bf8:	bd10      	pop	{r4, pc}
 8006bfa:	46c0      	nop			; (mov r8, r8)
 8006bfc:	20001328 	.word	0x20001328
 8006c00:	080070f5 	.word	0x080070f5

08006c04 <USBD_FS_ProductStrDescriptor>:
 8006c04:	b510      	push	{r4, lr}
 8006c06:	4c04      	ldr	r4, [pc, #16]	; (8006c18 <USBD_FS_ProductStrDescriptor+0x14>)
 8006c08:	000a      	movs	r2, r1
 8006c0a:	4804      	ldr	r0, [pc, #16]	; (8006c1c <USBD_FS_ProductStrDescriptor+0x18>)
 8006c0c:	0021      	movs	r1, r4
 8006c0e:	f7ff fed2 	bl	80069b6 <USBD_GetString>
 8006c12:	0020      	movs	r0, r4
 8006c14:	bd10      	pop	{r4, pc}
 8006c16:	46c0      	nop			; (mov r8, r8)
 8006c18:	20001328 	.word	0x20001328
 8006c1c:	08007108 	.word	0x08007108

08006c20 <USBD_FS_ConfigStrDescriptor>:
 8006c20:	b510      	push	{r4, lr}
 8006c22:	4c04      	ldr	r4, [pc, #16]	; (8006c34 <USBD_FS_ConfigStrDescriptor+0x14>)
 8006c24:	000a      	movs	r2, r1
 8006c26:	4804      	ldr	r0, [pc, #16]	; (8006c38 <USBD_FS_ConfigStrDescriptor+0x18>)
 8006c28:	0021      	movs	r1, r4
 8006c2a:	f7ff fec4 	bl	80069b6 <USBD_GetString>
 8006c2e:	0020      	movs	r0, r4
 8006c30:	bd10      	pop	{r4, pc}
 8006c32:	46c0      	nop			; (mov r8, r8)
 8006c34:	20001328 	.word	0x20001328
 8006c38:	080070dc 	.word	0x080070dc

08006c3c <USBD_FS_InterfaceStrDescriptor>:
 8006c3c:	b510      	push	{r4, lr}
 8006c3e:	4c04      	ldr	r4, [pc, #16]	; (8006c50 <USBD_FS_InterfaceStrDescriptor+0x14>)
 8006c40:	000a      	movs	r2, r1
 8006c42:	4804      	ldr	r0, [pc, #16]	; (8006c54 <USBD_FS_InterfaceStrDescriptor+0x18>)
 8006c44:	0021      	movs	r1, r4
 8006c46:	f7ff feb6 	bl	80069b6 <USBD_GetString>
 8006c4a:	0020      	movs	r0, r4
 8006c4c:	bd10      	pop	{r4, pc}
 8006c4e:	46c0      	nop			; (mov r8, r8)
 8006c50:	20001328 	.word	0x20001328
 8006c54:	080070e7 	.word	0x080070e7

08006c58 <HAL_PCD_MspInit>:
 8006c58:	b507      	push	{r0, r1, r2, lr}
 8006c5a:	4b0b      	ldr	r3, [pc, #44]	; (8006c88 <HAL_PCD_MspInit+0x30>)
 8006c5c:	6802      	ldr	r2, [r0, #0]
 8006c5e:	429a      	cmp	r2, r3
 8006c60:	d111      	bne.n	8006c86 <HAL_PCD_MspInit+0x2e>
 8006c62:	2080      	movs	r0, #128	; 0x80
 8006c64:	4a09      	ldr	r2, [pc, #36]	; (8006c8c <HAL_PCD_MspInit+0x34>)
 8006c66:	0400      	lsls	r0, r0, #16
 8006c68:	69d1      	ldr	r1, [r2, #28]
 8006c6a:	4301      	orrs	r1, r0
 8006c6c:	61d1      	str	r1, [r2, #28]
 8006c6e:	69d3      	ldr	r3, [r2, #28]
 8006c70:	2200      	movs	r2, #0
 8006c72:	4003      	ands	r3, r0
 8006c74:	9301      	str	r3, [sp, #4]
 8006c76:	201f      	movs	r0, #31
 8006c78:	0011      	movs	r1, r2
 8006c7a:	9b01      	ldr	r3, [sp, #4]
 8006c7c:	f7fb fa66 	bl	800214c <HAL_NVIC_SetPriority>
 8006c80:	201f      	movs	r0, #31
 8006c82:	f7fb fa8d 	bl	80021a0 <HAL_NVIC_EnableIRQ>
 8006c86:	bd07      	pop	{r0, r1, r2, pc}
 8006c88:	40005c00 	.word	0x40005c00
 8006c8c:	40021000 	.word	0x40021000

08006c90 <HAL_PCD_SetupStageCallback>:
 8006c90:	23ac      	movs	r3, #172	; 0xac
 8006c92:	b510      	push	{r4, lr}
 8006c94:	009b      	lsls	r3, r3, #2
 8006c96:	18c1      	adds	r1, r0, r3
 8006c98:	3340      	adds	r3, #64	; 0x40
 8006c9a:	58c0      	ldr	r0, [r0, r3]
 8006c9c:	f7ff fb4a 	bl	8006334 <USBD_LL_SetupStage>
 8006ca0:	bd10      	pop	{r4, pc}

08006ca2 <HAL_PCD_DataOutStageCallback>:
 8006ca2:	2328      	movs	r3, #40	; 0x28
 8006ca4:	434b      	muls	r3, r1
 8006ca6:	18c3      	adds	r3, r0, r3
 8006ca8:	337d      	adds	r3, #125	; 0x7d
 8006caa:	33ff      	adds	r3, #255	; 0xff
 8006cac:	681a      	ldr	r2, [r3, #0]
 8006cae:	23bc      	movs	r3, #188	; 0xbc
 8006cb0:	b510      	push	{r4, lr}
 8006cb2:	009b      	lsls	r3, r3, #2
 8006cb4:	58c0      	ldr	r0, [r0, r3]
 8006cb6:	f7ff fb6f 	bl	8006398 <USBD_LL_DataOutStage>
 8006cba:	bd10      	pop	{r4, pc}

08006cbc <HAL_PCD_DataInStageCallback>:
 8006cbc:	2328      	movs	r3, #40	; 0x28
 8006cbe:	434b      	muls	r3, r1
 8006cc0:	18c3      	adds	r3, r0, r3
 8006cc2:	6bda      	ldr	r2, [r3, #60]	; 0x3c
 8006cc4:	23bc      	movs	r3, #188	; 0xbc
 8006cc6:	b510      	push	{r4, lr}
 8006cc8:	009b      	lsls	r3, r3, #2
 8006cca:	58c0      	ldr	r0, [r0, r3]
 8006ccc:	f7ff fba8 	bl	8006420 <USBD_LL_DataInStage>
 8006cd0:	bd10      	pop	{r4, pc}

08006cd2 <HAL_PCD_SOFCallback>:
 8006cd2:	23bc      	movs	r3, #188	; 0xbc
 8006cd4:	b510      	push	{r4, lr}
 8006cd6:	009b      	lsls	r3, r3, #2
 8006cd8:	58c0      	ldr	r0, [r0, r3]
 8006cda:	f7ff fc49 	bl	8006570 <USBD_LL_SOF>
 8006cde:	bd10      	pop	{r4, pc}

08006ce0 <HAL_PCD_ResetCallback>:
 8006ce0:	6883      	ldr	r3, [r0, #8]
 8006ce2:	b570      	push	{r4, r5, r6, lr}
 8006ce4:	0004      	movs	r4, r0
 8006ce6:	2b02      	cmp	r3, #2
 8006ce8:	d001      	beq.n	8006cee <HAL_PCD_ResetCallback+0xe>
 8006cea:	f7f9 ffb9 	bl	8000c60 <Error_Handler>
 8006cee:	25bc      	movs	r5, #188	; 0xbc
 8006cf0:	00ad      	lsls	r5, r5, #2
 8006cf2:	2101      	movs	r1, #1
 8006cf4:	5960      	ldr	r0, [r4, r5]
 8006cf6:	f7ff fc20 	bl	800653a <USBD_LL_SetSpeed>
 8006cfa:	5960      	ldr	r0, [r4, r5]
 8006cfc:	f7ff fbf3 	bl	80064e6 <USBD_LL_Reset>
 8006d00:	bd70      	pop	{r4, r5, r6, pc}
	...

08006d04 <HAL_PCD_SuspendCallback>:
 8006d04:	23bc      	movs	r3, #188	; 0xbc
 8006d06:	b510      	push	{r4, lr}
 8006d08:	0004      	movs	r4, r0
 8006d0a:	009b      	lsls	r3, r3, #2
 8006d0c:	58c0      	ldr	r0, [r0, r3]
 8006d0e:	f7ff fc17 	bl	8006540 <USBD_LL_Suspend>
 8006d12:	69a3      	ldr	r3, [r4, #24]
 8006d14:	2b00      	cmp	r3, #0
 8006d16:	d004      	beq.n	8006d22 <HAL_PCD_SuspendCallback+0x1e>
 8006d18:	2306      	movs	r3, #6
 8006d1a:	4a02      	ldr	r2, [pc, #8]	; (8006d24 <HAL_PCD_SuspendCallback+0x20>)
 8006d1c:	6911      	ldr	r1, [r2, #16]
 8006d1e:	430b      	orrs	r3, r1
 8006d20:	6113      	str	r3, [r2, #16]
 8006d22:	bd10      	pop	{r4, pc}
 8006d24:	e000ed00 	.word	0xe000ed00

08006d28 <HAL_PCD_ResumeCallback>:
 8006d28:	6983      	ldr	r3, [r0, #24]
 8006d2a:	b510      	push	{r4, lr}
 8006d2c:	0004      	movs	r4, r0
 8006d2e:	2b00      	cmp	r3, #0
 8006d30:	d006      	beq.n	8006d40 <HAL_PCD_ResumeCallback+0x18>
 8006d32:	2106      	movs	r1, #6
 8006d34:	4a05      	ldr	r2, [pc, #20]	; (8006d4c <HAL_PCD_ResumeCallback+0x24>)
 8006d36:	6913      	ldr	r3, [r2, #16]
 8006d38:	438b      	bics	r3, r1
 8006d3a:	6113      	str	r3, [r2, #16]
 8006d3c:	f7f9 fd86 	bl	800084c <SystemClock_Config>
 8006d40:	23bc      	movs	r3, #188	; 0xbc
 8006d42:	009b      	lsls	r3, r3, #2
 8006d44:	58e0      	ldr	r0, [r4, r3]
 8006d46:	f7ff fc07 	bl	8006558 <USBD_LL_Resume>
 8006d4a:	bd10      	pop	{r4, pc}
 8006d4c:	e000ed00 	.word	0xe000ed00

08006d50 <USBD_LL_Init>:
 8006d50:	23bc      	movs	r3, #188	; 0xbc
 8006d52:	b570      	push	{r4, r5, r6, lr}
 8006d54:	0005      	movs	r5, r0
 8006d56:	481c      	ldr	r0, [pc, #112]	; (8006dc8 <USBD_LL_Init+0x78>)
 8006d58:	009b      	lsls	r3, r3, #2
 8006d5a:	50c5      	str	r5, [r0, r3]
 8006d5c:	4b1b      	ldr	r3, [pc, #108]	; (8006dcc <USBD_LL_Init+0x7c>)
 8006d5e:	24b0      	movs	r4, #176	; 0xb0
 8006d60:	6003      	str	r3, [r0, #0]
 8006d62:	2308      	movs	r3, #8
 8006d64:	6043      	str	r3, [r0, #4]
 8006d66:	3b06      	subs	r3, #6
 8006d68:	6083      	str	r3, [r0, #8]
 8006d6a:	6103      	str	r3, [r0, #16]
 8006d6c:	2300      	movs	r3, #0
 8006d6e:	00a4      	lsls	r4, r4, #2
 8006d70:	5128      	str	r0, [r5, r4]
 8006d72:	6183      	str	r3, [r0, #24]
 8006d74:	61c3      	str	r3, [r0, #28]
 8006d76:	6203      	str	r3, [r0, #32]
 8006d78:	f7fc fb1e 	bl	80033b8 <HAL_PCD_Init>
 8006d7c:	2800      	cmp	r0, #0
 8006d7e:	d001      	beq.n	8006d84 <USBD_LL_Init+0x34>
 8006d80:	f7f9 ff6e 	bl	8000c60 <Error_Handler>
 8006d84:	2200      	movs	r2, #0
 8006d86:	5928      	ldr	r0, [r5, r4]
 8006d88:	0011      	movs	r1, r2
 8006d8a:	2318      	movs	r3, #24
 8006d8c:	f7fd f8e4 	bl	8003f58 <HAL_PCDEx_PMAConfig>
 8006d90:	5928      	ldr	r0, [r5, r4]
 8006d92:	2358      	movs	r3, #88	; 0x58
 8006d94:	2200      	movs	r2, #0
 8006d96:	2180      	movs	r1, #128	; 0x80
 8006d98:	f7fd f8de 	bl	8003f58 <HAL_PCDEx_PMAConfig>
 8006d9c:	5928      	ldr	r0, [r5, r4]
 8006d9e:	23c0      	movs	r3, #192	; 0xc0
 8006da0:	2200      	movs	r2, #0
 8006da2:	2181      	movs	r1, #129	; 0x81
 8006da4:	f7fd f8d8 	bl	8003f58 <HAL_PCDEx_PMAConfig>
 8006da8:	2388      	movs	r3, #136	; 0x88
 8006daa:	5928      	ldr	r0, [r5, r4]
 8006dac:	005b      	lsls	r3, r3, #1
 8006dae:	2200      	movs	r2, #0
 8006db0:	2101      	movs	r1, #1
 8006db2:	f7fd f8d1 	bl	8003f58 <HAL_PCDEx_PMAConfig>
 8006db6:	2380      	movs	r3, #128	; 0x80
 8006db8:	5928      	ldr	r0, [r5, r4]
 8006dba:	005b      	lsls	r3, r3, #1
 8006dbc:	2200      	movs	r2, #0
 8006dbe:	2182      	movs	r1, #130	; 0x82
 8006dc0:	f7fd f8ca 	bl	8003f58 <HAL_PCDEx_PMAConfig>
 8006dc4:	2000      	movs	r0, #0
 8006dc6:	bd70      	pop	{r4, r5, r6, pc}
 8006dc8:	20001528 	.word	0x20001528
 8006dcc:	40005c00 	.word	0x40005c00

08006dd0 <USBD_LL_Start>:
 8006dd0:	23b0      	movs	r3, #176	; 0xb0
 8006dd2:	009b      	lsls	r3, r3, #2
 8006dd4:	58c0      	ldr	r0, [r0, r3]
 8006dd6:	b510      	push	{r4, lr}
 8006dd8:	f7fc fb5a 	bl	8003490 <HAL_PCD_Start>
 8006ddc:	2302      	movs	r3, #2
 8006dde:	2803      	cmp	r0, #3
 8006de0:	d801      	bhi.n	8006de6 <USBD_LL_Start+0x16>
 8006de2:	4b02      	ldr	r3, [pc, #8]	; (8006dec <USBD_LL_Start+0x1c>)
 8006de4:	5c1b      	ldrb	r3, [r3, r0]
 8006de6:	0018      	movs	r0, r3
 8006de8:	bd10      	pop	{r4, pc}
 8006dea:	46c0      	nop			; (mov r8, r8)
 8006dec:	0800711e 	.word	0x0800711e

08006df0 <USBD_LL_OpenEP>:
 8006df0:	b510      	push	{r4, lr}
 8006df2:	0014      	movs	r4, r2
 8006df4:	001a      	movs	r2, r3
 8006df6:	0023      	movs	r3, r4
 8006df8:	24b0      	movs	r4, #176	; 0xb0
 8006dfa:	00a4      	lsls	r4, r4, #2
 8006dfc:	5900      	ldr	r0, [r0, r4]
 8006dfe:	f7fc ffb3 	bl	8003d68 <HAL_PCD_EP_Open>
 8006e02:	2302      	movs	r3, #2
 8006e04:	2803      	cmp	r0, #3
 8006e06:	d801      	bhi.n	8006e0c <USBD_LL_OpenEP+0x1c>
 8006e08:	4b01      	ldr	r3, [pc, #4]	; (8006e10 <USBD_LL_OpenEP+0x20>)
 8006e0a:	5c1b      	ldrb	r3, [r3, r0]
 8006e0c:	0018      	movs	r0, r3
 8006e0e:	bd10      	pop	{r4, pc}
 8006e10:	0800711e 	.word	0x0800711e

08006e14 <USBD_LL_CloseEP>:
 8006e14:	23b0      	movs	r3, #176	; 0xb0
 8006e16:	009b      	lsls	r3, r3, #2
 8006e18:	58c0      	ldr	r0, [r0, r3]
 8006e1a:	b510      	push	{r4, lr}
 8006e1c:	f7fc ffd5 	bl	8003dca <HAL_PCD_EP_Close>
 8006e20:	2302      	movs	r3, #2
 8006e22:	2803      	cmp	r0, #3
 8006e24:	d801      	bhi.n	8006e2a <USBD_LL_CloseEP+0x16>
 8006e26:	4b02      	ldr	r3, [pc, #8]	; (8006e30 <USBD_LL_CloseEP+0x1c>)
 8006e28:	5c1b      	ldrb	r3, [r3, r0]
 8006e2a:	0018      	movs	r0, r3
 8006e2c:	bd10      	pop	{r4, pc}
 8006e2e:	46c0      	nop			; (mov r8, r8)
 8006e30:	0800711e 	.word	0x0800711e

08006e34 <USBD_LL_StallEP>:
 8006e34:	23b0      	movs	r3, #176	; 0xb0
 8006e36:	009b      	lsls	r3, r3, #2
 8006e38:	58c0      	ldr	r0, [r0, r3]
 8006e3a:	b510      	push	{r4, lr}
 8006e3c:	f7fd f833 	bl	8003ea6 <HAL_PCD_EP_SetStall>
 8006e40:	2302      	movs	r3, #2
 8006e42:	2803      	cmp	r0, #3
 8006e44:	d801      	bhi.n	8006e4a <USBD_LL_StallEP+0x16>
 8006e46:	4b02      	ldr	r3, [pc, #8]	; (8006e50 <USBD_LL_StallEP+0x1c>)
 8006e48:	5c1b      	ldrb	r3, [r3, r0]
 8006e4a:	0018      	movs	r0, r3
 8006e4c:	bd10      	pop	{r4, pc}
 8006e4e:	46c0      	nop			; (mov r8, r8)
 8006e50:	0800711e 	.word	0x0800711e

08006e54 <USBD_LL_ClearStallEP>:
 8006e54:	23b0      	movs	r3, #176	; 0xb0
 8006e56:	009b      	lsls	r3, r3, #2
 8006e58:	58c0      	ldr	r0, [r0, r3]
 8006e5a:	b510      	push	{r4, lr}
 8006e5c:	f7fd f84e 	bl	8003efc <HAL_PCD_EP_ClrStall>
 8006e60:	2302      	movs	r3, #2
 8006e62:	2803      	cmp	r0, #3
 8006e64:	d801      	bhi.n	8006e6a <USBD_LL_ClearStallEP+0x16>
 8006e66:	4b02      	ldr	r3, [pc, #8]	; (8006e70 <USBD_LL_ClearStallEP+0x1c>)
 8006e68:	5c1b      	ldrb	r3, [r3, r0]
 8006e6a:	0018      	movs	r0, r3
 8006e6c:	bd10      	pop	{r4, pc}
 8006e6e:	46c0      	nop			; (mov r8, r8)
 8006e70:	0800711e 	.word	0x0800711e

08006e74 <USBD_LL_IsStallEP>:
 8006e74:	23b0      	movs	r3, #176	; 0xb0
 8006e76:	b24a      	sxtb	r2, r1
 8006e78:	009b      	lsls	r3, r3, #2
 8006e7a:	58c3      	ldr	r3, [r0, r3]
 8006e7c:	2a00      	cmp	r2, #0
 8006e7e:	da07      	bge.n	8006e90 <USBD_LL_IsStallEP+0x1c>
 8006e80:	227f      	movs	r2, #127	; 0x7f
 8006e82:	4011      	ands	r1, r2
 8006e84:	3101      	adds	r1, #1
 8006e86:	3a57      	subs	r2, #87	; 0x57
 8006e88:	4351      	muls	r1, r2
 8006e8a:	185b      	adds	r3, r3, r1
 8006e8c:	7898      	ldrb	r0, [r3, #2]
 8006e8e:	4770      	bx	lr
 8006e90:	2228      	movs	r2, #40	; 0x28
 8006e92:	4351      	muls	r1, r2
 8006e94:	185b      	adds	r3, r3, r1
 8006e96:	336b      	adds	r3, #107	; 0x6b
 8006e98:	33ff      	adds	r3, #255	; 0xff
 8006e9a:	7818      	ldrb	r0, [r3, #0]
 8006e9c:	e7f7      	b.n	8006e8e <USBD_LL_IsStallEP+0x1a>
	...

08006ea0 <USBD_LL_SetUSBAddress>:
 8006ea0:	23b0      	movs	r3, #176	; 0xb0
 8006ea2:	009b      	lsls	r3, r3, #2
 8006ea4:	58c0      	ldr	r0, [r0, r3]
 8006ea6:	b510      	push	{r4, lr}
 8006ea8:	f7fc fb05 	bl	80034b6 <HAL_PCD_SetAddress>
 8006eac:	2302      	movs	r3, #2
 8006eae:	2803      	cmp	r0, #3
 8006eb0:	d801      	bhi.n	8006eb6 <USBD_LL_SetUSBAddress+0x16>
 8006eb2:	4b02      	ldr	r3, [pc, #8]	; (8006ebc <USBD_LL_SetUSBAddress+0x1c>)
 8006eb4:	5c1b      	ldrb	r3, [r3, r0]
 8006eb6:	0018      	movs	r0, r3
 8006eb8:	bd10      	pop	{r4, pc}
 8006eba:	46c0      	nop			; (mov r8, r8)
 8006ebc:	0800711e 	.word	0x0800711e

08006ec0 <USBD_LL_Transmit>:
 8006ec0:	b510      	push	{r4, lr}
 8006ec2:	24b0      	movs	r4, #176	; 0xb0
 8006ec4:	00a4      	lsls	r4, r4, #2
 8006ec6:	5900      	ldr	r0, [r0, r4]
 8006ec8:	f7fc ffd0 	bl	8003e6c <HAL_PCD_EP_Transmit>
 8006ecc:	2302      	movs	r3, #2
 8006ece:	2803      	cmp	r0, #3
 8006ed0:	d801      	bhi.n	8006ed6 <USBD_LL_Transmit+0x16>
 8006ed2:	4b02      	ldr	r3, [pc, #8]	; (8006edc <USBD_LL_Transmit+0x1c>)
 8006ed4:	5c1b      	ldrb	r3, [r3, r0]
 8006ed6:	0018      	movs	r0, r3
 8006ed8:	bd10      	pop	{r4, pc}
 8006eda:	46c0      	nop			; (mov r8, r8)
 8006edc:	0800711e 	.word	0x0800711e

08006ee0 <USBD_LL_PrepareReceive>:
 8006ee0:	b510      	push	{r4, lr}
 8006ee2:	24b0      	movs	r4, #176	; 0xb0
 8006ee4:	00a4      	lsls	r4, r4, #2
 8006ee6:	5900      	ldr	r0, [r0, r4]
 8006ee8:	f7fc ff96 	bl	8003e18 <HAL_PCD_EP_Receive>
 8006eec:	2302      	movs	r3, #2
 8006eee:	2803      	cmp	r0, #3
 8006ef0:	d801      	bhi.n	8006ef6 <USBD_LL_PrepareReceive+0x16>
 8006ef2:	4b02      	ldr	r3, [pc, #8]	; (8006efc <USBD_LL_PrepareReceive+0x1c>)
 8006ef4:	5c1b      	ldrb	r3, [r3, r0]
 8006ef6:	0018      	movs	r0, r3
 8006ef8:	bd10      	pop	{r4, pc}
 8006efa:	46c0      	nop			; (mov r8, r8)
 8006efc:	0800711e 	.word	0x0800711e

08006f00 <USBD_LL_GetRxDataSize>:
 8006f00:	23b0      	movs	r3, #176	; 0xb0
 8006f02:	b510      	push	{r4, lr}
 8006f04:	009b      	lsls	r3, r3, #2
 8006f06:	58c0      	ldr	r0, [r0, r3]
 8006f08:	f7fc ffa7 	bl	8003e5a <HAL_PCD_EP_GetRxCount>
 8006f0c:	bd10      	pop	{r4, pc}
	...

08006f10 <USBD_static_malloc>:
 8006f10:	4800      	ldr	r0, [pc, #0]	; (8006f14 <USBD_static_malloc+0x4>)
 8006f12:	4770      	bx	lr
 8006f14:	20000210 	.word	0x20000210

08006f18 <USBD_static_free>:
 8006f18:	4770      	bx	lr
	...

08006f1c <__libc_init_array>:
 8006f1c:	b570      	push	{r4, r5, r6, lr}
 8006f1e:	2600      	movs	r6, #0
 8006f20:	4d0c      	ldr	r5, [pc, #48]	; (8006f54 <__libc_init_array+0x38>)
 8006f22:	4c0d      	ldr	r4, [pc, #52]	; (8006f58 <__libc_init_array+0x3c>)
 8006f24:	1b64      	subs	r4, r4, r5
 8006f26:	10a4      	asrs	r4, r4, #2
 8006f28:	42a6      	cmp	r6, r4
 8006f2a:	d109      	bne.n	8006f40 <__libc_init_array+0x24>
 8006f2c:	2600      	movs	r6, #0
 8006f2e:	f000 f82b 	bl	8006f88 <_init>
 8006f32:	4d0a      	ldr	r5, [pc, #40]	; (8006f5c <__libc_init_array+0x40>)
 8006f34:	4c0a      	ldr	r4, [pc, #40]	; (8006f60 <__libc_init_array+0x44>)
 8006f36:	1b64      	subs	r4, r4, r5
 8006f38:	10a4      	asrs	r4, r4, #2
 8006f3a:	42a6      	cmp	r6, r4
 8006f3c:	d105      	bne.n	8006f4a <__libc_init_array+0x2e>
 8006f3e:	bd70      	pop	{r4, r5, r6, pc}
 8006f40:	00b3      	lsls	r3, r6, #2
 8006f42:	58eb      	ldr	r3, [r5, r3]
 8006f44:	4798      	blx	r3
 8006f46:	3601      	adds	r6, #1
 8006f48:	e7ee      	b.n	8006f28 <__libc_init_array+0xc>
 8006f4a:	00b3      	lsls	r3, r6, #2
 8006f4c:	58eb      	ldr	r3, [r5, r3]
 8006f4e:	4798      	blx	r3
 8006f50:	3601      	adds	r6, #1
 8006f52:	e7f2      	b.n	8006f3a <__libc_init_array+0x1e>
 8006f54:	08007124 	.word	0x08007124
 8006f58:	08007124 	.word	0x08007124
 8006f5c:	08007124 	.word	0x08007124
 8006f60:	08007128 	.word	0x08007128

08006f64 <memcpy>:
 8006f64:	2300      	movs	r3, #0
 8006f66:	b510      	push	{r4, lr}
 8006f68:	429a      	cmp	r2, r3
 8006f6a:	d100      	bne.n	8006f6e <memcpy+0xa>
 8006f6c:	bd10      	pop	{r4, pc}
 8006f6e:	5ccc      	ldrb	r4, [r1, r3]
 8006f70:	54c4      	strb	r4, [r0, r3]
 8006f72:	3301      	adds	r3, #1
 8006f74:	e7f8      	b.n	8006f68 <memcpy+0x4>

08006f76 <memset>:
 8006f76:	0003      	movs	r3, r0
 8006f78:	1812      	adds	r2, r2, r0
 8006f7a:	4293      	cmp	r3, r2
 8006f7c:	d100      	bne.n	8006f80 <memset+0xa>
 8006f7e:	4770      	bx	lr
 8006f80:	7019      	strb	r1, [r3, #0]
 8006f82:	3301      	adds	r3, #1
 8006f84:	e7f9      	b.n	8006f7a <memset+0x4>
	...

08006f88 <_init>:
 8006f88:	b5f8      	push	{r3, r4, r5, r6, r7, lr}
 8006f8a:	46c0      	nop			; (mov r8, r8)
 8006f8c:	bcf8      	pop	{r3, r4, r5, r6, r7}
 8006f8e:	bc08      	pop	{r3}
 8006f90:	469e      	mov	lr, r3
 8006f92:	4770      	bx	lr

08006f94 <_fini>:
 8006f94:	b5f8      	push	{r3, r4, r5, r6, r7, lr}
 8006f96:	46c0      	nop			; (mov r8, r8)
 8006f98:	bcf8      	pop	{r3, r4, r5, r6, r7}
 8006f9a:	bc08      	pop	{r3}
 8006f9c:	469e      	mov	lr, r3
 8006f9e:	4770      	bx	lr
